Warning[w6]: Type conflict for external/entry "strcpy", in module SimpleDS18B20 against external/entry in module ?strcpy; prototyped function vs K&R function
  /* In module SimpleDS18B20: */
  /* K&R Function, args 0, attr 0 */
  int (__xdata_reentrant strcpy)();
  /* In module ?strcpy: */
  /* Function, args 2, attr 0 */
  char * (__xdata_reentrant strcpy)(char *,
                                    char const *);
Warning[w52]: More than one definition for the byte at address 0x6b in common segment INTVEC. It is defined in module "hal_uart" as well as in module "hal_key"
################################################################################
#                                                                              #
#      IAR Universal Linker V5.4.1.30                                          #
#                                                                              #
#           Link time     =  13/Mar/2014  15:59:30                             #
#           Target CPU    =  x51                                               #
#           List file     =  E:\TexasInstruments\BLE-CC254x-1.4.0\Projects\ble #
#                            \SimpleBLEPeripheralzeke\CC2541DB\CC2541\List\Sim #
#                            pleBLEPeripheral.map                              #
#           Output file 1 =  E:\TexasInstruments\BLE-CC254x-1.4.0\Projects\ble #
#                            \SimpleBLEPeripheralzeke\CC2541DB\CC2541\Exe\Simp #
#                            leBLEPeripheral.hex                               #
#                            Format: intel-extended                            #
#           Output file 2 =  E:\TexasInstruments\BLE-CC254x-1.4.0\Projects\ble #
#                            \SimpleBLEPeripheralzeke\CC2541DB\CC2541\Exe\Simp #
#                            leBLEPeripheral.d51                               #
#                            Format: debug                                     #
#                            UBROF version 10.0.6                              #
#                            Using library modules for C-SPY (-rt)             #
#           Command line  =  "-IC:\Program Files\IAR Systems\Embedded Workbenc #
#                            h 6.4\8051\CONFIG\"                               #
#                            -D_NR_OF_BANKS=0x07 -D_CODEBANK_END=0xFFFF        #
#                            -D_CODEBANK_START=0x8000 -D?CBANK_MASK=0xFF       #
#                            -D?CBANK=0x9F                                     #
#                            E:\TexasInstruments\BLE-CC254x-1.4.0\Projects\ble #
#                            \Libraries\CC2541DB\bin\CC2541_BLE_peri.lib       #
#                            E:\TexasInstruments\BLE-CC254x-1.4.0\Projects\ble #
#                            \Libraries\Common\bin\CC254x_BLE_HCI_TL_None.lib  #
#                            E:\TexasInstruments\BLE-CC254x-1.4.0\Projects\ble #
#                            \SimpleBLEPeripheralzeke\CC2541DB\CC2541\Obj\OSAL #
#                            .r51                                              #
#                            E:\TexasInstruments\BLE-CC254x-1.4.0\Projects\ble #
#                            \SimpleBLEPeripheralzeke\CC2541DB\CC2541\Obj\OSAL #
#                            _ClockBLE.r51                                     #
#                            E:\TexasInstruments\BLE-CC254x-1.4.0\Projects\ble #
#                            \SimpleBLEPeripheralzeke\CC2541DB\CC2541\Obj\OSAL #
#                            _Memory.r51                                       #
#                            E:\TexasInstruments\BLE-CC254x-1.4.0\Projects\ble #
#                            \SimpleBLEPeripheralzeke\CC2541DB\CC2541\Obj\OSAL #
#                            _PwrMgr.r51                                       #
#                            E:\TexasInstruments\BLE-CC254x-1.4.0\Projects\ble #
#                            \SimpleBLEPeripheralzeke\CC2541DB\CC2541\Obj\OSAL #
#                            _SimpleBLEPeripheral.r51                          #
#                            E:\TexasInstruments\BLE-CC254x-1.4.0\Projects\ble #
#                            \SimpleBLEPeripheralzeke\CC2541DB\CC2541\Obj\OSAL #
#                            _Timers.r51                                       #
#                            E:\TexasInstruments\BLE-CC254x-1.4.0\Projects\ble #
#                            \SimpleBLEPeripheralzeke\CC2541DB\CC2541\Obj\OnBo #
#                            ard.r51                                           #
#                            E:\TexasInstruments\BLE-CC254x-1.4.0\Projects\ble #
#                            \SimpleBLEPeripheralzeke\CC2541DB\CC2541\Obj\Simp #
#                            leBLEPeripheral_Main.r51                          #
#                            E:\TexasInstruments\BLE-CC254x-1.4.0\Projects\ble #
#                            \SimpleBLEPeripheralzeke\CC2541DB\CC2541\Obj\Simp #
#                            leBLESPIFlash.r51                                 #
#                            E:\TexasInstruments\BLE-CC254x-1.4.0\Projects\ble #
#                            \SimpleBLEPeripheralzeke\CC2541DB\CC2541\Obj\Simp #
#                            leBLESerialUart.r51                               #
#                            E:\TexasInstruments\BLE-CC254x-1.4.0\Projects\ble #
#                            \SimpleBLEPeripheralzeke\CC2541DB\CC2541\Obj\Simp #
#                            leDS18B20.r51                                     #
#                            E:\TexasInstruments\BLE-CC254x-1.4.0\Projects\ble #
#                            \SimpleBLEPeripheralzeke\CC2541DB\CC2541\Obj\Simp #
#                            leEepromUtils.r51                                 #
#                            E:\TexasInstruments\BLE-CC254x-1.4.0\Projects\ble #
#                            \SimpleBLEPeripheralzeke\CC2541DB\CC2541\Obj\Simp #
#                            leRTCInterrupt.r51                                #
#                            E:\TexasInstruments\BLE-CC254x-1.4.0\Projects\ble #
#                            \SimpleBLEPeripheralzeke\CC2541DB\CC2541\Obj\Simp #
#                            leTemperature.r51                                 #
#                            E:\TexasInstruments\BLE-CC254x-1.4.0\Projects\ble #
#                            \SimpleBLEPeripheralzeke\CC2541DB\CC2541\Obj\Simp #
#                            lepasscode.r51                                    #
#                            E:\TexasInstruments\BLE-CC254x-1.4.0\Projects\ble #
#                            \SimpleBLEPeripheralzeke\CC2541DB\CC2541\Obj\batt #
#                            service.r51                                       #
#                            E:\TexasInstruments\BLE-CC254x-1.4.0\Projects\ble #
#                            \SimpleBLEPeripheralzeke\CC2541DB\CC2541\Obj\devi #
#                            nfoservice.r51                                    #
#                            E:\TexasInstruments\BLE-CC254x-1.4.0\Projects\ble #
#                            \SimpleBLEPeripheralzeke\CC2541DB\CC2541\Obj\gap. #
#                            r51                                               #
#                            E:\TexasInstruments\BLE-CC254x-1.4.0\Projects\ble #
#                            \SimpleBLEPeripheralzeke\CC2541DB\CC2541\Obj\gapb #
#                            ondmgr.r51                                        #
#                            E:\TexasInstruments\BLE-CC254x-1.4.0\Projects\ble #
#                            \SimpleBLEPeripheralzeke\CC2541DB\CC2541\Obj\gatt #
#                            _uuid.r51                                         #
#                            E:\TexasInstruments\BLE-CC254x-1.4.0\Projects\ble #
#                            \SimpleBLEPeripheralzeke\CC2541DB\CC2541\Obj\hal_ #
#                            adc.r51                                           #
#                            E:\TexasInstruments\BLE-CC254x-1.4.0\Projects\ble #
#                            \SimpleBLEPeripheralzeke\CC2541DB\CC2541\Obj\hal_ #
#                            aes.r51                                           #
#                            E:\TexasInstruments\BLE-CC254x-1.4.0\Projects\ble #
#                            \SimpleBLEPeripheralzeke\CC2541DB\CC2541\Obj\hal_ #
#                            at24c32.r51                                       #
#                            E:\TexasInstruments\BLE-CC254x-1.4.0\Projects\ble #
#                            \SimpleBLEPeripheralzeke\CC2541DB\CC2541\Obj\hal_ #
#                            crc.r51                                           #
#                            E:\TexasInstruments\BLE-CC254x-1.4.0\Projects\ble #
#                            \SimpleBLEPeripheralzeke\CC2541DB\CC2541\Obj\hal_ #
#                            dma.r51                                           #
#                            E:\TexasInstruments\BLE-CC254x-1.4.0\Projects\ble #
#                            \SimpleBLEPeripheralzeke\CC2541DB\CC2541\Obj\hal_ #
#                            drivers.r51                                       #
#                            E:\TexasInstruments\BLE-CC254x-1.4.0\Projects\ble #
#                            \SimpleBLEPeripheralzeke\CC2541DB\CC2541\Obj\hal_ #
#                            ds1307.r51                                        #
#                            E:\TexasInstruments\BLE-CC254x-1.4.0\Projects\ble #
#                            \SimpleBLEPeripheralzeke\CC2541DB\CC2541\Obj\hal_ #
#                            eeprom.r51                                        #
#                            E:\TexasInstruments\BLE-CC254x-1.4.0\Projects\ble #
#                            \SimpleBLEPeripheralzeke\CC2541DB\CC2541\Obj\hal_ #
#                            flash.r51                                         #
#                            E:\TexasInstruments\BLE-CC254x-1.4.0\Projects\ble #
#                            \SimpleBLEPeripheralzeke\CC2541DB\CC2541\Obj\hal_ #
#                            i2c.r51                                           #
#                            E:\TexasInstruments\BLE-CC254x-1.4.0\Projects\ble #
#                            \SimpleBLEPeripheralzeke\CC2541DB\CC2541\Obj\hal_ #
#                            key.r51                                           #
#                            E:\TexasInstruments\BLE-CC254x-1.4.0\Projects\ble #
#                            \SimpleBLEPeripheralzeke\CC2541DB\CC2541\Obj\hal_ #
#                            lcd.r51                                           #
#                            E:\TexasInstruments\BLE-CC254x-1.4.0\Projects\ble #
#                            \SimpleBLEPeripheralzeke\CC2541DB\CC2541\Obj\hal_ #
#                            led.r51                                           #
#                            E:\TexasInstruments\BLE-CC254x-1.4.0\Projects\ble #
#                            \SimpleBLEPeripheralzeke\CC2541DB\CC2541\Obj\hal_ #
#                            sensor.r51                                        #
#                            E:\TexasInstruments\BLE-CC254x-1.4.0\Projects\ble #
#                            \SimpleBLEPeripheralzeke\CC2541DB\CC2541\Obj\hal_ #
#                            sleep.r51                                         #
#                            E:\TexasInstruments\BLE-CC254x-1.4.0\Projects\ble #
#                            \SimpleBLEPeripheralzeke\CC2541DB\CC2541\Obj\hal_ #
#                            startup.r51                                       #
#                            E:\TexasInstruments\BLE-CC254x-1.4.0\Projects\ble #
#                            \SimpleBLEPeripheralzeke\CC2541DB\CC2541\Obj\hal_ #
#                            timer.r51                                         #
#                            E:\TexasInstruments\BLE-CC254x-1.4.0\Projects\ble #
#                            \SimpleBLEPeripheralzeke\CC2541DB\CC2541\Obj\hal_ #
#                            uart.r51                                          #
#                            E:\TexasInstruments\BLE-CC254x-1.4.0\Projects\ble #
#                            \SimpleBLEPeripheralzeke\CC2541DB\CC2541\Obj\npi. #
#                            r51                                               #
#                            E:\TexasInstruments\BLE-CC254x-1.4.0\Projects\ble #
#                            \SimpleBLEPeripheralzeke\CC2541DB\CC2541\Obj\osal #
#                            _bufmgr.r51                                       #
#                            E:\TexasInstruments\BLE-CC254x-1.4.0\Projects\ble #
#                            \SimpleBLEPeripheralzeke\CC2541DB\CC2541\Obj\osal #
#                            _cbtimer.r51                                      #
#                            E:\TexasInstruments\BLE-CC254x-1.4.0\Projects\ble #
#                            \SimpleBLEPeripheralzeke\CC2541DB\CC2541\Obj\osal #
#                            _snv.r51                                          #
#                            E:\TexasInstruments\BLE-CC254x-1.4.0\Projects\ble #
#                            \SimpleBLEPeripheralzeke\CC2541DB\CC2541\Obj\peri #
#                            pheral.r51                                        #
#                            E:\TexasInstruments\BLE-CC254x-1.4.0\Projects\ble #
#                            \SimpleBLEPeripheralzeke\CC2541DB\CC2541\Obj\simp #
#                            leBLEPeripheral.r51                               #
#                            E:\TexasInstruments\BLE-CC254x-1.4.0\Projects\ble #
#                            \SimpleBLEPeripheralzeke\CC2541DB\CC2541\Obj\simp #
#                            leGATTprofile.r51                                 #
#                            -o                                                #
#                            E:\TexasInstruments\BLE-CC254x-1.4.0\Projects\ble #
#                            \SimpleBLEPeripheralzeke\CC2541DB\CC2541\Exe\Simp #
#                            leBLEPeripheral.d51                               #
#                            -l                                                #
#                            E:\TexasInstruments\BLE-CC254x-1.4.0\Projects\ble #
#                            \SimpleBLEPeripheralzeke\CC2541DB\CC2541\List\Sim #
#                            pleBLEPeripheral.map                              #
#                            -xeso -f                                          #
#                            E:\TexasInstruments\BLE-CC254x-1.4.0\Projects\ble #
#                            \SimpleBLEPeripheralzeke\CC2541DB\..\..\common\cc #
#                            2540\ti_51ew_cc2540b.xcl                          #
#                            (-D_IDATA_END=0xFF -D_PDATA_START=0x1E00          #
#                            -D_PDATA_END=0x1EFF -D_IXDATA_START=0x0001        #
#                            -D_IXDATA_END=0x1EFF                              #
#                            -D_XDATA_START=_IXDATA_START                      #
#                            -D_XDATA_END=_IXDATA_END -D_CODE_START=0x0000     #
#                            -D_CODE_END=0x7FFF -D_FIRST_BANK_ADDR=0x10000     #
#                            -D_NEAR_CODE_END=_CODE_END -D?REGISTER_BANK=0     #
#                            -D_REGISTER_BANK_START=0 -D?PBANK_NUMBER=0x1E     #
#                            -D_BREG_START=0x00 -D?VB=0x20                     #
#                            -D_FAR_DATA_NR_OF_BANKS=0x0E                      #
#                            -D_FAR_DATA_START=0x010001                        #
#                            -D_FAR_DATA_END=0xFFFFFF                          #
#                            -D_FAR_CODE_START=_CODE_START                     #
#                            -D_FAR_CODE_END=_CODE_END                         #
#                            -Z(BIT)BREG=_BREG_START -Z(BIT)BIT_N=0-7F         #
#                            -Z(DATA)REGISTERS+8=_REGISTER_BANK_START          #
#                            -Z(DATA)BDATA_Z,BDATA_N,BDATA_I=20-2F             #
#                            -Z(DATA)VREG+_NR_OF_VIRTUAL_REGISTERS=08-7F       #
#                            -Z(DATA)PSP,XSP=08-7F -Z(DATA)DOVERLAY=08-7F      #
#                            -Z(DATA)DATA_I,DATA_Z,DATA_N=08-7F                #
#                            -U(IDATA)0-7F=(DATA)0-7F                          #
#                            -Z(IDATA)IDATA_I,IDATA_Z,IDATA_N=08-_IDATA_END    #
#                            -Z(IDATA)ISTACK+_IDATA_STACK_SIZE#08-_IDATA_END   #
#                            -Z(IDATA)IOVERLAY=08-FF                           #
#                            -Z(CODE)INTVEC=_CODE_START                        #
#                            -Z(CODE)CSTART=_CODE_START-_CODE_END              #
#                            -Z(CODE)BIT_ID,BDATA_ID,DATA_ID,IDATA_ID,IXDATA_I #
#                            D,PDATA_ID,XDATA_ID=_CODE_START-_CODE_END         #
#                            -Z(CODE)HUGE_ID=_FAR_CODE_START-_FAR_CODE_END     #
#                            -D_SLEEP_CODE_SPACE_START=(_CODE_END-7)           #
#                            -D_SLEEP_CODE_SPACE_END=(_CODE_END)               #
#                            -Z(CODE)SLEEP_CODE=_SLEEP_CODE_SPACE_START-_SLEEP #
#                            _CODE_SPACE_END                                   #
#                            -Z(CODE)BANK_RELAYS,RCODE,DIFUNCT,CODE_N,NEAR_COD #
#                            E=_CODE_START-_CODE_END                           #
#                            -P(CODE)CODE_C=_CODE_START-_CODE_END              #
#                            -P(CONST)XDATA_ROM_C=0x8000-0xFFFF                #
#                            -P(CODE)XDATA_ROM_C_FLASH=0x18000-0x1FFFF         #
#                            -QXDATA_ROM_C=XDATA_ROM_C_FLASH                   #
#                            -P(CODE)BANKED_CODE=_CODE_START-_CODE_END,[(_CODE #
#                            BANK_START+_FIRST_BANK_ADDR)-(_CODEBANK_END+_FIRS #
#                            T_BANK_ADDR)]*_NR_OF_BANKS+10000                  #
#                            -P(CODE)FAR_CODE_C,FAR_CODE_N,FAR_CODE=[_FAR_CODE #
#                            _START-_FAR_CODE_END]/10000                       #
#                            -P(CODE)HUGE_CODE_C=_FAR_CODE_START-_FAR_CODE_END #
#                            -Z(CODE)CHECKSUM#_CODE_END                        #
#                            -Z(XDATA)EXT_STACK+_EXTENDED_STACK_SIZE=_EXTENDED #
#                            _STACK_START                                      #
#                            -Z(XDATA)PSTACK+_PDATA_STACK_SIZE=_PDATA_START-_P #
#                            DATA_END                                          #
#                            -Z(XDATA)XSTACK+_XDATA_STACK_SIZE=_XDATA_START-_X #
#                            DATA_END                                          #
#                            -Z(XDATA)PDATA_Z,PDATA_I=_PDATA_START-_PDATA_END  #
#                            -P(XDATA)PDATA_N=_PDATA_START-_PDATA_END          #
#                            -Z(XDATA)IXDATA_Z,IXDATA_I=_IXDATA_START-_IXDATA_ #
#                            END                                               #
#                            -P(XDATA)IXDATA_N=_IXDATA_START-_IXDATA_END       #
#                            -Z(XDATA)XDATA_Z,XDATA_I=_XDATA_START-_XDATA_END  #
#                            -P(XDATA)XDATA_N=_XDATA_START-_XDATA_END          #
#                            -Z(XDATA)XDATA_HEAP+_XDATA_HEAP_SIZE=_XDATA_START #
#                            -_XDATA_END                                       #
#                            -Z(XDATA)FAR_Z=[_FAR_DATA_START-_FAR_DATA_END]/10 #
#                            000                                               #
#                            -Z(XDATA)FAR_I=[_FAR_DATA_START-_FAR_DATA_END]/10 #
#                            000                                               #
#                            -Z(CODE)FAR_ID=[_FAR_CODE_START-_FAR_CODE_END]/10 #
#                            000                                               #
#                            -Z(XDATA)FAR_HEAP+_FAR_HEAP_SIZE=[_FAR_DATA_START #
#                            -_FAR_DATA_END]/10000                             #
#                            -P(XDATA)FAR_N=[_FAR_DATA_START-_FAR_DATA_END]*_F #
#                            AR_DATA_NR_OF_BANKS+10000                         #
#                            -P(CONST)FAR_ROM_C=[_FAR_DATA_START-_FAR_DATA_END #
#                            ]*_FAR_DATA_NR_OF_BANKS+10000                     #
#                            -Z(XDATA)HUGE_Z,HUGE_I=_FAR_DATA_START-_FAR_DATA_ #
#                            END                                               #
#                            -P(XDATA)HUGE_N=_FAR_DATA_START-_FAR_DATA_END     #
#                            -Z(XDATA)HUGE_HEAP+_HUGE_HEAP_SIZE=_FAR_DATA_STAR #
#                            T-_FAR_DATA_END                                   #
#                            -Z(CONST)HUGE_ROM_C=_FAR_DATA_START-_FAR_DATA_END #
#                            -cx51 -D_BLENV_ADDRESS_SPACE_START=0x7E800        #
#                            -D_BLENV_ADDRESS_SPACE_END=0x7F7FF                #
#                            -Z(CODE)BLENV_ADDRESS_SPACE=_BLENV_ADDRESS_SPACE_ #
#                            START-_BLENV_ADDRESS_SPACE_END                    #
#                            -D_BANK0_START=0x00000 -D_BANK0_END=0x07FFF       #
#                            -D_BANK1_START=0x18000 -D_BANK1_END=0x1FFFF       #
#                            -D_BANK2_START=0x28000 -D_BANK2_END=0x2FFFF       #
#                            -D_BANK3_START=0x38000 -D_BANK3_END=0x3FFFF       #
#                            -D_BANK4_START=0x48000 -D_BANK4_END=0x4FFFF       #
#                            -D_BANK5_START=0x58000 -D_BANK5_END=0x5FFFF       #
#                            -D_BANK6_START=0x68000 -D_BANK6_END=0x6FFFF       #
#                            -D_BANK7_START=0x78000                            #
#                            -D_BANK7_END=(_BLENV_ADDRESS_SPACE_START-1)       #
#                            -P(CODE)BANK0=_BANK0_START-_BANK0_END             #
#                            -P(CODE)BANK1=_BANK1_START-_BANK1_END             #
#                            -P(CODE)BANK2=_BANK2_START-_BANK2_END             #
#                            -P(CODE)BANK3=_BANK3_START-_BANK3_END             #
#                            -P(CODE)BANK4=_BANK4_START-_BANK4_END             #
#                            -P(CODE)BANK5=_BANK5_START-_BANK5_END             #
#                            -P(CODE)BANK6=_BANK6_START-_BANK6_END             #
#                            -P(CODE)BANK7=_BANK7_START-_BANK7_END             #
#                            -M(CODE)[(_CODEBANK_START+_FIRST_BANK_ADDR)-(_COD #
#                            EBANK_END+_FIRST_BANK_ADDR)]*_NR_OF_BANKS+0x10000 #
#                            =0x8000                                           #
#                            -ww69=i                                           #
#                            -D_FLASH_LOCK_BITS_START=((_NR_OF_BANKS*_FIRST_BA #
#                            NK_ADDR)+0xFFF0)                                  #
#                            -D_FLASH_LOCK_BITS_END=((_NR_OF_BANKS*_FIRST_BANK #
#                            _ADDR)+0xFFFF)                                    #
#                            -Z(CODE)FLASH_LOCK_BITS=_FLASH_LOCK_BITS_START-_F #
#                            LASH_LOCK_BITS_END                                #
#                            -U(CODE)0x0000=(CODE)_FLASH_LOCK_BITS_START-_FLAS #
#                            H_LOCK_BITS_END)                                  #
#                            -D_NR_OF_VIRTUAL_REGISTERS=10 -D?PBANK=0x93       #
#                            -e?BCALL_FF=?BCALL -e?BRET_FF=?BRET               #
#                            -e?BDISPATCH_FF=?BDISPATCH                        #
#                            -e_large_write=_formatted_write                   #
#                            -e_large_read=_formatted_read -rt                 #
#                            -Ointel-extended=E:\TexasInstruments\BLE-CC254x-1 #
#                            .4.0\Projects\ble\SimpleBLEPeripheralzeke\CC2541D #
#                            B\CC2541\Exe\SimpleBLEPeripheral.hex              #
#                            -s __program_start                                #
#                            "C:\Program Files\IAR Systems\Embedded Workbench  #
#                            6.4\8051\LIB\CLIB\cl-pli-blxd-1e16x01.r51"        #
#                            -D_IDATA_STACK_SIZE=0xC8                          #
#                            -D_EXTENDED_STACK_START=0x00                      #
#                            -D_EXTENDED_STACK_SIZE=0x00                       #
#                            -D_PDATA_STACK_SIZE=0x00                          #
#                            -D_XDATA_STACK_SIZE=0x280                         #
#                            -D_XDATA_HEAP_SIZE=0xFF -D_FAR_HEAP_SIZE=0xFFF    #
#                            -D_HUGE_HEAP_SIZE=0xFFF -D_FAR22_HEAP_SIZE=0xFF   #
#                                                                              #
#                           Copyright (C) 1987-2012 IAR Systems AB.            #
################################################################################





                ****************************************
                *                                      *
                *           CROSS REFERENCE            *
                *                                      *
                ****************************************

       Program entry at : CODE      0000011D  Relocatable, from module : CSTARTUP




                ****************************************
                *                                      *
                *            RUNTIME MODEL             *
                *                                      *
                ****************************************

  __SystemLibrary          = CLib
  __calling_convention     = xdata_reentrant
  __code_model             = banked
  __core                   = plain
  __data_model             = large
  __dptr_size              = 16
  __extended_stack         = disabled
  __location_for_constants = data
  __number_of_dptrs        = 1
  __rt_version             = 1

                ****************************************
                *                                      *
                *    AUTOMATIC SYMBOL REDIRECTIONS     *
                *                                      *
                ****************************************

                  There are no automatic symbol redirections.

                ****************************************
                *                                      *
                *              ENTRY LIST              *
                *                                      *
                ****************************************

Module  Entry                                          Address
------  -----                                          -------
?FILLER_BYTES
?ABS_ENTRY_MOD
        _FAR22_HEAP_SIZE                               CODE 000000FF
        _HUGE_HEAP_SIZE                                CODE 00000FFF
        _FAR_HEAP_SIZE                                 CODE 00000FFF
        _XDATA_HEAP_SIZE                               CODE 000000FF
        _XDATA_STACK_SIZE                              CODE 00000280
        _PDATA_STACK_SIZE                              CODE 00000000
        _EXTENDED_STACK_SIZE                           CODE 00000000
        _EXTENDED_STACK_START                          CODE 00000000
        _IDATA_STACK_SIZE                              CODE 000000C8
        ?PBANK                                         CODE 00000093
        _NR_OF_VIRTUAL_REGISTERS                       CODE 00000010
        _FLASH_LOCK_BITS_END                           CODE 0003FFFF
        _FLASH_LOCK_BITS_START                         CODE 0003FFF0
        _BANK7_END                                     CODE 0003E7FF
        _BANK7_START                                   CODE 00038000
        _BANK6_END                                     CODE 00037FFF
        _BANK6_START                                   CODE 00030000
        _BANK5_END                                     CODE 0002FFFF
        _BANK5_START                                   CODE 00028000
        _BANK4_END                                     CODE 00027FFF
        _BANK4_START                                   CODE 00020000
        _BANK3_END                                     CODE 0001FFFF
        _BANK3_START                                   CODE 00018000
        _BANK2_END                                     CODE 00017FFF
        _BANK2_START                                   CODE 00010000
        _BANK1_END                                     CODE 0000FFFF
        _BANK1_START                                   CODE 00008000
        _BANK0_END                                     CODE 00007FFF
        _BANK0_START                                   CODE 00000000
        _BLENV_ADDRESS_SPACE_END                       CODE 0003F7FF
        _BLENV_ADDRESS_SPACE_START                     CODE 0003E800
        _SLEEP_CODE_SPACE_END                          CODE 00007FFF
        _SLEEP_CODE_SPACE_START                        CODE 00007FF8
        _FAR_CODE_END                                  CODE 00007FFF
        _FAR_CODE_START                                CODE 00000000
        _FAR_DATA_END                                  CODE 00FFFFFF
        _FAR_DATA_START                                CODE 00010001
        _FAR_DATA_NR_OF_BANKS                          CODE 0000000E
        ?VB                                            CODE 00000020
        _BREG_START                                    CODE 00000000
        ?PBANK_NUMBER                                  CODE 0000001E
        _REGISTER_BANK_START                           CODE 00000000
        ?REGISTER_BANK                                 CODE 00000000
        _NEAR_CODE_END                                 CODE 00007FFF
        _FIRST_BANK_ADDR                               CODE 00010000
        _CODE_END                                      CODE 00007FFF
        _CODE_START                                    CODE 00000000
        _XDATA_END                                     CODE 00001EFF
        _XDATA_START                                   CODE 00000001
        _IXDATA_END                                    CODE 00001EFF
        _IXDATA_START                                  CODE 00000001
        _PDATA_END                                     CODE 00001EFF
        _PDATA_START                                   CODE 00001E00
        _IDATA_END                                     CODE 000000FF
        ?CBANK                                         CODE 0000009F
        ?CBANK_MASK                                    CODE 000000FF
        _CODEBANK_START                                CODE 00008000
        _CODEBANK_END                                  CODE 0000FFFF
        _NR_OF_BANKS                                   CODE 00000007
att_server ( E:\TexasInstruments\BLE-CC254x-1.4.0\Projects\ble\Libraries\CC2541DB\bin\CC2541_BLE_peri.lib )
        ATT_ErrorRsp                                   CODE 0001B4AF
        ATT_ExchangeMTURsp                             CODE 0001B4C6
        ATT_FindInfoRsp                                CODE 0001B4F7
        ATT_FindByTypeValueRsp                         CODE 0001B532
        ATT_ReadByTypeRsp                              CODE 0001B55C
        ATT_ReadRsp                                    CODE 0001B586
        ATT_ReadBlobRsp                                CODE 0001B59D
        ATT_ReadMultiRsp                               CODE 0001B5B4
        ATT_ReadByGrpTypeRsp                           CODE 0001B5CB
        ATT_WriteRsp                                   CODE 0001B5F4
        ATT_PrepareWriteRsp                            CODE 0001B607
        ATT_ExecuteWriteRsp                            CODE 0001B61D
        ATT_HandleValueNoti                            CODE 0001B630
        ATT_HandleValueInd                             CODE 0001B657
        ATT_ErrorRsp::?relay                           CODE 00000478
        ATT_ExchangeMTURsp::?relay                     CODE 0000047E
        ATT_FindInfoRsp::?relay                        CODE 00000484
        ATT_FindByTypeValueRsp::?relay                 CODE 0000048A
        ATT_ReadByTypeRsp::?relay                      CODE 00000490
        ATT_ReadRsp::?relay                            CODE 00000496
        ATT_ReadBlobRsp::?relay                        CODE 0000049C
        ATT_ReadMultiRsp::?relay                       CODE 000004A2
        ATT_ReadByGrpTypeRsp::?relay                   CODE 000004A8
        ATT_WriteRsp::?relay                           CODE 000004AE
        ATT_PrepareWriteRsp::?relay                    CODE 000004B4
        ATT_ExecuteWriteRsp::?relay                    CODE 000004BA
        ATT_HandleValueNoti::?relay                    CODE 000004C0
        ATT_HandleValueInd::?relay                     CODE 000004C6
att_util ( E:\TexasInstruments\BLE-CC254x-1.4.0\Projects\ble\Libraries\CC2541DB\bin\CC2541_BLE_peri.lib )
        btBaseUUID                                     CONST 00008337
        ATT_ParsePacket                                CODE 000135BB
        ATT_BuildErrorRsp                              CODE 000136BF
        ATT_ParseExchangeMTUReq                        CODE 000136F7
        ATT_BuildExchangeMTURsp                        CODE 0001371A
        ATT_ParseFindInfoReq                           CODE 00013725
        ATT_BuildFindInfoRsp                           CODE 00013748
        ATT_ParseFindByTypeValueReq                    CODE 00013857
        ATT_BuildFindByTypeValueRsp                    CODE 0001392C
        ATT_ParseReadByTypeReq                         CODE 000139A7
        ATT_BuildReadByTypeRsp                         CODE 00013A2F
        ATT_ParseReadReq                               CODE 00013A6A
        ATT_BuildReadRsp                               CODE 00013AA1
        ATT_ParseWriteReq                              CODE 00013B2F
        ATT_ParseReadBlobReq                           CODE 00013C08
        ATT_BuildReadBlobRsp                           CODE 00013C68
        ATT_ParseReadMultiReq                          CODE 00013C73
        ATT_BuildReadMultiRsp                          CODE 00013CF2
        ATT_BuildReadByGrpTypeRsp                      CODE 00013CF5
        ATT_ParsePrepareWriteReq                       CODE 00013CF8
        ATT_BuildPrepareWriteRsp                       CODE 00013D87
        ATT_ParseExecuteWriteReq                       CODE 00013D8A
        ATT_BuildHandleValueInd                        CODE 00013DBA
        attSendMsg                                     CODE 00013DE4
        ATT_CompareUUID                                CODE 00013ED2
        ATT_ConvertUUIDto128                           CODE 00013F84
        ATT_ParsePacket::?relay                        CODE 000004CC
        ATT_BuildErrorRsp::?relay                      CODE 000004D2
        ATT_ParseExchangeMTUReq::?relay                CODE 000004D8
        ATT_BuildExchangeMTURsp::?relay                CODE 000004DE
        ATT_ParseFindInfoReq::?relay                   CODE 000004E4
        ATT_BuildFindInfoRsp::?relay                   CODE 000004EA
        ATT_ParseFindByTypeValueReq::?relay            CODE 000004F0
        ATT_BuildFindByTypeValueRsp::?relay            CODE 000004F6
        ATT_ParseReadByTypeReq::?relay                 CODE 000004FC
        ATT_BuildReadByTypeRsp::?relay                 CODE 00000502
        ATT_ParseReadReq::?relay                       CODE 00000508
        ATT_BuildReadRsp::?relay                       CODE 0000050E
        ATT_ParseWriteReq::?relay                      CODE 00000514
        ATT_ParseReadBlobReq::?relay                   CODE 0000051A
        ATT_BuildReadBlobRsp::?relay                   CODE 00000520
        ATT_ParseReadMultiReq::?relay                  CODE 00000526
        ATT_BuildReadMultiRsp::?relay                  CODE 0000052C
        ATT_BuildReadByGrpTypeRsp::?relay              CODE 00000532
        ATT_ParsePrepareWriteReq::?relay               CODE 00000538
        ATT_BuildPrepareWriteRsp::?relay               CODE 0000053E
        ATT_ParseExecuteWriteReq::?relay               CODE 00000544
        ATT_BuildHandleValueInd::?relay                CODE 0000054A
        attSendMsg::?relay                             CODE 00000550
        ATT_CompareUUID::?relay                        CODE 00000556
        ATT_ConvertUUIDto128::?relay                   CODE 0000055C
gap_configmgr ( E:\TexasInstruments\BLE-CC254x-1.4.0\Projects\ble\Libraries\CC2541DB\bin\CC2541_BLE_peri.lib )
        gapAppTaskID                                   XDATA 00000D59
        gapProfileRole                                 XDATA 00000281
        gapDeviceAddrMode                              XDATA 00000282
        gapPrivateAddrChangeTimeout                    XDATA 00000283
        gapAutoAdvPrivateAddrChange                    XDATA 00000285
        GAP_SetParamValue                              CODE 00016CC2
        GAP_GetParamValue                              CODE 00016CEA
        GAP_ParamsInit                                 CODE 00016D18
        GAP_SecParamsInit                              CODE 00016D4F
        gapReadBD_ADDRStatus                           CODE 00016DAD
        gapReadBufSizeCmdStatus                        CODE 00016DF8
        gapProcessNewAddr                              CODE 00016E43
        gapAddAddrAdj                                  CODE 00016E83
        gapDetermineAddrType                           CODE 00016EC9
        gapProcessRandomAddrComplete                   CODE 00016EF7
        gapGetSRK                                      CODE 00016FB4
        gapGetSignCounter                              CODE 00016FBE
        gapIncSignCounter                              CODE 00016FCB
        gapUpdateConnSignCounter                       CODE 00016FFE
        gapGetDevAddressMode                           CODE 000170CA
        gapGetDevAddress                               CODE 000170D6
        gapGetIRK                                      CODE 000170EE
        __Constant_ea60                                CONST 00008496
        GAP_SetParamValue::?relay                      CODE 00000562
        GAP_GetParamValue::?relay                      CODE 00000568
        GAP_ParamsInit::?relay                         CODE 0000056E
        GAP_SecParamsInit::?relay                      CODE 00000574
        gapReadBD_ADDRStatus::?relay                   CODE 0000057A
        gapReadBufSizeCmdStatus::?relay                CODE 00000580
        gapProcessNewAddr::?relay                      CODE 00000586
        gapAddAddrAdj::?relay                          CODE 0000058C
        gapDetermineAddrType::?relay                   CODE 00000592
        gapProcessRandomAddrComplete::?relay           CODE 00000598
        gapGetSRK::?relay                              CODE 0000059E
        gapGetSignCounter::?relay                      CODE 000005A4
        gapIncSignCounter::?relay                      CODE 000005AA
        gapUpdateConnSignCounter::?relay               CODE 000005B0
        gapGetDevAddressMode::?relay                   CODE 000005B6
        gapGetDevAddress::?relay                       CODE 000005BC
        gapGetIRK::?relay                              CODE 000005C2
        gapSendDeviceInitDoneEvent                     CODE 000170F8
        gapSendDeviceInitDoneEvent::?relay             CODE 000005C8
gap_devmgr ( E:\TexasInstruments\BLE-CC254x-1.4.0\Projects\ble\Libraries\CC2541DB\bin\CC2541_BLE_peri.lib )
        pGapAdvertState                                XDATA 0000029C
        GAP_ResolvePrivateAddr                         CODE 0001C06B
        gapIsAdvertising                               CODE 0001C079
        gapValidADType                                 CODE 0001C091
        gapFindADType                                  CODE 0001C0A9
        GAP_ResolvePrivateAddr::?relay                 CODE 000005CE
        gapIsAdvertising::?relay                       CODE 000005D4
        gapValidADType::?relay                         CODE 000005DA
        gapFindADType::?relay                          CODE 000005E0
gap_linkmgr ( E:\TexasInstruments\BLE-CC254x-1.4.0\Projects\ble\Libraries\CC2541DB\bin\CC2541_BLE_peri.lib )
        pEstLink                                       XDATA 0000029E
        pAuthLink                                      XDATA 000002A0
        pfnCentralConnCBs                              XDATA 000002A2
        GAP_TerminateLinkReq                           CODE 0000CD71
        GAP_Signable                                   CODE 0000CE1D
        GAP_Authenticate                               CODE 0000CE98
        GAP_TerminateAuth                              CODE 0000CFB9
        GAP_PasscodeUpdate                             CODE 0000CFF5
        GAP_Bond                                       CODE 0000D09E
        gapProcessConnectionCompleteEvt                CODE 0000D185
        gapProcessConnUpdateCompleteEvt                CODE 0000D2E9
        gapProcessDisconnectCompleteEvt                CODE 0000D340
        sendEstLinkEvent                               CODE 0000D3C1
        gapSendLinkUpdateEvent                         CODE 0000D4FE
        gapFreeEstLink                                 CODE 0000D80C
        gapSendBondCompleteEvent                       CODE 0000D82A
        gapSendPairingReqEvent                         CODE 0000D8AD
        gapPasskeyNeededCB                             CODE 0000D981
        gapPairingCompleteCB                           CODE 0000DA49
        GAP_TerminateLinkReq::?relay                   CODE 000005E6
        GAP_Signable::?relay                           CODE 000005EC
        GAP_Authenticate::?relay                       CODE 000005F2
        GAP_TerminateAuth::?relay                      CODE 000005F8
        GAP_PasscodeUpdate::?relay                     CODE 000005FE
        GAP_Bond::?relay                               CODE 00000604
        gapProcessConnectionCompleteEvt::?relay        CODE 0000060A
        gapProcessConnUpdateCompleteEvt::?relay        CODE 00000610
        gapProcessDisconnectCompleteEvt::?relay        CODE 00000616
        sendEstLinkEvent::?relay                       CODE 0000061C
        gapSendLinkUpdateEvent::?relay                 CODE 00000628
        gapFreeEstLink::?relay                         CODE 00000640
        gapSendBondCompleteEvent::?relay               CODE 00000646
        gapSendPairingReqEvent::?relay                 CODE 0000064C
        gapPasskeyNeededCB::?relay                     CODE 00000652
        gapPairingCompleteCB::?relay                   CODE 00000658
        sendTerminateEvent                             CODE 0000D4B1
        disconnectNext                                 CODE 0000D584
        sendAuthEvent                                  CODE 0000D5B6
        gapFreeAuthLink                                CODE 0000D7CA
        sendTerminateEvent::?relay                     CODE 00000622
        disconnectNext::?relay                         CODE 0000062E
        sendAuthEvent::?relay                          CODE 00000634
        gapFreeAuthLink::?relay                        CODE 0000063A
gap_peridevmgr ( E:\TexasInstruments\BLE-CC254x-1.4.0\Projects\ble\Libraries\CC2541DB\bin\CC2541_BLE_peri.lib )
        GAP_MakeDiscoverable                           CODE 00016078
        GAP_UpdateAdvertisingData                      CODE 0001614B
        GAP_EndDiscoverable                            CODE 000161F4
        GAP_PeriDevMgrInit                             CODE 00016247
        gapSetAdvParams                                CODE 00016383
        gapSetAdvParamsStatus                          CODE 0001646F
        gapWriteAdvEnableStatus                        CODE 0001649E
        gapWriteAdvDataStatus                          CODE 000165B1
        __Constant_3e8                                 CONST 00008486
        GAP_MakeDiscoverable::?relay                   CODE 0000065E
        GAP_UpdateAdvertisingData::?relay              CODE 00000664
        GAP_EndDiscoverable::?relay                    CODE 0000066A
        GAP_PeriDevMgrInit::?relay                     CODE 00000670
        gapSetAdvParams::?relay                        CODE 0000067C
        gapSetAdvParamsStatus::?relay                  CODE 00000682
        gapWriteAdvEnableStatus::?relay                CODE 00000688
        gapWriteAdvDataStatus::?relay                  CODE 0000068E
        gapPeriProcessHCICmdCompleteEvt                CODE 000162F7
        gapProcessAdvertisingEvt                       CODE 000165F9
        gapSendMakeDiscEvent                           CODE 000166CE
        gapFreeAdvertState                             CODE 0001670A
        isLimitedDiscoverableMode                      CODE 00016726
        gapPeriProcessHCICmdCompleteEvt::?relay        CODE 00000676
        gapProcessAdvertisingEvt::?relay               CODE 00000694
        gapSendMakeDiscEvent::?relay                   CODE 0000069A
        gapFreeAdvertState::?relay                     CODE 000006A0
        isLimitedDiscoverableMode::?relay              CODE 000006A6
gap_perilinkmgr ( E:\TexasInstruments\BLE-CC254x-1.4.0\Projects\ble\Libraries\CC2541DB\bin\CC2541_BLE_peri.lib )
        GAP_SendSlaveSecurityRequest                   CODE 0001C346
        GAP_SendSlaveSecurityRequest::?relay           CODE 000006AC
gap_task ( E:\TexasInstruments\BLE-CC254x-1.4.0\Projects\ble\Libraries\CC2541DB\bin\CC2541_BLE_peri.lib )
        gapTaskID                                      XDATA 000002AC
        gapUnwantedTaskID                              XDATA 00000DAF
        pfnPeripheralCBs                               XDATA 000002AD
        GAP_RegisterForHCIMsgs                         CODE 000194E1
        GAP_Init                                       CODE 000194F7
        GAP_ProcessEvent                               CODE 0001951D
        GAP_NumActiveConnections                       CODE 00019639
        gapRegisterPeripheral                          CODE 00019870
        GAP_RegisterForHCIMsgs::?relay                 CODE 000006B2
        GAP_Init::?relay                               CODE 000006B8
        GAP_ProcessEvent::?relay                       CODE 000006BE
        GAP_NumActiveConnections::?relay               CODE 000006C4
        gapRegisterPeripheral::?relay                  CODE 000006D6
        gapProcessOSALMsg                              CODE 00019643
        gapProcessHCICmdCompleteEvt                    CODE 00019778
        gapProcessOSALMsg::?relay                      CODE 000006CA
        gapProcessHCICmdCompleteEvt::?relay            CODE 000006D0
gapgattserver ( E:\TexasInstruments\BLE-CC254x-1.4.0\Projects\ble\Libraries\CC2541DB\bin\CC2541_BLE_peri.lib )
        gapServiceCBs                                  CONST 00008463
        GGS_SetParameter                               CODE 0001679B
        GGS_AddService                                 CODE 000168CB
        GGS_SetParameter::?relay                       CODE 000006DC
        GGS_AddService::?relay                         CODE 000006E2
        ggs_SetAttrWPermit                             CODE 000168FE
        ggs_ReadAttrCB                                 CODE 00016948
        ggs_WriteAttrCB                                CODE 00016B0F
        ggs_SetAttrWPermit::?relay                     CODE 000006E8
        ggs_ReadAttrCB::?relay                         CODE 000006EE
        ggs_WriteAttrCB::?relay                        CODE 000006F4
gatt_server ( E:\TexasInstruments\BLE-CC254x-1.4.0\Projects\ble\Libraries\CC2541DB\bin\CC2541_BLE_peri.lib )
        serverInfoTbl                                  XDATA 000002D2
        reqTaskId                                      XDATA 00000E15
        GATT_InitServer                                CODE 0000AE4A
        GATT_RegisterService                           CODE 0000AEB4
        GATT_RegisterForReq                            CODE 0000B013
        GATT_VerifyReadPermissions                     CODE 0000B023
        GATT_VerifyWritePermissions                    CODE 0000B050
        GATT_ServiceChangedInd                         CODE 0000B0A7
        GATT_FindHandleUUID                            CODE 0000B150
        GATT_FindHandle                                CODE 0000B257
        GATT_FindNextAttr                              CODE 0000B321
        GATT_ServiceNumAttrs                           CODE 0000B481
        GATT_Indication                                CODE 0000B4C4
        GATT_Notification                              CODE 0000B569
        GATT_InitServer::?relay                        CODE 000006FA
        GATT_RegisterService::?relay                   CODE 00000700
        GATT_RegisterForReq::?relay                    CODE 00000706
        GATT_VerifyReadPermissions::?relay             CODE 0000070C
        GATT_VerifyWritePermissions::?relay            CODE 00000712
        GATT_ServiceChangedInd::?relay                 CODE 00000718
        GATT_FindHandleUUID::?relay                    CODE 0000071E
        GATT_FindHandle::?relay                        CODE 00000724
        GATT_FindNextAttr::?relay                      CODE 0000072A
        GATT_ServiceNumAttrs::?relay                   CODE 00000730
        GATT_Indication::?relay                        CODE 00000736
        GATT_Notification::?relay                      CODE 0000073C
        gattServiceLastHandle                          CODE 0000B5B6
        gattServerProcessMsgCB                         CODE 0000B5DC
        gattProcessExchangeMTUReq                      CODE 0000B7EA
        gattProcessFindInfoReq                         CODE 0000B7EF
        gattProcessFindByTypeValueReq                  CODE 0000B9F4
        gattProcessReadByTypeReq                       CODE 0000BA41
        gattProcessReadReq                             CODE 0000BAB4
        gattProcessReadMultiReq                        CODE 0000BAE7
        gattProcessReadByGrpTypeReq                    CODE 0000BB89
        gattProcessWriteReq                            CODE 0000BC32
        gattProcessExecuteWriteReq                     CODE 0000BC6A
        gattGetServerStatus                            CODE 0000BC6D
        gattFindServerInfo                             CODE 0000BCB5
        gattServerHandleTimerCB                        CODE 0000BCF5
        gattServerHandleConnStatusCB                   CODE 0000BD4C
        gattServiceLastHandle::?relay                  CODE 00000742
        gattServerProcessMsgCB::?relay                 CODE 00000748
        gattProcessExchangeMTUReq::?relay              CODE 0000074E
        gattProcessFindInfoReq::?relay                 CODE 00000754
        gattProcessFindByTypeValueReq::?relay          CODE 0000075A
        gattProcessReadByTypeReq::?relay               CODE 00000760
        gattProcessReadReq::?relay                     CODE 00000766
        gattProcessReadMultiReq::?relay                CODE 0000076C
        gattProcessReadByGrpTypeReq::?relay            CODE 00000772
        gattProcessWriteReq::?relay                    CODE 00000778
        gattProcessExecuteWriteReq::?relay             CODE 0000077E
        gattGetServerStatus::?relay                    CODE 00000784
        gattFindServerInfo::?relay                     CODE 0000078A
        gattServerHandleTimerCB::?relay                CODE 00000790
        gattServerHandleConnStatusCB::?relay           CODE 00000796
gatt_task ( E:\TexasInstruments\BLE-CC254x-1.4.0\Projects\ble\Libraries\CC2541DB\bin\CC2541_BLE_peri.lib )
        gattTaskID                                     XDATA 000002DC
        gattRegisterServer                             CODE 0001A1AD
        GATT_AppCompletedMsg                           CODE 0001A1C5
        GATT_Init                                      CODE 0001A20D
        GATT_ProcessEvent                              CODE 0001A223
        gattNotifyEvent                                CODE 0001A37E
        gattStartTimer                                 CODE 0001A40B
        gattStopTimer                                  CODE 0001A456
        gattRegisterServer::?relay                     CODE 0000079C
        GATT_AppCompletedMsg::?relay                   CODE 000007A2
        GATT_Init::?relay                              CODE 000007A8
        GATT_ProcessEvent::?relay                      CODE 000007AE
        gattNotifyEvent::?relay                        CODE 000007BA
        gattStartTimer::?relay                         CODE 000007C0
        gattStopTimer::?relay                          CODE 000007C6
        gattProcessRxData                              CODE 0001A26A
        gattProcessRxData::?relay                      CODE 000007B4
gattservapp ( E:\TexasInstruments\BLE-CC254x-1.4.0\Projects\ble\Libraries\CC2541DB\bin\CC2541_BLE_peri.lib )
        GATTServApp_TaskID                             XDATA 000002E1
        appTaskID                                      XDATA 00000E18
        gattServiceCBs                                 CONST 00008457
        GATTServApp_RegisterForMsg                     CODE 00002B94
        GATTServApp_Init                               CODE 00002BA0
        GATTServApp_ProcessEvent                       CODE 00002BDB
        GATTServApp_RegisterService                    CODE 00002C20
        GATTServApp_FindAttr                           CODE 00002D66
        GATTServApp_AddService                         CODE 00002DCB
        GATTServApp_ReadAttr                           CODE 00003C13
        GATTServApp_WriteAttr                          CODE 000040D4
        GATTServApp_UpdateCharCfg                      CODE 00004169
        GATTServApp_SendServiceChangedInd              CODE 000041BA
        GATTServApp_InitCharCfg                        CODE 000041E1
        GATTServApp_ReadCharCfg                        CODE 00004233
        GATTServApp_WriteCharCfg                       CODE 00004251
        GATTServApp_ProcessCCCWriteReq                 CODE 000042AB
        GATTServApp_ProcessCharCfg                     CODE 00004394
        GATTServApp_SendCCCUpdatedEvent                CODE 0000458E
        GATTServApp_RegisterForMsg::?relay             CODE 000007CC
        GATTServApp_Init::?relay                       CODE 000007D2
        GATTServApp_ProcessEvent::?relay               CODE 000007D8
        GATTServApp_RegisterService::?relay            CODE 000007DE
        GATTServApp_FindAttr::?relay                   CODE 000007EA
        GATTServApp_AddService::?relay                 CODE 000007F0
        GATTServApp_ReadAttr::?relay                   CODE 00000844
        GATTServApp_WriteAttr::?relay                  CODE 0000084A
        GATTServApp_UpdateCharCfg::?relay              CODE 00000850
        GATTServApp_SendServiceChangedInd::?relay      CODE 00000856
        GATTServApp_InitCharCfg::?relay                CODE 0000085C
        GATTServApp_ReadCharCfg::?relay                CODE 00000862
        GATTServApp_WriteCharCfg::?relay               CODE 00000868
        GATTServApp_ProcessCCCWriteReq::?relay         CODE 0000086E
        GATTServApp_ProcessCharCfg::?relay             CODE 00000874
        GATTServApp_SendCCCUpdatedEvent::?relay        CODE 00000880
        gattServApp_SetNumPrepareWrites                CODE 00002CE0
        gattServApp_FindServiceCBs                     CODE 00002DF7
        gattServApp_ProcessMsg                         CODE 00002E30
        gattServApp_ProcessFindByTypeValueReq          CODE 0000306E
        gattServApp_ProcessReadByTypeReq               CODE 00003252
        gattServApp_ProcessReadMultiReq                CODE 00003438
        gattServApp_ProcessReadByGrpTypeReq            CODE 0000357B
        gattServApp_ProcessWriteReq                    CODE 000037C9
        gattServApp_ProcessPrepareWriteReq             CODE 000038DB
        gattServApp_ProcessExecuteWriteReq             CODE 00003A26
        gattServApp_FindPrepareWriteQ                  CODE 00003B36
        gattServApp_FindCharCfgItem                    CODE 00003B53
        gattServApp_FindAuthorizeAttrCB                CODE 00003B8E
        gattServApp_WriteAttrCB                        CODE 00003BB0
        gattServApp_HandleConnStatusCB                 CODE 0000450A
        gattServApp_SetNumPrepareWrites::?relay        CODE 000007E4
        gattServApp_FindServiceCBs::?relay             CODE 000007F6
        gattServApp_ProcessMsg::?relay                 CODE 000007FC
        gattServApp_ProcessFindByTypeValueReq::?relay  CODE 00000802
        gattServApp_ProcessReadByTypeReq::?relay       CODE 00000808
        gattServApp_ProcessReadMultiReq::?relay        CODE 0000080E
        gattServApp_ProcessReadByGrpTypeReq::?relay    CODE 00000814
        gattServApp_ProcessWriteReq::?relay            CODE 0000081A
        gattServApp_ProcessPrepareWriteReq::?relay     CODE 00000820
        gattServApp_ProcessExecuteWriteReq::?relay     CODE 00000826
        gattServApp_FindPrepareWriteQ::?relay          CODE 0000082C
        gattServApp_FindCharCfgItem::?relay            CODE 00000832
        gattServApp_FindAuthorizeAttrCB::?relay        CODE 00000838
        gattServApp_WriteAttrCB::?relay                CODE 0000083E
        gattServApp_HandleConnStatusCB::?relay         CODE 0000087A
hci ( E:\TexasInstruments\BLE-CC254x-1.4.0\Projects\ble\Libraries\CC2541DB\bin\CC2541_BLE_peri.lib )
        hciPTMenabled                                  XDATA 0000031F
        ctrlToHostEnable                               XDATA 00000320
        numHostBufs                                    XDATA 00000321
        hciCtrlCmdToken                                XDATA 00000323
        HCI_bm_alloc                                   CODE 00017619
        HCI_SendDataPkt                                CODE 00017623
        HCI_DisconnectCmd                              CODE 00017666
        HCI_HostNumCompletedPktCmd                     CODE 00017681
        HCI_ReadBDADDRCmd                              CODE 00017711
        HCI_ReadRssiCmd                                CODE 00017739
        HCI_LE_ReadBufSizeCmd                          CODE 00017776
        HCI_LE_SetRandomAddressCmd                     CODE 000177AD
        HCI_LE_SetAdvParamCmd                          CODE 000177D6
        HCI_LE_SetAdvDataCmd                           CODE 0001784B
        HCI_LE_SetScanRspDataCmd                       CODE 00017860
        HCI_LE_SetAdvEnableCmd                         CODE 00017875
        HCI_LE_ClearWhiteListCmd                       CODE 000178A6
        HCI_LE_AddWhiteListCmd                         CODE 000178BA
        HCI_LE_RandCmd                                 CODE 000178DF
        HCI_LE_LtkReqReplyCmd                          CODE 00017919
        HCI_LE_LtkReqNegReplyCmd                       CODE 00017945
        LL_RandCback                                   CODE 000179C8
        LL_EXT_SetRxGainCback                          CODE 00017A11
        LL_EXT_SetTxPowerCback                         CODE 00017A3B
        LL_EXT_ExtendRfRangeCback                      CODE 00017A66
        HCI_bm_alloc::?relay                           CODE 00000886
        HCI_SendDataPkt::?relay                        CODE 0000088C
        HCI_DisconnectCmd::?relay                      CODE 00000892
        HCI_HostNumCompletedPktCmd::?relay             CODE 00000898
        HCI_ReadBDADDRCmd::?relay                      CODE 0000089E
        HCI_ReadRssiCmd::?relay                        CODE 000008A4
        HCI_LE_ReadBufSizeCmd::?relay                  CODE 000008AA
        HCI_LE_SetRandomAddressCmd::?relay             CODE 000008B0
        HCI_LE_SetAdvParamCmd::?relay                  CODE 000008B6
        HCI_LE_SetAdvDataCmd::?relay                   CODE 000008BC
        HCI_LE_SetScanRspDataCmd::?relay               CODE 000008C2
        HCI_LE_SetAdvEnableCmd::?relay                 CODE 000008C8
        HCI_LE_ClearWhiteListCmd::?relay               CODE 000008CE
        HCI_LE_AddWhiteListCmd::?relay                 CODE 000008D4
        HCI_LE_RandCmd::?relay                         CODE 000008DA
        HCI_LE_LtkReqReplyCmd::?relay                  CODE 000008E0
        HCI_LE_LtkReqNegReplyCmd::?relay               CODE 000008E6
        LL_RandCback::?relay                           CODE 000008EC
        LL_EXT_SetRxGainCback::?relay                  CODE 000008F2
        LL_EXT_SetTxPowerCback::?relay                 CODE 000008F8
        LL_EXT_ExtendRfRangeCback::?relay              CODE 000008FE
hci_data ( E:\TexasInstruments\BLE-CC254x-1.4.0\Projects\ble\Libraries\CC2541DB\bin\CC2541_BLE_peri.lib )
        LL_RxDataCompleteCback                         CODE 00007EC1
        LL_RxDataCompleteCback::?relay                 CODE 00000904
hci_event ( E:\TexasInstruments\BLE-CC254x-1.4.0\Projects\ble\Libraries\CC2541DB\bin\CC2541_BLE_peri.lib )
        bleEvtMask                                     XDATA 00000324
        pHciEvtMask                                    XDATA 00000325
        hciInitEventMasks                              CODE 000128E8
        HCI_NumOfCompletedPacketsEvent                 CODE 00012916
        HCI_CommandCompleteEvent                       CODE 00012A64
        HCI_VendorSpecifcCommandCompleteEvent          CODE 00012B44
        HCI_CommandStatusEvent                         CODE 00012B63
        HCI_SendCommandStatusEvent                     CODE 00012BE0
        HCI_SendCommandCompleteEvent                   CODE 00012C23
        HCI_SendControllerToHostEvent                  CODE 00012D79
        LL_ConnectionCompleteCback                     CODE 00012E3A
        LL_DisconnectCback                             CODE 000130C1
        LL_ConnParamUpdateCback                        CODE 00013162
        LL_ReadRemoteVersionInfoCback                  CODE 00013258
        LL_EncLtkReqCback                              CODE 00013355
        LL_EncChangeCback                              CODE 000134AF
        LL_EncKeyRefreshCback                          CODE 0001353A
        hciInitEventMasks::?relay                      CODE 0000090A
        HCI_NumOfCompletedPacketsEvent::?relay         CODE 00000910
        HCI_CommandCompleteEvent::?relay               CODE 00000916
        HCI_VendorSpecifcCommandCompleteEvent::?relay  CODE 0000091C
        HCI_CommandStatusEvent::?relay                 CODE 00000922
        HCI_SendCommandStatusEvent::?relay             CODE 00000928
        HCI_SendCommandCompleteEvent::?relay           CODE 0000092E
        HCI_SendControllerToHostEvent::?relay          CODE 00000934
        LL_ConnectionCompleteCback::?relay             CODE 0000093A
        LL_DisconnectCback::?relay                     CODE 00000940
        LL_ConnParamUpdateCback::?relay                CODE 00000946
        LL_ReadRemoteVersionInfoCback::?relay          CODE 0000094C
        LL_EncLtkReqCback::?relay                      CODE 00000952
        LL_EncChangeCback::?relay                      CODE 00000958
        LL_EncKeyRefreshCback::?relay                  CODE 0000095E
l2cap_if ( E:\TexasInstruments\BLE-CC254x-1.4.0\Projects\ble\Libraries\CC2541DB\bin\CC2541_BLE_peri.lib )
        L2CAP_RegisterApp                              CODE 0001BCE1
        L2CAP_SendData                                 CODE 0001BD4A
        L2CAP_CmdReject                                CODE 0001BD9E
        L2CAP_ConnParamUpdateReq                       CODE 0001BDC5
        L2CAP_HostNumCompletedPkts                     CODE 0001BDF6
        L2CAP_RegisterApp::?relay                      CODE 00000964
        L2CAP_SendData::?relay                         CODE 0000096A
        L2CAP_CmdReject::?relay                        CODE 00000970
        L2CAP_ConnParamUpdateReq::?relay               CODE 00000976
        L2CAP_HostNumCompletedPkts::?relay             CODE 0000097C
l2cap_task ( E:\TexasInstruments\BLE-CC254x-1.4.0\Projects\ble\Libraries\CC2541DB\bin\CC2541_BLE_peri.lib )
        l2capTaskID                                    XDATA 0000032E
        l2capFixedChannels                             XDATA 0000032F
        l2capChannels                                  XDATA 0000033B
        L2CAP_Init                                     CODE 00017A8E
        L2CAP_ProcessEvent                             CODE 00017AFB
        L2CAP_Init::?relay                             CODE 00000982
        L2CAP_ProcessEvent::?relay                     CODE 00000988
        l2capProcessRxData                             CODE 00017B42
        l2capProcessSignal                             CODE 00017C5A
        l2capProcessRsp                                CODE 00017D56
        l2capProcessReq                                CODE 00017E39
        l2capProcessRxData::?relay                     CODE 0000098E
        l2capProcessSignal::?relay                     CODE 00000994
        l2capProcessRsp::?relay                        CODE 0000099A
        l2capProcessReq::?relay                        CODE 000009A0
l2cap_util ( E:\TexasInstruments\BLE-CC254x-1.4.0\Projects\ble\Libraries\CC2541DB\bin\CC2541_BLE_peri.lib )
        l2capParseSignalHdr                            CODE 00013FF5
        l2capSendReq                                   CODE 00014037
        l2capSendCmd                                   CODE 00014109
        l2capEncapSendData                             CODE 000141E2
        l2capParsePacket                               CODE 000142DC
        L2CAP_BuildCmdReject                           CODE 000143BE
        l2capParseCmdReject                            CODE 00014427
        l2capBuildParamUpdateReq                       CODE 000144DD
        L2CAP_ParseParamUpdateReq                      CODE 00014551
        l2capParseParamUpdateRsp                       CODE 000145BD
        l2capNotifyData                                CODE 000145E6
        l2capNotifySignal                              CODE 00014660
        l2capAllocChannel                              CODE 000146F9
        l2capFreeChannel                               CODE 0001475E
        l2capFindLocalId                               CODE 00014773
        l2capStopTimer                                 CODE 000147B9
        l2capHandleRxError                             CODE 00014837
        L2CAP_bm_alloc                                 CODE 0001483A
        l2capParseSignalHdr::?relay                    CODE 000009A6
        l2capSendReq::?relay                           CODE 000009AC
        l2capSendCmd::?relay                           CODE 000009B2
        l2capEncapSendData::?relay                     CODE 000009B8
        l2capParsePacket::?relay                       CODE 000009BE
        L2CAP_BuildCmdReject::?relay                   CODE 000009C4
        l2capParseCmdReject::?relay                    CODE 000009CA
        l2capBuildParamUpdateReq::?relay               CODE 000009D0
        L2CAP_ParseParamUpdateReq::?relay              CODE 000009D6
        l2capParseParamUpdateRsp::?relay               CODE 000009DC
        l2capNotifyData::?relay                        CODE 000009E2
        l2capNotifySignal::?relay                      CODE 000009E8
        l2capAllocChannel::?relay                      CODE 000009EE
        l2capFreeChannel::?relay                       CODE 000009F4
        l2capFindLocalId::?relay                       CODE 000009FA
        l2capStopTimer::?relay                         CODE 00000A00
        l2capHandleRxError::?relay                     CODE 00000A0C
        L2CAP_bm_alloc::?relay                         CODE 00000A12
        l2capHandleTimerCB                             CODE 000147D2
        l2capHandleTimerCB::?relay                     CODE 00000A06
linkdb ( E:\TexasInstruments\BLE-CC254x-1.4.0\Projects\ble\Libraries\CC2541DB\bin\CC2541_BLE_peri.lib )
        linkDB_Init                                    CODE 00019EB4
        linkDB_Register                                CODE 00019EDC
        linkDB_Add                                     CODE 00019F1A
        linkDB_Remove                                  CODE 00019FD8
        linkDB_Find                                    CODE 0001A03F
        linkDB_FindFirst                               CODE 0001A05B
        linkDB_State                                   CODE 0001A083
        linkDB_NumActive                               CODE 0001A0B3
        linkDB_Authen                                  CODE 0001A0C2
        linkDB_PerformFunc                             CODE 0001A13F
        linkDB_Init::?relay                            CODE 00000A18
        linkDB_Register::?relay                        CODE 00000A1E
        linkDB_Add::?relay                             CODE 00000A24
        linkDB_Remove::?relay                          CODE 00000A2A
        linkDB_Find::?relay                            CODE 00000A30
        linkDB_FindFirst::?relay                       CODE 00000A36
        linkDB_State::?relay                           CODE 00000A3C
        linkDB_NumActive::?relay                       CODE 00000A42
        linkDB_Authen::?relay                          CODE 00000A48
        linkDB_PerformFunc::?relay                     CODE 00000A4E
        reportStatusChange                             CODE 0001A165
        reportStatusChange::?relay                     CODE 00000A54
ll ( E:\TexasInstruments\BLE-CC254x-1.4.0\Projects\ble\Libraries\CC2541DB\bin\CC2541_BLE_peri.lib )
        PMUX                                           DATA 000000AE
        WDCTL                                          DATA 000000C9
        RFD                                            DATA 000000D9
        RFST                                           DATA 000000E1
        APCFG                                          DATA 000000F2
        ownPublicAddr                                  XDATA 0000038F
        ownRandomAddr                                  XDATA 00000395
        ownSavedPublicAddr                             XDATA 0000039B
        LL_TaskID                                      XDATA 000003A1
        llState                                        XDATA 000003A2
        taskEndCause                                   XDATA 000003A3
        postRfOperations                               XDATA 000003A4
        rssiCorrection                                 XDATA 000003A6
        clkDivOnHalt                                   XDATA 000003A7
        nvInUse                                        XDATA 000003A8
        rfCounters                                     XDATA 000003A9
        deviceFeatureSet                               XDATA 000003B5
        maxTxPwrForDTM                                 XDATA 000003BE
        verInfo                                        XDATA 000003BF
        dtmInfo                                        XDATA 000003C4
        buildInfo                                      XDATA 000003CC
        llConns                                        XDATA 000003CE
        peerInfo                                       XDATA 000004D5
        chanMapUpdate                                  XDATA 000004DC
        onePktPerEvt                                   XDATA 000004E1
        numTxDataBufs                                  XDATA 000004E2
        numComplPkts                                   XDATA 000004E3
        numComplPktsLimit                              XDATA 000004E4
        numComplPktsFlush                              XDATA 000004E5
        fastTxRespTime                                 XDATA 000004E6
        slOverride                                     XDATA 000004E7
        advInfo                                        XDATA 000004E8
        dcdcData                                       XDATA 0000053D
        extendRfRange                                  XDATA 0000053F
        rxFifoFlowCtrl                                 XDATA 00000540
        haltDuringRf                                   XDATA 00000541
        sleepDelay                                     XDATA 00000542
        taskEndCauses                                  XDATA 00000E3A
        taskErrorEndCauses                             XDATA 00000E48
        trngCounter                                    XDATA 00000544
        myPC                                           IDATA 00000029
        LL_Init                                        CODE 0000BE39
        LL_ProcessEvent                                CODE 0000C017
        LL_TX_bm_alloc                                 CODE 0000C249
        LL_RX_bm_alloc                                 CODE 0000C285
        LL_Reset                                       CODE 0000C2B2
        LL_ReadBDADDR                                  CODE 0000C39C
        LL_SetRandomAddress                            CODE 0000C3E7
        LL_ClearWhiteList                              CODE 0000C432
        LL_AddWhiteListDevice                          CODE 0000C444
        LL_Encrypt                                     CODE 0000C484
        LL_Rand                                        CODE 0000C4B9
        LL_PseudoRand                                  CODE 0000C507
        LL_CtrlToHostFlowControl                       CODE 0000C536
        LL_ReadRssi                                    CODE 0000C559
        LL_Disconnect                                  CODE 0000C5A6
        LL_TxData                                      CODE 0000C62B
        LL_SetAdvParam                                 CODE 0000C845
        LL_SetAdvData                                  CODE 0000CA84
        LL_SetAdvControl                               CODE 0000CAC5
        LL_SetScanRspData                              CODE 0000CC67
        LL_EncLtkReply                                 CODE 0000CCA8
        LL_EncLtkNegReply                              CODE 0000CD1B
        LL_Init::?relay                                CODE 00000A5A
        LL_ProcessEvent::?relay                        CODE 00000A60
        LL_TX_bm_alloc::?relay                         CODE 00000A66
        LL_RX_bm_alloc::?relay                         CODE 00000A6C
        LL_Reset::?relay                               CODE 00000A72
        LL_ReadBDADDR::?relay                          CODE 00000A78
        LL_SetRandomAddress::?relay                    CODE 00000A7E
        LL_ClearWhiteList::?relay                      CODE 00000A84
        LL_AddWhiteListDevice::?relay                  CODE 00000A8A
        LL_Encrypt::?relay                             CODE 00000A90
        LL_Rand::?relay                                CODE 00000A96
        LL_PseudoRand::?relay                          CODE 00000A9C
        LL_CtrlToHostFlowControl::?relay               CODE 00000AA2
        LL_ReadRssi::?relay                            CODE 00000AA8
        LL_Disconnect::?relay                          CODE 00000AAE
        LL_TxData::?relay                              CODE 00000AB4
        LL_SetAdvParam::?relay                         CODE 00000ABA
        LL_SetAdvData::?relay                          CODE 00000AC0
        LL_SetAdvControl::?relay                       CODE 00000AC6
        LL_SetScanRspData::?relay                      CODE 00000ACC
        LL_EncLtkReply::?relay                         CODE 00000AD2
        LL_EncLtkNegReply::?relay                      CODE 00000AD8
ll_advEndCauses ( E:\TexasInstruments\BLE-CC254x-1.4.0\Projects\ble\Libraries\CC2541DB\bin\CC2541_BLE_peri.lib )
        llDirectedAdvEvt_TaskEndOk                     CODE 00011BD3
        llAdvEvt_TaskConnect                           CODE 00011CD1
        llUndirectedAdvEvt_TaskEndOk                   CODE 0001236A
        llDiscoverableAdvEvt_TaskEndOk                 CODE 0001258B
        llNonConnAdvEvt_TaskEndOk                      CODE 00012756
        llAdvEvt_TaskAbort                             CODE 000128BE
        llDirectedAdvEvt_TaskEndOk::?relay             CODE 00000ADE
        llAdvEvt_TaskConnect::?relay                   CODE 00000AE4
        llUndirectedAdvEvt_TaskEndOk::?relay           CODE 00000AEA
        llDiscoverableAdvEvt_TaskEndOk::?relay         CODE 00000AF0
        llNonConnAdvEvt_TaskEndOk::?relay              CODE 00000AF6
        llAdvEvt_TaskAbort::?relay                     CODE 00000AFC
ll_common ( E:\TexasInstruments\BLE-CC254x-1.4.0\Projects\ble\Libraries\CC2541DB\bin\CC2541_BLE_peri.lib )
        IP0                                            DATA 000000A9
        T1STAT                                         DATA 000000AF
        IP1                                            DATA 000000B9
        T1CC0L                                         DATA 000000DA
        T1CC0H                                         DATA 000000DB
        T1CNTL                                         DATA 000000E2
        T1CNTH                                         DATA 000000E3
        T1CTL                                          DATA 000000E4
        T1CCTL0                                        DATA 000000E5
        llRfInit                                       CODE 000045F5
        llSetFreqTune                                  CODE 000046A4
        llClearSetInts                                 CODE 000046D1
        llProcessPostRfOps                             CODE 00004717
        llFindTxPowerSettings                          CODE 00004857
        llExtendRfRange                                CODE 000049ED
        llCheckWhiteListUsage                          CODE 00004A67
        llSetupAdv                                     CODE 00004A82
        llSetupDirectedAdvEvt                          CODE 00004AFD
        llSetupUndirectedAdvEvt                        CODE 00004C57
        llSetupNonConnectableAdvEvt                    CODE 00004DB7
        llSetupScannableAdvEvt                         CODE 00004EBD
        llStartAdvSetup                                CODE 0000501E
        llStartSlaveSetup                              CODE 00005037
        llSetupEncRsp                                  CODE 00005095
        llGetNextDataChan                              CODE 00001B90
        llSetNextDataChan                              CODE 00001C4E
        llEventInRange                                 CODE 00001DCE
        llEventDelta                                   CODE 00001E0D
        llProcessRxData                                CODE 00001E15
        llProcessTxData                                CODE 00001FC2
        llSetupStartEncReq                             CODE 00005183
        llSetupStartEncRsp                             CODE 000051B6
        llSetupPauseEncRsp                             CODE 00005226
        llSetupRejectInd                               CODE 000052A0
        llSetupFeatureSetRsp                           CODE 000052EA
        llSetupVersionIndReq                           CODE 000053B4
        llSetupTermInd                                 CODE 00005489
        llSetupUnknownRsp                              CODE 00005568
        llEnqueueCtrlPkt                               CODE 000055F3
        llDequeueCtrlPkt                               CODE 00005661
        llReplaceCtrlPkt                               CODE 000056D5
        llProcessChanMap                               CODE 00005700
        llAllocConnId                                  CODE 000057BF
        llReleaseAllConnId                             CODE 00005924
        llGetNextConn                                  CODE 00005941
        llConnCleanup                                  CODE 00005960
        llConnTerminate                                CODE 00005A51
        llInitFeatureSet                               CODE 00005A76
        llConvertLstoToEvent                           CODE 00005AA0
        llConvertCtrlProcTimeoutToEvent                CODE 00005B1B
        llAdjustForMissedEvent                         CODE 00005B75
        llWriteTxData                                  CODE 00005CDE
        llEnqueueDataQ                                 CODE 00005D8C
        llMemCopySrc                                   CODE 00005DCD
        llRfInit::?relay                               CODE 00000B02
        llSetFreqTune::?relay                          CODE 00000B08
        llClearSetInts::?relay                         CODE 00000B0E
        llProcessPostRfOps::?relay                     CODE 00000B14
        llFindTxPowerSettings::?relay                  CODE 00000B1A
        llExtendRfRange::?relay                        CODE 00000B20
        llCheckWhiteListUsage::?relay                  CODE 00000B26
        llSetupAdv::?relay                             CODE 00000B2C
        llSetupDirectedAdvEvt::?relay                  CODE 00000B32
        llSetupUndirectedAdvEvt::?relay                CODE 00000B38
        llSetupNonConnectableAdvEvt::?relay            CODE 00000B3E
        llSetupScannableAdvEvt::?relay                 CODE 00000B44
        llStartAdvSetup::?relay                        CODE 00000B4A
        llStartSlaveSetup::?relay                      CODE 00000B50
        llSetupEncRsp::?relay                          CODE 00000B56
        llSetupStartEncReq::?relay                     CODE 00000B5C
        llSetupStartEncRsp::?relay                     CODE 00000B62
        llSetupPauseEncRsp::?relay                     CODE 00000B68
        llSetupRejectInd::?relay                       CODE 00000B6E
        llSetupFeatureSetRsp::?relay                   CODE 00000B74
        llSetupVersionIndReq::?relay                   CODE 00000B7A
        llSetupTermInd::?relay                         CODE 00000B80
        llSetupUnknownRsp::?relay                      CODE 00000B86
        llEnqueueCtrlPkt::?relay                       CODE 00000B8C
        llDequeueCtrlPkt::?relay                       CODE 00000B92
        llReplaceCtrlPkt::?relay                       CODE 00000B98
        llProcessChanMap::?relay                       CODE 00000B9E
        llAllocConnId::?relay                          CODE 00000BA4
        llReleaseAllConnId::?relay                     CODE 00000BAA
        llGetNextConn::?relay                          CODE 00000BB0
        llConnCleanup::?relay                          CODE 00000BB6
        llConnTerminate::?relay                        CODE 00000BBC
        llInitFeatureSet::?relay                       CODE 00000BC2
        llConvertLstoToEvent::?relay                   CODE 00000BC8
        llConvertCtrlProcTimeoutToEvent::?relay        CODE 00000BCE
        llAdjustForMissedEvent::?relay                 CODE 00000BD4
        llWriteTxData::?relay                          CODE 00000BDA
        llEnqueueDataQ::?relay                         CODE 00000BE0
        llMemCopySrc::?relay                           CODE 00000BE6
ll_constData ( E:\TexasInstruments\BLE-CC254x-1.4.0\Projects\ble\Libraries\CC2541DB\bin\CC2541_BLE_peri.lib )
        savedTxPowerSetting                            CODE 00002B90
        ptmFreqTune                                    CODE 00002B8C
ll_enc ( E:\TexasInstruments\BLE-CC254x-1.4.0\Projects\ble\Libraries\CC2541DB\bin\CC2541_BLE_peri.lib )
        DMAREQ                                         DATA 000000D7
        dataPkt                                        XDATA 00000545
        cachedTRNGdata                                 XDATA 00000565
        zeroBlock                                      CONST 0000820B
        LL_ENC_ReverseBytes                            CODE 00010DFF
        LL_ENC_GeneratePseudoRandNum                   CODE 00010E4D
        LL_ENC_GenerateTrueRandNum                     CODE 00010E59
        LL_ENC_GenDeviceSKD                            CODE 00010F37
        LL_ENC_GenDeviceIV                             CODE 00010F68
        LL_ENC_AES128_Encrypt                          CODE 00010F99
        LL_ENC_InitAesDMA                              CODE 00011019
        LL_ENC_MoveData                                CODE 00011051
        LL_ENC_LoadEmptyIV                             CODE 000110A3
        LL_ENC_EncryptMsg                              CODE 000110E0
        LL_ENC_DecryptMsg                              CODE 000112FD
        LL_ENC_GenerateMIC                             CODE 00011523
        LL_ENC_Encrypt                                 CODE 0001170E
        LL_ENC_Decrypt                                 CODE 000118F8
        LL_ENC_ReverseBytes::?relay                    CODE 00000BEC
        LL_ENC_GeneratePseudoRandNum::?relay           CODE 00000BF2
        LL_ENC_GenerateTrueRandNum::?relay             CODE 00000BF8
        LL_ENC_GenDeviceSKD::?relay                    CODE 00000BFE
        LL_ENC_GenDeviceIV::?relay                     CODE 00000C04
        LL_ENC_AES128_Encrypt::?relay                  CODE 00000C0A
        LL_ENC_InitAesDMA::?relay                      CODE 00000C10
        LL_ENC_MoveData::?relay                        CODE 00000C16
        LL_ENC_LoadEmptyIV::?relay                     CODE 00000C1C
        LL_ENC_EncryptMsg::?relay                      CODE 00000C22
        LL_ENC_DecryptMsg::?relay                      CODE 00000C28
        LL_ENC_GenerateMIC::?relay                     CODE 00000C2E
        LL_ENC_Encrypt::?relay                         CODE 00000C34
        LL_ENC_Decrypt::?relay                         CODE 00000C3A
ll_errorEndCauses ( E:\TexasInstruments\BLE-CC254x-1.4.0\Projects\ble\Libraries\CC2541DB\bin\CC2541_BLE_peri.lib )
        llUnexpectedEndCauseHandler                    CODE 0000FFF7
        llUnexpectedEndCauseHandler::?relay            CODE 00000C40
ll_halt ( E:\TexasInstruments\BLE-CC254x-1.4.0\Projects\ble\Libraries\CC2541DB\bin\CC2541_BLE_peri.lib )
        HaltMcuUsingPhyFlag                            CODE 00002110
        phyState                                       DATA 00000021
        clkState                                       DATA 00000022
ll_isr ( E:\TexasInstruments\BLE-CC254x-1.4.0\Projects\ble\Libraries\CC2541DB\bin\CC2541_BLE_peri.lib )
        RFIRQF1                                        DATA 00000091
        S1CON                                          DATA 0000009B
        FMAP                                           DATA 0000009F
        T2IRQF                                         DATA 000000A1
        T2IRQM                                         DATA 000000A7
        _A_IEN0                                        DATA 000000A8
        SLEEPCMD                                       DATA 000000BE
        RFERRF                                         DATA 000000BF
        CLKCONCMD                                      DATA 000000C6
        RFIRQF0                                        DATA 000000E9
        RF_NormalIsr                                   CODE 00002117
        RF_ErrorIsr                                    CODE 000022AB
        T2_Isr                                         CODE 0000231E
        llT2OVFC1_ISR                                  CODE 00002383
        RF_ErrorIsr::??INTVEC 3                        CODE 00000003
        T2_Isr::??INTVEC 83                            CODE 00000053
        RF_NormalIsr::??INTVEC 131                     CODE 00000083
ll_math ( E:\TexasInstruments\BLE-CC254x-1.4.0\Projects\ble\Libraries\CC2541DB\bin\CC2541_BLE_peri.lib )
        llDivide31By16To16                             CODE 00002408
ll_scheduler ( E:\TexasInstruments\BLE-CC254x-1.4.0\Projects\ble\Libraries\CC2541DB\bin\CC2541_BLE_peri.lib )
        llSchedulerInit                                CODE 00009A37
        llScheduler                                    CODE 00009A67
        llScheduleTask                                 CODE 0000A140
        llFindNextSecTask                              CODE 0000A2C5
        llAllocTask                                    CODE 0000A8C2
        llFreeTask                                     CODE 0000A9AA
        llGetCurrentTask                               CODE 0000A9E7
        llGetTaskState                                 CODE 0000AA0A
        llGetActiveTasks                               CODE 0000AA3B
        llGetNumTasks                                  CODE 0000AA44
        llSave_txFIFO                                  CODE 0000AA4E
        llSave_rxFIFO                                  CODE 0000AB3C
        llRestoreConnState                             CODE 0000AC32
        llSchedulerInit::?relay                        CODE 00000C46
        llScheduler::?relay                            CODE 00000C4C
        llScheduleTask::?relay                         CODE 00000C52
        llFindNextSecTask::?relay                      CODE 00000C58
        llAllocTask::?relay                            CODE 00000C5E
        llFreeTask::?relay                             CODE 00000C64
        llGetCurrentTask::?relay                       CODE 00000C6A
        llGetTaskState::?relay                         CODE 00000C70
        llGetActiveTasks::?relay                       CODE 00000C76
        llGetNumTasks::?relay                          CODE 00000C7C
        llSave_txFIFO::?relay                          CODE 00000C82
        llSave_rxFIFO::?relay                          CODE 00000C88
        llRestoreConnState::?relay                     CODE 00000C8E
ll_slaveEndCauses ( E:\TexasInstruments\BLE-CC254x-1.4.0\Projects\ble\Libraries\CC2541DB\bin\CC2541_BLE_peri.lib )
        llSlaveEvt_TaskEndOk                           CODE 00008528
        llSlaveEvt_TaskAbort                           CODE 00008927
        llSetupNextSlaveEvent                          CODE 0000892D
        llProcessSlaveControlPacket                    CODE 00009068
        llProcessSlaveControlProcedures                CODE 00009581
        llSlaveEvt_TaskEndOk::?relay                   CODE 00000C94
        llSlaveEvt_TaskAbort::?relay                   CODE 00000C9A
        llSetupNextSlaveEvent::?relay                  CODE 00000CA0
        llProcessSlaveControlPacket::?relay            CODE 00000CA6
        llProcessSlaveControlProcedures::?relay        CODE 00000CAC
ll_sleep ( E:\TexasInstruments\BLE-CC254x-1.4.0\Projects\ble\Libraries\CC2541DB\bin\CC2541_BLE_peri.lib )
        LL_TimeToNextRfEvent                           CODE 00002459
        LL_PowerOffReq                                 CODE 00002616
        LL_PowerOnReq                                  CODE 000026AF
ll_timer2 ( E:\TexasInstruments\BLE-CC254x-1.4.0\Projects\ble\Libraries\CC2541DB\bin\CC2541_BLE_peri.lib )
        T2CTRL                                         DATA 00000094
        T2CSPCFG                                       DATA 0000009C
        T2M0                                           DATA 000000A2
        T2M1                                           DATA 000000A3
        T2MOVF0                                        DATA 000000A4
        T2MOVF1                                        DATA 000000A5
        T2MOVF2                                        DATA 000000A6
        T2MSEL                                         DATA 000000C3
        llInitTimer2                                   CODE 00019113
        llStopTimer2                                   CODE 000191A9
        llStartTimer2                                  CODE 000191BF
        llSetT2LongC1Timeout                           CODE 00019235
        llSetT2C1Event1                                CODE 000192A9
        llSetT2LongC1Event1                            CODE 000192E7
        llSetT2OVFC2Event2                             CODE 0001935B
        llDisableT2Ints                                CODE 000193D4
        llDisableT2IntsEvts                            CODE 000193DD
        llDisableT2E1                                  CODE 000193E9
        llGetTimer2Capture                             CODE 000193FE
        llGetCurrentTime                               CODE 0001943C
        llGetFullCTandST                               CODE 00019452
        ll24BitTimeCompare                             CODE 0000277F
        ll24BitTimeDelta                               CODE 000027D8
        llAdjustTimeBackward                           CODE 00002847
        ll_McuPrecisionCount                           CODE 000194B1
        llInitTimer2::?relay                           CODE 00000CB2
        llStopTimer2::?relay                           CODE 00000CB8
        llStartTimer2::?relay                          CODE 00000CBE
        llSetT2LongC1Timeout::?relay                   CODE 00000CC4
        llSetT2C1Event1::?relay                        CODE 00000CCA
        llSetT2LongC1Event1::?relay                    CODE 00000CD0
        llSetT2OVFC2Event2::?relay                     CODE 00000CD6
        llDisableT2Ints::?relay                        CODE 00000CDC
        llDisableT2IntsEvts::?relay                    CODE 00000CE2
        llDisableT2E1::?relay                          CODE 00000CE8
        llGetTimer2Capture::?relay                     CODE 00000CEE
        llGetCurrentTime::?relay                       CODE 00000CF4
        llGetFullCTandST::?relay                       CODE 00000CFA
        ll_McuPrecisionCount::?relay                   CODE 00000D00
ll_timerDrift ( E:\TexasInstruments\BLE-CC254x-1.4.0\Projects\ble\Libraries\CC2541DB\bin\CC2541_BLE_peri.lib )
        SCA                                            CONST 00008347
        OverheadJitter                                 CONST 0000843C
        llCalcScaFactor                                CODE 000028B6
        llCalcTimerDrift                               CODE 0000290C
phy ( E:\TexasInstruments\BLE-CC254x-1.4.0\Projects\ble\Libraries\CC2541DB\bin\CC2541_BLE_peri.lib )
        numWLEntries                                   XDATA 00000730
        PHY_Init                                       CODE 000188AA
        PHY_Reset                                      CODE 000188B7
        PHY_ClearAllRegsAndFifos                       CODE 000188D1
        PHY_SetOwnAddr                                 CODE 00018910
        PHY_SetPeerAddr                                CODE 0001894E
        PHY_SetCRCInit                                 CODE 000189B3
        PHY_GetAdvChans                                CODE 000189C8
        PHY_SetAdvChans                                CODE 000189D3
        PHY_SetDataChan                                CODE 000029CB
        PHY_SetEndConnection                           CODE 000189E0
        PHY_ConfigureMD                                CODE 000189F7
        PHY_GetEndCause                                CODE 00018A05
        PHY_InitSeqStat                                CODE 00018A10
        PHY_SetSyncWord                                CODE 00018A1C
        PHY_SetMaxNack                                 CODE 00018A2B
        PHY_ClearWhitelist                             CODE 00018A36
        PHY_AddWlEntry                                 CODE 00018A59
        PHY_SetAdvWlPolicy                             CODE 00018B00
        PHY_SetBlacklistIndex                          CODE 00018B10
        PHY_ClearBlacklistIndex                        CODE 00018B2A
        PHY_ClearBlacklist                             CODE 00018B47
        PHY_ClearSavedWhiteList                        CODE 00018B63
        PHY_ConfigureFifoDataProcessing                CODE 00018B88
        PHY_ConfigureAppendRfStatus                    CODE 00018B93
        PHY_SetFifoConfig                              CODE 00018BA8
        PHY_ConfigWhitener                             CODE 00018BBC
        PHY_RetryTxFifo                                CODE 00018C1D
        PHY_RetryRxFifo                                CODE 00018C23
        PHY_CommitRxFifo                               CODE 00018C29
        PHY_DeallocateRxFifo                           CODE 00018C2F
        PHY_SetRfFreq                                  CODE 00018C47
        PHY_Init::?relay                               CODE 00000D06
        PHY_Reset::?relay                              CODE 00000D0C
        PHY_ClearAllRegsAndFifos::?relay               CODE 00000D12
        PHY_SetOwnAddr::?relay                         CODE 00000D18
        PHY_SetPeerAddr::?relay                        CODE 00000D1E
        PHY_SetCRCInit::?relay                         CODE 00000D24
        PHY_GetAdvChans::?relay                        CODE 00000D2A
        PHY_SetAdvChans::?relay                        CODE 00000D30
        PHY_SetEndConnection::?relay                   CODE 00000D36
        PHY_ConfigureMD::?relay                        CODE 00000D3C
        PHY_GetEndCause::?relay                        CODE 00000D42
        PHY_InitSeqStat::?relay                        CODE 00000D48
        PHY_SetSyncWord::?relay                        CODE 00000D4E
        PHY_SetMaxNack::?relay                         CODE 00000D54
        PHY_ClearWhitelist::?relay                     CODE 00000D5A
        PHY_AddWlEntry::?relay                         CODE 00000D60
        PHY_SetAdvWlPolicy::?relay                     CODE 00000D66
        PHY_SetBlacklistIndex::?relay                  CODE 00000D6C
        PHY_ClearBlacklistIndex::?relay                CODE 00000D72
        PHY_ClearBlacklist::?relay                     CODE 00000D78
        PHY_ClearSavedWhiteList::?relay                CODE 00000D7E
        PHY_ConfigureFifoDataProcessing::?relay        CODE 00000D84
        PHY_ConfigureAppendRfStatus::?relay            CODE 00000D8A
        PHY_SetFifoConfig::?relay                      CODE 00000D90
        PHY_ConfigWhitener::?relay                     CODE 00000D96
        PHY_RetryTxFifo::?relay                        CODE 00000D9C
        PHY_RetryRxFifo::?relay                        CODE 00000DA2
        PHY_CommitRxFifo::?relay                       CODE 00000DA8
        PHY_DeallocateRxFifo::?relay                   CODE 00000DAE
        PHY_SetRfFreq::?relay                          CODE 00000DB4
        phyFindWlEntry                                 CODE 00018C7A
        phyFindWlEntry::?relay                         CODE 00000DBA
phy_image ( E:\TexasInstruments\BLE-CC254x-1.4.0\Projects\ble\Libraries\CC2541DB\bin\CC2541_BLE_peri.lib )
sm_mgr ( E:\TexasInstruments\BLE-CC254x-1.4.0\Projects\ble\Libraries\CC2541DB\bin\CC2541_BLE_peri.lib )
        SM_CalcRandomAddr                              CODE 0000EAD3
        SM_ResolveRandomAddrs                          CODE 0000EB57
        SM_GenerateAuthenSig                           CODE 0000EC06
        SM_VerifyAuthenSig                             CODE 0000ED65
        smProcessRandComplete                          CODE 0000EF86
        smStartRspTimer                                CODE 0000F072
        smStopRspTimer                                 CODE 0000F0A7
        sm_ah                                          CODE 0000F0C9
        sm_c1new                                       CODE 0000F178
        sm_s1                                          CODE 0000F399
        smGenerateRandBuf                              CODE 0000F42B
        smAuthReqToUint8                               CODE 0000F45D
        smUint8ToAuthReq                               CODE 0000F46A
        SM_CalcRandomAddr::?relay                      CODE 00000DC0
        SM_ResolveRandomAddrs::?relay                  CODE 00000DC6
        SM_GenerateAuthenSig::?relay                   CODE 00000DCC
        SM_VerifyAuthenSig::?relay                     CODE 00000DD2
        smProcessRandComplete::?relay                  CODE 00000DD8
        smStartRspTimer::?relay                        CODE 00000DDE
        smStopRspTimer::?relay                         CODE 00000DE4
        sm_ah::?relay                                  CODE 00000DEA
        sm_c1new::?relay                               CODE 00000DF0
        sm_s1::?relay                                  CODE 00000DFC
        smGenerateRandBuf::?relay                      CODE 00000E02
        smAuthReqToUint8::?relay                       CODE 00000E08
        smUint8ToAuthReq::?relay                       CODE 00000E0E
        sm_xor                                         CODE 0000F370
        smEncrypt                                      CODE 0000F4C1
        sm_CMAC                                        CODE 0000F4E7
        generate_subkey                                CODE 0000F754
        xor_128                                        CODE 0000F857
        leftshift_onebit                               CODE 0000F8AF
        sm_xor::?relay                                 CODE 00000DF6
        smEncrypt::?relay                              CODE 00000E14
        sm_CMAC::?relay                                CODE 00000E1A
        generate_subkey::?relay                        CODE 00000E20
        xor_128::?relay                                CODE 00000E26
        leftshift_onebit::?relay                       CODE 00000E2C
sm_pairing ( E:\TexasInstruments\BLE-CC254x-1.4.0\Projects\ble\Libraries\CC2541DB\bin\CC2541_BLE_peri.lib )
        pPairingParams                                 XDATA 00000733
        pfnResponderCBs                                XDATA 00000735
        SM_StartPairing                                CODE 0000DC62
        SM_PasskeyUpdate                               CODE 0000DD6C
        smRegisterResponder                            CODE 0000DE53
        smLinkCheck                                    CODE 0000DE5D
        smTimedOut                                     CODE 0000DE7F
        smProcessDataMsg                               CODE 0000DE8B
        smSendFailAndEnd                               CODE 0000E024
        smProcessEncryptChange                         CODE 0000E053
        smNextPairingState                             CODE 0000E16F
        sm_c1                                          CODE 0000E1C8
        smProcessPairingReq                            CODE 0000E32E
        smStartEncryption                              CODE 0000E40D
        smGeneratePairingReqRsp                        CODE 0000E469
        smGenerateConfirm                              CODE 0000E4D6
        smGenerateRandMsg                              CODE 0000E511
        smSavePairInfo                                 CODE 0000E550
        smPairingSendEncInfo                           CODE 0000E809
        smPairingSendMasterID                          CODE 0000E823
        smPairingSendIdentityInfo                      CODE 0000E8AF
        smPairingSendIdentityAddrInfo                  CODE 0000E8BD
        smPairingSendSingingInfo                       CODE 0000E916
        smEndPairing                                   CODE 0000E997
        smDetermineKeySize                             CODE 0000E9FB
        SM_StartPairing::?relay                        CODE 00000E32
        SM_PasskeyUpdate::?relay                       CODE 00000E38
        smRegisterResponder::?relay                    CODE 00000E3E
        smLinkCheck::?relay                            CODE 00000E44
        smTimedOut::?relay                             CODE 00000E4A
        smProcessDataMsg::?relay                       CODE 00000E50
        smSendFailAndEnd::?relay                       CODE 00000E56
        smProcessEncryptChange::?relay                 CODE 00000E5C
        smNextPairingState::?relay                     CODE 00000E62
        sm_c1::?relay                                  CODE 00000E68
        smProcessPairingReq::?relay                    CODE 00000E6E
        smStartEncryption::?relay                      CODE 00000E74
        smGeneratePairingReqRsp::?relay                CODE 00000E7A
        smGenerateConfirm::?relay                      CODE 00000E80
        smGenerateRandMsg::?relay                      CODE 00000E86
        smSavePairInfo::?relay                         CODE 00000E8C
        smPairingSendEncInfo::?relay                   CODE 00000E92
        smPairingSendMasterID::?relay                  CODE 00000E98
        smPairingSendIdentityInfo::?relay              CODE 00000E9E
        smPairingSendIdentityAddrInfo::?relay          CODE 00000EA4
        smPairingSendSingingInfo::?relay               CODE 00000EAA
        smEndPairing::?relay                           CODE 00000EB6
        smDetermineKeySize::?relay                     CODE 00000EBC
        smFreePairingParams                            CODE 0000E924
        smSetPairingReqRsp                             CODE 0000EA45
        smFreePairingParams::?relay                    CODE 00000EB0
        smSetPairingReqRsp::?relay                     CODE 00000EC2
sm_rsppairing ( E:\TexasInstruments\BLE-CC254x-1.4.0\Projects\ble\Libraries\CC2541DB\bin\CC2541_BLE_peri.lib )
        SM_ResponderInit                               CODE 00007393
        smpResponderProcessPairingReq                  CODE 000078F0
        SM_ResponderInit::?relay                       CODE 00000EC8
        smpResponderProcessPairingReq::?relay          CODE 00000EDA
        smResponderProcessLTKReq                       CODE 000073B5
        smpResponderProcessIncoming                    CODE 000075DB
        smpResponderProcessPairingRandom               CODE 00007A08
        smpResponderProcessMasterID                    CODE 00007ABB
        smResponderSendNextKeyInfo                     CODE 00007B9D
        smResponderProcessLTKReq::?relay               CODE 00000ECE
        smpResponderProcessIncoming::?relay            CODE 00000ED4
        smpResponderProcessPairingRandom::?relay       CODE 00000EE0
        smpResponderProcessMasterID::?relay            CODE 00000EE6
        smResponderSendNextKeyInfo::?relay             CODE 00000EEC
sm_task ( E:\TexasInstruments\BLE-CC254x-1.4.0\Projects\ble\Libraries\CC2541DB\bin\CC2541_BLE_peri.lib )
        smTaskID                                       XDATA 00000739
        SM_Init                                        CODE 0001B669
        SM_ProcessEvent                                CODE 0001B68E
        SM_Init::?relay                                CODE 00000EF2
        SM_ProcessEvent::?relay                        CODE 00000EF8
        smProcessOSALMsg                               CODE 0001B700
        smProcessOSALMsg::?relay                       CODE 00000EFE
smp ( E:\TexasInstruments\BLE-CC254x-1.4.0\Projects\ble\Libraries\CC2541DB\bin\CC2541_BLE_peri.lib )
        smpBuildPairingReq                             CODE 000158FE
        smpBuildPairingRsp                             CODE 00015907
        smpBuildPairingReqRsp                          CODE 00015910
        smpParsePairingReq                             CODE 000159E7
        smpBuildPairingConfirm                         CODE 00015B98
        smpParsePairingConfirm                         CODE 00015BCE
        smpBuildPairingRandom                          CODE 00015C08
        smpParsePairingRandom                          CODE 00015C3E
        smpBuildPairingFailed                          CODE 00015C78
        smpParsePairingFailed                          CODE 00015CAC
        smpBuildEncInfo                                CODE 00015CD8
        smpParseEncInfo                                CODE 00015D21
        smpBuildMasterID                               CODE 00015D5B
        smpParseMasterID                               CODE 00015DA4
        smpBuildIdentityInfo                           CODE 00015DFC
        smpBuildIdentityAddrInfo                       CODE 00015E31
        smpParseIdentityInfo                           CODE 00015E8C
        smpParseIdentityAddrInfo                       CODE 00015EC6
        smpBuildSigningInfo                            CODE 00015F17
        smpParseSigningInfo                            CODE 00015F4D
        smpBuildSecurityReq                            CODE 00015F87
        smpParseSecurityReq                            CODE 00015FB5
        smSendSMMsg                                    CODE 00015FD8
        smpBuildPairingReq::?relay                     CODE 00000F04
        smpBuildPairingRsp::?relay                     CODE 00000F0A
        smpBuildPairingReqRsp::?relay                  CODE 00000F10
        smpParsePairingReq::?relay                     CODE 00000F16
        smpBuildPairingConfirm::?relay                 CODE 00000F1C
        smpParsePairingConfirm::?relay                 CODE 00000F22
        smpBuildPairingRandom::?relay                  CODE 00000F28
        smpParsePairingRandom::?relay                  CODE 00000F2E
        smpBuildPairingFailed::?relay                  CODE 00000F34
        smpParsePairingFailed::?relay                  CODE 00000F3A
        smpBuildEncInfo::?relay                        CODE 00000F40
        smpParseEncInfo::?relay                        CODE 00000F46
        smpBuildMasterID::?relay                       CODE 00000F4C
        smpParseMasterID::?relay                       CODE 00000F52
        smpBuildIdentityInfo::?relay                   CODE 00000F58
        smpBuildIdentityAddrInfo::?relay               CODE 00000F5E
        smpParseIdentityInfo::?relay                   CODE 00000F64
        smpParseIdentityAddrInfo::?relay               CODE 00000F6A
        smpBuildSigningInfo::?relay                    CODE 00000F70
        smpParseSigningInfo::?relay                    CODE 00000F76
        smpBuildSecurityReq::?relay                    CODE 00000F7C
        smpParseSecurityReq::?relay                    CODE 00000F82
        smSendSMMsg::?relay                            CODE 00000F88
hci_tl ( E:\TexasInstruments\BLE-CC254x-1.4.0\Projects\ble\Libraries\Common\bin\CC254x_BLE_HCI_TL_None.lib )
        hciTaskID                                      XDATA 0000073A
        hciTestTaskID                                  XDATA 0000073B
        hciGapTaskID                                   XDATA 0000073C
        hciL2capTaskID                                 XDATA 0000073D
        hciSmpTaskID                                   XDATA 0000073E
        hciExtTaskID                                   XDATA 0000073F
        HCI_Init                                       CODE 0001C203
        HCI_ProcessEvent                               CODE 0001C22F
        HCI_GAPTaskRegister                            CODE 0001C28A
        HCI_L2CAPTaskRegister                          CODE 0001C294
        HCI_SMPTaskRegister                            CODE 0001C2A4
        HCI_Init::?relay                               CODE 00000F8E
        HCI_ProcessEvent::?relay                       CODE 00000F94
        HCI_GAPTaskRegister::?relay                    CODE 00000F9A
        HCI_L2CAPTaskRegister::?relay                  CODE 00000FA0
        HCI_SMPTaskRegister::?relay                    CODE 00000FA6
OSAL ( E:\TexasInstruments\BLE-CC254x-1.4.0\Projects\ble\SimpleBLEPeripheralzeke\CC2541DB\CC2541\Obj\OSAL.r51 )
        osal_qHead                                     XDATA 00000740
        osal_strlen                                    CODE 0001485E
        osal_memcpy                                    CODE 00014868
        osal_revmemcpy                                 CODE 000148A6
        osal_memdup                                    CODE 000148EF
        osal_memcmp                                    CODE 00014929
        osal_memset                                    CODE 00014983
        _ltoa                                          CODE 000149A4
        osal_rand                                      CODE 00014C7C
        osal_msg_allocate                              CODE 00014C85
        osal_msg_deallocate                            CODE 00014CD2
        osal_msg_send                                  CODE 00014CFB
        osal_msg_receive                               CODE 00014D71
        osal_msg_enqueue                               CODE 00014E03
        osal_msg_push                                  CODE 00014E4D
        osal_msg_extract                               CODE 00014E83
        osal_set_event                                 CODE 00014F0F
        osal_clear_event                               CODE 00014F50
        osal_int_disable                               CODE 00014F87
        osal_init_system                               CODE 00014F99
        osal_start_system                              CODE 00014FB8
        osal_run_system                                CODE 00014FC1
        osal_isbufset                                  CODE 0001508E
        osal_strlen::?relay                            CODE 00000FAC
        osal_memcpy::?relay                            CODE 00000FB2
        osal_revmemcpy::?relay                         CODE 00000FB8
        osal_memdup::?relay                            CODE 00000FBE
        osal_memcmp::?relay                            CODE 00000FC4
        osal_memset::?relay                            CODE 00000FCA
        _ltoa::?relay                                  CODE 00000FD0
        osal_rand::?relay                              CODE 00000FD6
        osal_msg_allocate::?relay                      CODE 00000FDC
        osal_msg_deallocate::?relay                    CODE 00000FE2
        osal_msg_send::?relay                          CODE 00000FE8
        osal_msg_receive::?relay                       CODE 00000FF4
        osal_msg_enqueue::?relay                       CODE 00000FFA
        osal_msg_push::?relay                          CODE 00001000
        osal_msg_extract::?relay                       CODE 00001006
        osal_set_event::?relay                         CODE 0000100C
        osal_clear_event::?relay                       CODE 00001012
        osal_int_disable::?relay                       CODE 00001018
        osal_init_system::?relay                       CODE 0000101E
        osal_start_system::?relay                      CODE 00001024
        osal_run_system::?relay                        CODE 0000102A
        osal_isbufset::?relay                          CODE 00001030
        __Constant_2710                                CONST 0000848E
        __Constant_5f5e100                             CONST 00008492
        IEN0                                           DATA 000000A8
        activeTaskID                                   XDATA 00000E5A
        ?Subroutine2                                   CODE 00014920
        ?Subroutine18                                  CODE 00014C5F
        ?Subroutine8                                   CODE 00014C74
        ?Subroutine0                                   CODE 00014CF4
        osal_msg_enqueue_push                          CODE 00014D05
        ?Subroutine14                                  CODE 00014D64
        ?Subroutine6                                   CODE 00014DFD
        ?Subroutine5                                   CODE 00014E32
        ?Subroutine1                                   CODE 00014E36
        ?Subroutine3                                   CODE 00014E3E
        ?Subroutine17                                  CODE 00014E43
        ?Subroutine10                                  CODE 00014E7D
        ?Subroutine15                                  CODE 00014EF7
        ?Subroutine19                                  CODE 00014F02
        ?Subroutine13                                  CODE 00015065
        ?Subroutine11                                  CODE 0001506E
        ?Subroutine7                                   CODE 00015082
        osal_msg_enqueue_push::?relay                  CODE 00000FEE
OSAL_ClockBLE ( E:\TexasInstruments\BLE-CC254x-1.4.0\Projects\ble\SimpleBLEPeripheralzeke\CC2541DB\CC2541\Obj\OSAL_ClockBLE.r51 )
        OSAL_timeSeconds                               XDATA 00000748
        osalTimeUpdate                                 CODE 00017EFB
        osalTimeUpdate::?relay                         CODE 00001036
        previousLLTimerTick                            XDATA 00000742
        remUsTicks                                     XDATA 00000744
        timeMSec                                       XDATA 00000746
        ?Subroutine3                                   CODE 00017FE5
OSAL_Memory ( E:\TexasInstruments\BLE-CC254x-1.4.0\Projects\ble\SimpleBLEPeripheralzeke\CC2541DB\CC2541\Obj\OSAL_Memory.r51 )
        osal_mem_init                                  CODE 0001B2BE
        osal_mem_kick                                  CODE 0001B2F4
        osal_mem_alloc                                 CODE 0001B32A
        osal_mem_free                                  CODE 0001B475
        osal_mem_init::?relay                          CODE 0000103C
        osal_mem_kick::?relay                          CODE 00001042
        osal_mem_alloc::?relay                         CODE 00001048
        osal_mem_free::?relay                          CODE 0000104E
        IEN0                                           DATA 000000A8
        theHeap                                        XDATA 00001083
        ff1                                            XDATA 00001C85
        osalMemStat                                    XDATA 0000074C
        ?Subroutine0                                   CODE 0001B2ED
OSAL_PwrMgr ( E:\TexasInstruments\BLE-CC254x-1.4.0\Projects\ble\SimpleBLEPeripheralzeke\CC2541DB\CC2541\Obj\OSAL_PwrMgr.r51 )
        pwrmgr_attribute                               XDATA 0000074D
        osal_pwrmgr_init                               CODE 0001C2AE
        osal_pwrmgr_device                             CODE 0001C2C4
        osal_pwrmgr_task_state                         CODE 0001C2CE
        osal_pwrmgr_powerconserve                      CODE 0001C318
        osal_pwrmgr_init::?relay                       CODE 00001054
        osal_pwrmgr_device::?relay                     CODE 0000105A
        osal_pwrmgr_task_state::?relay                 CODE 00001060
        osal_pwrmgr_powerconserve::?relay              CODE 00001066
        IEN0                                           DATA 000000A8
        ?Subroutine0                                   CODE 0001C2BC
OSAL_SimpleBLEPeripheral ( E:\TexasInstruments\BLE-CC254x-1.4.0\Projects\ble\SimpleBLEPeripheralzeke\CC2541DB\CC2541\Obj\OSAL_SimpleBLEPeripheral.r51 )
        tasksArr                                       CONST 0000825E
        tasksCnt                                       CONST 00008525
        tasksEvents                                    XDATA 00000754
        osalInitTasks                                  CODE 0001C3CA
        osalInitTasks::?relay                          CODE 0000106C
OSAL_Timers ( E:\TexasInstruments\BLE-CC254x-1.4.0\Projects\ble\SimpleBLEPeripheralzeke\CC2541DB\CC2541\Obj\OSAL_Timers.r51 )
        timerHead                                      XDATA 00000756
        osalTimerInit                                  CODE 0001717F
        osalAddTimer                                   CODE 00017194
        osalFindTimer                                  CODE 00017244
        osalDeleteTimer                                CODE 00017284
        osal_start_timerEx                             CODE 0001729D
        osal_start_reload_timer                        CODE 000172D8
        osal_stop_timerEx                              CODE 00017325
        osal_get_timeoutEx                             CODE 00017357
        osalTimerUpdate                                CODE 00017399
        osal_next_timeout                              CODE 0001759A
        osal_GetSystemClock                            CODE 0001760C
        osalTimerInit::?relay                          CODE 00001072
        osalAddTimer::?relay                           CODE 00001078
        osalFindTimer::?relay                          CODE 0000107E
        osalDeleteTimer::?relay                        CODE 00001084
        osal_start_timerEx::?relay                     CODE 0000108A
        osal_start_reload_timer::?relay                CODE 00001090
        osal_stop_timerEx::?relay                      CODE 00001096
        osal_get_timeoutEx::?relay                     CODE 0000109C
        osalTimerUpdate::?relay                        CODE 000010A2
        osal_next_timeout::?relay                      CODE 000010A8
        osal_GetSystemClock::?relay                    CODE 000010AE
        IEN0                                           DATA 000000A8
        osal_systemClock                               XDATA 00000758
        ?Subroutine0                                   CODE 0001723F
        ?Subroutine2                                   CODE 000172D3
        ?Subroutine3                                   CODE 00017320
        ?Subroutine1                                   CODE 00017392
        ?Subroutine4                                   CODE 0001758F
        ?Subroutine5                                   CODE 00017600
OnBoard ( E:\TexasInstruments\BLE-CC254x-1.4.0\Projects\ble\SimpleBLEPeripheralzeke\CC2541DB\CC2541\Obj\OnBoard.r51 )
        OnboardKeyIntEnable                            XDATA 0000075C
        InitBoard                                      CODE 0001BB52
        Onboard_rand                                   CODE 0001BB7B
        _itoa                                          CODE 0001BBAA
        RegisterForKeys                                CODE 0001BC42
        OnBoard_SendKeys                               CODE 0001BC5A
        OnBoard_KeyCallback                            CODE 0001BC9C
        Onboard_soft_reset                             CODE 000029D9
        InitBoard::?relay                              CODE 000010B4
        Onboard_rand::?relay                           CODE 000010BA
        _itoa::?relay                                  CODE 000010C0
        RegisterForKeys::?relay                        CODE 000010C6
        OnBoard_SendKeys::?relay                       CODE 000010CC
        OnBoard_KeyCallback::?relay                    CODE 000010D2
        IEN0                                           DATA 000000A8
        registeredKeysTaskID                           XDATA 00000E5B
        ?Subroutine0                                   CODE 0001BB76
        ?Subroutine1                                   CODE 0001BBA3
SimpleBLEPeripheral_Main ( E:\TexasInstruments\BLE-CC254x-1.4.0\Projects\ble\SimpleBLEPeripheralzeke\CC2541DB\CC2541\Obj\SimpleBLEPeripheral_Main.r51 )
        SLEEPSTA                                       DATA 0000009D
        CLKCONSTA                                      DATA 0000009E
        main                                           CODE 0001C429
        IEN0                                           DATA 000000A8
SimpleBLESPIFlash ( E:\TexasInstruments\BLE-CC254x-1.4.0\Projects\ble\SimpleBLEPeripheralzeke\CC2541DB\CC2541\Obj\SimpleBLESPIFlash.r51 )
        _A_P1                                          DATA 00000090
        _A_U1CSR                                       DATA 000000F8
        U1DBUF                                         DATA 000000F9
        P1DIR                                          DATA 000000FE
        P1                                             DATA 00000090
        U1CSR                                          DATA 000000F8
SimpleBLESerialUart ( E:\TexasInstruments\BLE-CC254x-1.4.0\Projects\ble\SimpleBLEPeripheralzeke\CC2541DB\CC2541\Obj\SimpleBLESerialUart.r51 )
        SBP_UART_STUDY_CMD                             XDATA 00000E5C
        u_state                                        XDATA 0000075D
        UartBuffer                                     XDATA 0000075E
        SbpHalUART_Init                                CODE 0001B0B9
        SbpHalUARTInit                                 CODE 0001B0C2
        studyCompletedAndBroadcastData                 CODE 0001B133
        numBytes                                       XDATA 0000085D
        point                                          XDATA 0000085F
        irdatalen                                      XDATA 00000861
        pktBuffer                                      XDATA 00000863
        UART_PORT_HAVE_READ                            XDATA 00000962
        SbpHalUARTReadCallback                         CODE 0001B147
        SbpHalUARTRead                                 CODE 0001B29C
        SbpHalUART_Init::?relay                        CODE 000010D8
        SbpHalUARTInit::?relay                         CODE 000010DE
        studyCompletedAndBroadcastData::?relay         CODE 000010E4
        SbpHalUARTReadCallback::?relay                 CODE 000010EA
        SbpHalUARTRead::?relay                         CODE 000010F0
        ?Subroutine0                                   CODE 0001B140
        ?Subroutine3                                   CODE 0001B281
        ?Subroutine2                                   CODE 0001B28B
        ?Subroutine1                                   CODE 0001B296
        ?Subroutine4                                   CODE 0001B2B1
SimpleDS18B20 ( E:\TexasInstruments\BLE-CC254x-1.4.0\Projects\ble\SimpleBLEPeripheralzeke\CC2541DB\CC2541\Obj\SimpleDS18B20.r51 )
        _A_P0                                          DATA 00000080
        P0DIR                                          DATA 000000FD
        delay_nus                                      CODE 0000FFDF
        __Constant_ffffffff                            CONST 0000849E
        delay_nus::?relay                              CODE 000010F6
        P0                                             DATA 00000080
SimpleEepromUtils ( E:\TexasInstruments\BLE-CC254x-1.4.0\Projects\ble\SimpleBLEPeripheralzeke\CC2541DB\CC2541\Obj\SimpleEepromUtils.r51 )
SimpleRTCInterrupt ( E:\TexasInstruments\BLE-CC254x-1.4.0\Projects\ble\SimpleBLEPeripheralzeke\CC2541DB\CC2541\Obj\SimpleRTCInterrupt.r51 )
        P1IFG                                          DATA 0000008A
        PICTL                                          DATA 0000008C
        P1IEN                                          DATA 0000008D
        IEN2                                           DATA 0000009A
        _A_IRCON2                                      DATA 000000E8
        P1SEL                                          DATA 000000F4
        k                                              XDATA 00000963
        RTCInterruptIsr                                CODE 000029DF
        RTCInterruptIsr::??INTVEC 123                  CODE 0000007B
        __Constant_1                                   CONST 000084A2
        __Constant_a                                   CONST 000084A6
        IRCON2                                         DATA 000000E8
SimpleTemperature ( E:\TexasInstruments\BLE-CC254x-1.4.0\Projects\ble\SimpleBLEPeripheralzeke\CC2541DB\CC2541\Obj\SimpleTemperature.r51 )
        _A_TCON                                        DATA 00000088
        ADCCON3                                        DATA 000000B6
        _A_IEN1                                        DATA 000000B8
        ADCL                                           DATA 000000BA
        ADCH                                           DATA 000000BB
        TCON                                           DATA 00000088
        IEN0                                           DATA 000000A8
        IEN1                                           DATA 000000B8
Simplepasscode ( E:\TexasInstruments\BLE-CC254x-1.4.0\Projects\ble\SimpleBLEPeripheralzeke\CC2541DB\CC2541\Obj\Simplepasscode.r51 )
        passkey_flag                                   XDATA 00000967
        newpasskey                                     XDATA 00000968
        newname                                        XDATA 0000096C
        code_flag                                      XDATA 00000980
        name_flag                                      XDATA 00000981
        set_de_passkey                                 CODE 00019BA8
        set_new_passkey                                CODE 00019C54
        atoi                                           CODE 00019D34
        set_code_name                                  CODE 00019D9B
        set_de_passkey::?relay                         CODE 000010FC
        set_new_passkey::?relay                        CODE 00001102
        atoi::?relay                                   CODE 00001108
        set_code_name::?relay                          CODE 0000110E
        attDeviceName                                  XDATA 00000E5D
        ?Subroutine0                                   CODE 00019D18
        ?Subroutine3                                   CODE 00019D20
        ?Subroutine1                                   CODE 00019D2A
        ?Subroutine2                                   CODE 00019EA9
battservice ( E:\TexasInstruments\BLE-CC254x-1.4.0\Projects\ble\SimpleBLEPeripheralzeke\CC2541DB\CC2541\Obj\battservice.r51 )
        battServUUID                                   CONST 000084F7
        battLevelUUID                                  CONST 000084E7
        battCBs                                        CONST 0000846F
        Batt_AddService                                CODE 0001A74C
        Batt_MeasLevel                                 CODE 0001A77C
        Batt_AddService::?relay                        CODE 00001114
        Batt_MeasLevel::?relay                         CODE 0000111A
        battServiceCB                                  XDATA 00000982
        battServiceSetupCB                             XDATA 00000984
        battServiceTeardownCB                          XDATA 00000986
        battServiceCalcCB                              XDATA 00000988
        battMinLevel                                   XDATA 00000E65
        battMaxLevel                                   XDATA 00000E67
        battServiceAdcCh                               XDATA 00000E69
        battService                                    CONST 000084DB
        battLevelProps                                 XDATA 00000E6A
        battLevel                                      XDATA 00000E6B
        battLevelClientCharCfg                         XDATA 0000098A
        hidReportRefBattLevel                          XDATA 00000E6C
        battAttrTbl                                    XDATA 00000E6E
        ?Subroutine0                                   CODE 0001A777
        battReadAttrCB                                 CODE 0001A7B3
        battWriteAttrCB                                CODE 0001A85E
        ?Subroutine4                                   CODE 0001A8E5
        ?Subroutine5                                   CODE 0001A8F3
        ?Subroutine8                                   CODE 0001A8FA
        battMeasure                                    CODE 0001A900
        ?Subroutine7                                   CODE 0001A9C1
        ?Subroutine2                                   CODE 0001A9C7
        battReadAttrCB::?relay                         CODE 00001120
        battWriteAttrCB::?relay                        CODE 00001126
        battMeasure::?relay                            CODE 0000112C
devinfoservice ( E:\TexasInstruments\BLE-CC254x-1.4.0\Projects\ble\SimpleBLEPeripheralzeke\CC2541DB\CC2541\Obj\devinfoservice.r51 )
        devInfoServUUID                                CONST 000084F9
        devInfoSystemIdUUID                            CONST 000084FB
        devInfoModelNumberUUID                         CONST 000084FD
        devInfoSerialNumberUUID                        CONST 00008501
        devInfoFirmwareRevUUID                         CONST 00008503
        devInfoHardwareRevUUID                         CONST 00008505
        devInfoSoftwareRevUUID                         CONST 0000850F
        devInfoMfrNameUUID                             CONST 00008517
        devInfo11073CertUUID                           CONST 00008519
        devInfoPnpIdUUID                               CONST 00008521
        devInfoCBs                                     CONST 00008475
        DevInfo_AddService                             CODE 0001A480
        DevInfo_SetParameter                           CODE 0001A4A5
        DevInfo_AddService::?relay                     CODE 00001132
        DevInfo_SetParameter::?relay                   CODE 00001138
        devInfoService                                 CONST 00008439
        devInfoSystemIdProps                           XDATA 00000E96
        devInfoSystemId                                XDATA 00000990
        devInfoModelNumberProps                        XDATA 00000E97
        devInfoModelNumber                             CONST 000083CC
        devInfoSerialNumberProps                       XDATA 00000E98
        devInfoSerialNumber                            CONST 00008396
        devInfoFirmwareRevProps                        XDATA 00000E99
        devInfoFirmwareRev                             CONST 000082D2
        devInfoHardwareRevProps                        XDATA 00000E9A
        devInfoHardwareRev                             CONST 0000829C
        devInfoSoftwareRevProps                        XDATA 00000E9B
        devInfoSoftwareRev                             CONST 0000828A
        devInfoMfrNameProps                            XDATA 00000E9C
        devInfoMfrName                                 CONST 000082AE
        devInfo11073CertProps                          XDATA 00000E9D
        devInfo11073Cert                               CONST 000083A4
        devInfoPnpIdProps                              XDATA 00000E9E
        devInfoPnpId                                   XDATA 00000E9F
        devInfoAttrTbl                                 XDATA 00000EA6
        ?Subroutine0                                   CODE 0001A4A0
        devInfo_ReadAttrCB                             CODE 0001A4CF
        ?Subroutine5                                   CODE 0001A71F
        ?Subroutine4                                   CODE 0001A727
        ?Subroutine3                                   CODE 0001A72E
        ?Subroutine2                                   CODE 0001A737
        ?Subroutine1                                   CODE 0001A740
        devInfo_ReadAttrCB::?relay                     CODE 0000113E
gap ( E:\TexasInstruments\BLE-CC254x-1.4.0\Projects\ble\SimpleBLEPeripheralzeke\CC2541DB\CC2541\Obj\gap.r51 )
        GAP_DeviceInit                                 CODE 0001C481
        GAP_DeviceInit::?relay                         CODE 00001144
gapbondmgr ( E:\TexasInstruments\BLE-CC254x-1.4.0\Projects\ble\SimpleBLEPeripheralzeke\CC2541DB\CC2541\Obj\gapbondmgr.r51 )
        GAPBondMgr_SetParameter                        CODE 00005DFD
        GAPBondMgr_LinkEst                             CODE 00006062
        GAPBondMgr_ResolveAddr                         CODE 00006203
        GAPBondMgr_ServiceChangeInd                    CODE 000062B7
        GAPBondMgr_UpdateCharCfg                       CODE 0000634A
        GAPBondMgr_Register                            CODE 000063CF
        GAPBondMgr_ProcessGAPMsg                       CODE 000063F4
        GAPBondMgr_Init                                CODE 00006E47
        GAPBondMgr_ProcessEvent                        CODE 00006E57
        GAPBondMgr_SetParameter::?relay                CODE 0000114A
        GAPBondMgr_LinkEst::?relay                     CODE 00001150
        GAPBondMgr_ResolveAddr::?relay                 CODE 00001156
        GAPBondMgr_ServiceChangeInd::?relay            CODE 0000115C
        GAPBondMgr_UpdateCharCfg::?relay               CODE 00001162
        GAPBondMgr_Register::?relay                    CODE 00001168
        GAPBondMgr_ProcessGAPMsg::?relay               CODE 0000116E
        GAPBondMgr_Init::?relay                        CODE 000011BC
        GAPBondMgr_ProcessEvent::?relay                CODE 000011C2
        __Constant_f4240                               CONST 000084AA
        gapBondMgr_TaskID                              XDATA 00000998
        gapBond_PairingMode                            XDATA 00000F3E
        gapBond_InitiateWait                           XDATA 00000F3F
        gapBond_MITM                                   XDATA 00000999
        gapBond_IOCap                                  XDATA 0000099A
        gapBond_OOBDataFlag                            XDATA 0000099B
        gapBond_OOBData                                XDATA 0000099C
        gapBond_Bonding                                XDATA 000009AC
        gapBond_AutoFail                               XDATA 000009AD
        gapBond_AutoFailReason                         XDATA 00000F41
        gapBond_KeyDistList                            XDATA 00000F42
        gapBond_Passcode                               XDATA 000009AE
        gapBond_KeySize                                XDATA 00000F43
        pGapBondCB                                     XDATA 000009B2
        bonds                                          XDATA 000009B4
        autoSyncWhiteList                              XDATA 00000A40
        eraseAllBonds                                  XDATA 00000A41
        bondsToDelete                                  XDATA 00000A42
        bondIdx                                        XDATA 00000F44
        pAuthEvt                                       XDATA 00000A4C
        ?Subroutine15                                  CODE 00006058
        ?Subroutine1                                   CODE 00006340
        ?Subroutine0                                   CODE 00006722
        ?Subroutine12                                  CODE 0000672A
        ?Subroutine11                                  CODE 00006733
        ?Subroutine23                                  CODE 00006742
        gapBondMgrChangeState                          CODE 0000674A
        gapBondMgrUpdateCharCfg                        CODE 000067D0
        ?Subroutine18                                  CODE 000068F7
        gapBondMgrFindCharCfgItem                      CODE 00006903
        ?Subroutine19                                  CODE 00006936
        gapBondMgrInvertCharCfgItem                    CODE 0000693D
        gapBondMgrAddBond                              CODE 00006972
        ?Subroutine20                                  CODE 00006B02
        ?Subroutine14                                  CODE 00006B0B
        ?Subroutine13                                  CODE 00006B14
        ?Subroutine10                                  CODE 00006B1F
        ?Subroutine22                                  CODE 00006B2C
        gapBondMgrGetPublicAddr                        CODE 00006B32
        gapBondMgrFindAddr                             CODE 00006B8F
        gapBondMgrResolvePrivateAddr                   CODE 00006BD8
        gapBondMgrReadBonds                            CODE 00006C43
        gapBondMgrBondTotal                            CODE 00006CB4
        ?Subroutine4                                   CODE 00006CE1
        gapBondMgrEraseAllBondings                     CODE 00006CE6
        gapBondMgrEraseBonding                         CODE 00006CFE
        ?Subroutine5                                   CODE 00006E3F
        ?Subroutine9                                   CODE 00006F62
        ?Subroutine6                                   CODE 00006F6D
        gapBondMgrSendServiceChange                    CODE 00006F72
        ?Subroutine8                                   CODE 00006F88
        gapBondSetupPrivFlag                           CODE 00006F94
        ?Subroutine3                                   CODE 00006FC3
        gapBondMgrAuthenticate                         CODE 00006FCA
        ?Subroutine2                                   CODE 00007165
        ?Subroutine21                                  CODE 0000716D
        ?Subroutine17                                  CODE 00007174
        gapBondMgrBondReq                              CODE 0000717E
        gapBondMgr_SyncWhiteList                       CODE 0000720B
        gapBondMgr_SyncCharCfg                         CODE 0000724A
        ?Subroutine16                                  CODE 0000735B
        ?Subroutine7                                   CODE 00007363
        gapBondMgr_SyncCharCfg::pAttr                  XDATA 00000A4E
        gapBondMgr_SyncCharCfg::service                XDATA 00000A50
        gapBondFreeAuthEvt                             CODE 0000736E
        gapBondMgrChangeState::?relay                  CODE 00001174
        gapBondMgrUpdateCharCfg::?relay                CODE 0000117A
        gapBondMgrFindCharCfgItem::?relay              CODE 00001180
        gapBondMgrInvertCharCfgItem::?relay            CODE 00001186
        gapBondMgrAddBond::?relay                      CODE 0000118C
        gapBondMgrGetPublicAddr::?relay                CODE 00001192
        gapBondMgrFindAddr::?relay                     CODE 00001198
        gapBondMgrResolvePrivateAddr::?relay           CODE 0000119E
        gapBondMgrReadBonds::?relay                    CODE 000011A4
        gapBondMgrBondTotal::?relay                    CODE 000011AA
        gapBondMgrEraseAllBondings::?relay             CODE 000011B0
        gapBondMgrEraseBonding::?relay                 CODE 000011B6
        gapBondMgrSendServiceChange::?relay            CODE 000011C8
        gapBondSetupPrivFlag::?relay                   CODE 000011CE
        gapBondMgrAuthenticate::?relay                 CODE 000011D4
        gapBondMgrBondReq::?relay                      CODE 000011DA
        gapBondMgr_SyncWhiteList::?relay               CODE 000011E0
        gapBondMgr_SyncCharCfg::?relay                 CODE 000011E6
        gapBondFreeAuthEvt::?relay                     CODE 000011EC
gatt_uuid ( E:\TexasInstruments\BLE-CC254x-1.4.0\Projects\ble\SimpleBLEPeripheralzeke\CC2541DB\CC2541\Obj\gatt_uuid.r51 )
        gapServiceUUID                                 CONST 00008513
        gattServiceUUID                                CONST 000084F3
        primaryServiceUUID                             CONST 000084F1
        secondaryServiceUUID                           CONST 000084EF
        characterUUID                                  CONST 000084ED
        charUserDescUUID                               CONST 000084EB
        clientCharCfgUUID                              CONST 000084E9
        deviceNameUUID                                 CONST 000084E3
        appearanceUUID                                 CONST 000084E1
        periPrivacyFlagUUID                            CONST 0000851B
        reconnectAddrUUID                              CONST 00008511
        periConnParamUUID                              CONST 000084FF
        serviceChangedUUID                             CONST 000084F5
        reportRefUUID                                  CONST 000084E5
hal_adc ( E:\TexasInstruments\BLE-CC254x-1.4.0\Projects\ble\SimpleBLEPeripheralzeke\CC2541DB\CC2541\Obj\hal_adc.r51 )
        ADCCON1                                        DATA 000000B4
        ADCCFG                                         DATA 000000F2
        HalAdcInit                                     CODE 0001C142
        HalAdcRead                                     CODE 0001C153
        HalAdcSetReference                             CODE 0001C1F8
        HalAdcInit::?relay                             CODE 000011F2
        HalAdcRead::?relay                             CODE 000011F8
        HalAdcSetReference::?relay                     CODE 000011FE
        adcRef                                         XDATA 00000A52
        ?Subroutine0                                   CODE 0001C14B
hal_aes ( E:\TexasInstruments\BLE-CC254x-1.4.0\Projects\ble\SimpleBLEPeripheralzeke\CC2541DB\CC2541\Obj\hal_aes.r51 )
        ENCCS                                          DATA 000000B3
        DMAIRQ                                         DATA 000000D1
        DMAARM                                         DATA 000000D6
        aesDmaInit                                     CODE 0001C522
        HalAesInit                                     CODE 0001C561
        aesDmaInit::?relay                             CODE 00001204
        HalAesInit::?relay                             CODE 0000120A
        ?Subroutine0                                   CODE 0001C55A
hal_at24c32 ( E:\TexasInstruments\BLE-CC254x-1.4.0\Projects\ble\SimpleBLEPeripheralzeke\CC2541DB\CC2541\Obj\hal_at24c32.r51 )
hal_crc ( E:\TexasInstruments\BLE-CC254x-1.4.0\Projects\ble\SimpleBLEPeripheralzeke\CC2541DB\CC2541\Obj\hal_crc.r51 )
        RNDL                                           DATA 000000BC
        RNDH                                           DATA 000000BD
hal_dma ( E:\TexasInstruments\BLE-CC254x-1.4.0\Projects\ble\SimpleBLEPeripheralzeke\CC2541DB\CC2541\Obj\hal_dma.r51 )
        _A_IRCON                                       DATA 000000C0
        DMA1CFGL                                       DATA 000000D2
        DMA1CFGH                                       DATA 000000D3
        DMA0CFGL                                       DATA 000000D4
        DMA0CFGH                                       DATA 000000D5
        dmaCh0                                         XDATA 00000A53
        dmaCh1234                                      XDATA 00000A5B
        HalDmaInit                                     CODE 0001C5F5
        halDmaIsr                                      CODE 00002A51
        halDmaIsr::??INTVEC 67                         CODE 00000043
        HalDmaInit::?relay                             CODE 00001210
        IEN0                                           DATA 000000A8
        IEN1                                           DATA 000000B8
        IRCON                                          DATA 000000C0
hal_drivers ( E:\TexasInstruments\BLE-CC254x-1.4.0\Projects\ble\SimpleBLEPeripheralzeke\CC2541DB\CC2541\Obj\hal_drivers.r51 )
        Hal_TaskID                                     XDATA 00000A7B
        Hal_Init                                       CODE 0001BF7F
        HalDriverInit                                  CODE 0001BF8F
        Hal_ProcessEvent                               CODE 0001BFAA
        Hal_ProcessPoll                                CODE 0001C05E
        __Constant_64                                  CONST 000084CE
        Hal_Init::?relay                               CODE 00001216
        HalDriverInit::?relay                          CODE 0000121C
        Hal_ProcessEvent::?relay                       CODE 00001222
        Hal_ProcessPoll::?relay                        CODE 00001228
        ?Subroutine0                                   CODE 0001BF88
hal_ds1307 ( E:\TexasInstruments\BLE-CC254x-1.4.0\Projects\ble\SimpleBLEPeripheralzeke\CC2541DB\CC2541\Obj\hal_ds1307.r51 )
        HalDS1307ReadTimeData                          CODE 0001A9CD
        HalDS1307ReadTimeData::?relay                  CODE 0000122E
        ?Subroutine0                                   CODE 0001A9F9
        showDate                                       CODE 0001A9FE
        ?Subroutine4                                   CODE 0001ABAB
        ?Subroutine3                                   CODE 0001ABB2
        ?Subroutine6                                   CODE 0001ABBB
        ?Subroutine2                                   CODE 0001ABCA
        ?Subroutine1                                   CODE 0001ABD5
        hex2char                                       CODE 0001ABE8
        showDate::?relay                               CODE 00001234
        hex2char::?relay                               CODE 0000123A
hal_eeprom ( E:\TexasInstruments\BLE-CC254x-1.4.0\Projects\ble\SimpleBLEPeripheralzeke\CC2541DB\CC2541\Obj\hal_eeprom.r51 )
hal_flash ( E:\TexasInstruments\BLE-CC254x-1.4.0\Projects\ble\SimpleBLEPeripheralzeke\CC2541DB\CC2541\Obj\hal_flash.r51 )
        MEMCTR                                         DATA 000000C7
        HalFlashRead                                   CODE 0000FEDB
        HalFlashWrite                                  CODE 0000FF60
        HalFlashErase                                  CODE 0000FFC6
        HalFlashRead::?relay                           CODE 00001240
        HalFlashWrite::?relay                          CODE 00001246
        HalFlashErase::?relay                          CODE 0000124C
        IEN0                                           DATA 000000A8
hal_i2c ( E:\TexasInstruments\BLE-CC254x-1.4.0\Projects\ble\SimpleBLEPeripheralzeke\CC2541DB\CC2541\Obj\hal_i2c.r51 )
        HalI2CInit                                     CODE 0001BE70
        HalI2CRead                                     CODE 0001BE99
        HalI2CWrite                                    CODE 0001BF10
        HalI2CInit::?relay                             CODE 00001258
        HalI2CRead::?relay                             CODE 0000125E
        HalI2CWrite::?relay                            CODE 00001264
        i2cAddr                                        XDATA 00000A7C
        i2cMstStrt                                     CODE 0001BE3C
        ?Subroutine0                                   CODE 0001BE91
        ?Subroutine1                                   CODE 0001BF77
        i2cMstStrt::?relay                             CODE 00001252
hal_key ( E:\TexasInstruments\BLE-CC254x-1.4.0\Projects\ble\SimpleBLEPeripheralzeke\CC2541DB\CC2541\Obj\hal_key.r51 )
        P0IFG                                          DATA 00000089
        P2IFG                                          DATA 0000008B
        _A_P2                                          DATA 000000A0
        P0IEN                                          DATA 000000AB
        P2IEN                                          DATA 000000AC
        P0SEL                                          DATA 000000F3
        P2SEL                                          DATA 000000F5
        P2INP                                          DATA 000000F7
        P2DIR                                          DATA 000000FF
        Hal_KeyIntEnable                               XDATA 00000A81
        HalKeyInit                                     CODE 0001B9B0
        HalKeyConfig                                   CODE 0001B9D9
        HalKeyRead                                     CODE 0001BA3F
        HalKeyPoll                                     CODE 0001BA5F
        halGetJoyKeyInput                              CODE 0001BAB0
        halProcessKeyInterrupt                         CODE 0001BB0B
        HalKeyEnterSleep                               CODE 0001BB45
        HalKeyExitSleep                                CODE 0001BB48
        halKeyPort0Isr                                 CODE 00002A7A
        halKeyPort2Isr                                 CODE 00002AA3
        halKeyPort2Isr::??INTVEC 51                    CODE 00000033
        halKeyPort0Isr::??INTVEC 107                   CODE 0000006B
        __Constant_19                                  CONST 000084CA
        HalKeyInit::?relay                             CODE 0000126A
        HalKeyConfig::?relay                           CODE 00001270
        HalKeyRead::?relay                             CODE 00001276
        HalKeyPoll::?relay                             CODE 0000127C
        halGetJoyKeyInput::?relay                      CODE 00001282
        halProcessKeyInterrupt::?relay                 CODE 00001288
        HalKeyEnterSleep::?relay                       CODE 0000128E
        HalKeyExitSleep::?relay                        CODE 00001294
        P0                                             DATA 00000080
        P2                                             DATA 000000A0
        IEN0                                           DATA 000000A8
        IEN1                                           DATA 000000B8
        IRCON                                          DATA 000000C0
        IRCON2                                         DATA 000000E8
        halKeySavedKeys                                XDATA 00000A7D
        pHalKeyProcessFunction                         XDATA 00000A7E
        HalKeyConfigured                               XDATA 00000A80
        ?Subroutine0                                   CODE 0001B9D2
        ?Subroutine1                                   CODE 0001BA5A
        ?Subroutine2                                   CODE 00002A96
hal_lcd ( E:\TexasInstruments\BLE-CC254x-1.4.0\Projects\ble\SimpleBLEPeripheralzeke\CC2541DB\CC2541\Obj\hal_lcd.r51 )
        PERCFG                                         DATA 000000F1
        U1BAUD                                         DATA 000000FA
        U1UCR                                          DATA 000000FB
        U1GCR                                          DATA 000000FC
        set_ddram_line_col                             CODE 0001845C
        DisplayByte_5x7                                CODE 00018495
        HalLcdInit                                     CODE 00018507
        HalLcdWriteString                              CODE 0001851C
        HalLcdWriteStringValue                         CODE 00018647
        HalLcd_HW_Init                                 CODE 000186C3
        HalLcd_HW_Control                              CODE 00018789
        HalLcd_HW_Write                                CODE 000187A8
        HalLcd_HW_Clear                                CODE 000187CF
        HalLcd_HW_WriteChar                            CODE 0001880C
        HalLcd_HW_WriteLine                            CODE 00018824
        HalLcd_HW_WaitUs                               CODE 00018875
        ascii_table_5x7                                CONST 00008000
        set_ddram_line_col::?relay                     CODE 0000129A
        DisplayByte_5x7::?relay                        CODE 000012A0
        HalLcdInit::?relay                             CODE 000012A6
        HalLcdWriteString::?relay                      CODE 000012AC
        HalLcdWriteStringValue::?relay                 CODE 000012B2
        HalLcd_HW_Init::?relay                         CODE 000012B8
        HalLcd_HW_Control::?relay                      CODE 000012BE
        HalLcd_HW_Write::?relay                        CODE 000012C4
        HalLcd_HW_Clear::?relay                        CODE 000012CA
        HalLcd_HW_WriteChar::?relay                    CODE 000012D0
        HalLcd_HW_WriteLine::?relay                    CODE 000012D6
        HalLcd_HW_WaitUs::?relay                       CODE 000012DC
        P1                                             DATA 00000090
        U1CSR                                          DATA 000000F8
        Lcd_Line1                                      XDATA 00000A82
        ?Subroutine2                                   CODE 00018515
        ?Subroutine3                                   CODE 00018630
        ?Subroutine4                                   CODE 000186B7
        ?Subroutine1                                   CODE 0001879F
        ?Subroutine6                                   CODE 000187C0
        ?Subroutine0                                   CODE 000187FC
        ?Subroutine5                                   CODE 00018801
hal_led ( E:\TexasInstruments\BLE-CC254x-1.4.0\Projects\ble\SimpleBLEPeripheralzeke\CC2541DB\CC2541\Obj\hal_led.r51 )
        HalLedInit                                     CODE 00018CF7
        HalLedSet                                      CODE 00018D0E
        HalLedBlink                                    CODE 00018D88
        HalLedUpdate                                   CODE 00018E6C
        HalLedOnOff                                    CODE 00019043
        HalLedEnterSleep                               CODE 000190A8
        HalLedExitSleep                                CODE 000190FF
        HalLedInit::?relay                             CODE 000012E2
        HalLedSet::?relay                              CODE 000012E8
        HalLedBlink::?relay                            CODE 000012EE
        HalLedUpdate::?relay                           CODE 000012F4
        HalLedOnOff::?relay                            CODE 000012FA
        HalLedEnterSleep::?relay                       CODE 00001300
        HalLedExitSleep::?relay                        CODE 00001306
        P1                                             DATA 00000090
        HalLedState                                    XDATA 00000A84
        HalSleepLedState                               XDATA 00000A85
        preBlinkState                                  XDATA 00000A86
        HalLedStatusControl                            XDATA 00000A87
        ?Subroutine1                                   CODE 00018E63
        ?Subroutine0                                   CODE 0001909C
hal_sensor ( E:\TexasInstruments\BLE-CC254x-1.4.0\Projects\ble\SimpleBLEPeripheralzeke\CC2541DB\CC2541\Obj\hal_sensor.r51 )
        HalSensorReadReg                               CODE 0001C4D7
        HalSensorReadReg::?relay                       CODE 0000130C
        ?Subroutine0                                   CODE 0001C51D
hal_sleep ( E:\TexasInstruments\BLE-CC254x-1.4.0\Projects\ble\SimpleBLEPeripheralzeke\CC2541DB\CC2541\Obj\hal_sleep.r51 )
        PCON                                           DATA 00000087
        ST0                                            DATA 00000095
        ST1                                            DATA 00000096
        ST2                                            DATA 00000097
        STLOAD                                         DATA 000000AD
        halSleepPconValue                              DATA 0000001A
        halSetSleepMode                                CODE 00007FF8
        halSleep                                       CODE 0001AC2F
        halSleepSetTimer                               CODE 0001ADCA
        halSleepReadTimer                              CODE 0001AE2B
        halRestoreSleepLevel                           CODE 0001AE71
        halSleepTimerIsr                               CODE 00002AC1
        halSleepTimerIsr::??INTVEC 43                  CODE 0000002B
        __Constant_9c41                                CONST 000084C6
        __Constant_43                                  CONST 000084C2
        __Constant_ff0001                              CONST 000084BE
        __Constant_ff0000                              CONST 000084BA
        __Constant_7d                                  CONST 000084B6
        __Constant_ffffffe7                            CONST 000084B2
        halSetSleepMode::?relay                        CODE 00001312
        halSleep::?relay                               CODE 00001318
        halSleepSetTimer::?relay                       CODE 0000131E
        halSleepReadTimer::?relay                      CODE 00001324
        halRestoreSleepLevel::?relay                   CODE 0000132A
        IEN0                                           DATA 000000A8
        IEN1                                           DATA 000000B8
        IRCON                                          DATA 000000C0
        halPwrMgtMode                                  XDATA 00000AAC
        wakeForRF                                      XDATA 00000AAD
        ?Subroutine0                                   CODE 0001ADC1
hal_startup ( E:\TexasInstruments\BLE-CC254x-1.4.0\Projects\ble\SimpleBLEPeripheralzeke\CC2541DB\CC2541\Obj\hal_startup.r51 )
        __low_level_init                               CODE 00000086
hal_timer ( E:\TexasInstruments\BLE-CC254x-1.4.0\Projects\ble\SimpleBLEPeripheralzeke\CC2541DB\CC2541\Obj\hal_timer.r51 )
hal_uart ( E:\TexasInstruments\BLE-CC254x-1.4.0\Projects\ble\SimpleBLEPeripheralzeke\CC2541DB\CC2541\Obj\hal_uart.r51 )
        U0CSR                                          DATA 00000086
        U0DBUF                                         DATA 000000C1
        U0BAUD                                         DATA 000000C2
        U0UCR                                          DATA 000000C4
        U0GCR                                          DATA 000000C5
        sweepIdx                                       XDATA 00000C37
        port0Isr                                       CODE 00002AE5
        halUart0TxIsr                                  CODE 00002B20
        HalUARTInit                                    CODE 00019AF8
        HalUARTOpen                                    CODE 00019B01
        HalUARTRead                                    CODE 00019B71
        HalUARTPoll                                    CODE 00019B89
        Hal_UART_RxBufLen                              CODE 00019B92
        HalUARTIsrDMA                                  CODE 00019BA5
        halUart0TxIsr::??INTVEC 59                     CODE 0000003B
        port0Isr::??INTVEC 107                         CODE 0000006B
        HalUARTInit::?relay                            CODE 0000134E
        HalUARTOpen::?relay                            CODE 00001354
        HalUARTRead::?relay                            CODE 0000135A
        HalUARTPoll::?relay                            CODE 00001360
        Hal_UART_RxBufLen::?relay                      CODE 00001366
        HalUARTIsrDMA::?relay                          CODE 0000136C
        P0                                             DATA 00000080
        IEN0                                           DATA 000000A8
        IEN1                                           DATA 000000B8
        IRCON                                          DATA 000000C0
        IRCON2                                         DATA 000000E8
        dmaRdyIsr                                      XDATA 00000AAE
        dmaRdyDly                                      XDATA 00000AAF
        dmaCfg                                         XDATA 00000AB0
        HalUARTInitDMA                                 CODE 0001987A
        ?Subroutine0                                   CODE 00019910
        HalUARTReadDMA                                 CODE 00019915
        HalUARTPollDMA                                 CODE 00019999
        HalUARTRxAvailDMA                              CODE 00019A5B
        ?Subroutine3                                   CODE 00019ABB
        HalUARTBusyDMA                                 CODE 00019AD0
        ?Subroutine2                                   CODE 00019B6A
        ?Subroutine1                                   CODE 00019B84
        HalUARTInitDMA::?relay                         CODE 00001330
        HalUARTReadDMA::?relay                         CODE 00001336
        HalUARTPollDMA::?relay                         CODE 0000133C
        HalUARTRxAvailDMA::?relay                      CODE 00001342
        HalUARTBusyDMA::?relay                         CODE 00001348
npi ( E:\TexasInstruments\BLE-CC254x-1.4.0\Projects\ble\SimpleBLEPeripheralzeke\CC2541DB\CC2541\Obj\npi.r51 )
osal_bufmgr ( E:\TexasInstruments\BLE-CC254x-1.4.0\Projects\ble\SimpleBLEPeripheralzeke\CC2541DB\CC2541\Obj\osal_bufmgr.r51 )
        osal_bm_alloc                                  CODE 0001B80E
        osal_bm_free                                   CODE 0001B860
        osal_bm_adjust_header                          CODE 0001B8EA
        osal_bm_alloc::?relay                          CODE 00001372
        osal_bm_free::?relay                           CODE 00001378
        osal_bm_adjust_header::?relay                  CODE 0000137E
        IEN0                                           DATA 000000A8
        bm_list_ptr                                    XDATA 00000C38
        ?Subroutine0                                   CODE 0001B85B
        bm_desc_from_payload                           CODE 0001B951
        ?Subroutine2                                   CODE 0001B993
        ?Subroutine1                                   CODE 0001B99C
        bm_desc_from_payload::?relay                   CODE 00001384
osal_cbtimer ( E:\TexasInstruments\BLE-CC254x-1.4.0\Projects\ble\SimpleBLEPeripheralzeke\CC2541DB\CC2541\Obj\osal_cbtimer.r51 )
        baseTaskID                                     XDATA 00000F45
        cbTimers                                       XDATA 00000C3A
        osal_CbTimerInit                               CODE 0001AE74
        osal_CbTimerProcessEvent                       CODE 0001AE9E
        osal_CbTimerStart                              CODE 0001AF6C
        osal_CbTimerStop                               CODE 0001B047
        osal_CbTimerInit::?relay                       CODE 0000138A
        osal_CbTimerProcessEvent::?relay               CODE 00001390
        osal_CbTimerStart::?relay                      CODE 00001396
        osal_CbTimerStop::?relay                       CODE 0000139C
        ?Subroutine1                                   CODE 0001B030
        ?Subroutine0                                   CODE 0001B03D
osal_snv ( E:\TexasInstruments\BLE-CC254x-1.4.0\Projects\ble\SimpleBLEPeripheralzeke\CC2541DB\CC2541\Obj\osal_snv.r51 )
        _nvBuf                                         CODE 0003E800
        osal_snv_init                                  CODE 00015731
        osal_snv_write                                 CODE 00015748
        osal_snv_read                                  CODE 00015862
        osal_snv_compact                               CODE 000158A0
        __Constant_100000                              CONST 000084AE
        osal_snv_init::?relay                          CODE 000013E4
        osal_snv_write::?relay                         CODE 000013EA
        osal_snv_read::?relay                          CODE 000013F0
        osal_snv_compact::?relay                       CODE 000013F6
        activePg                                       XDATA 00000C76
        pgOff                                          XDATA 00000C77
        failF                                          XDATA 00000C79
        initNV                                         CODE 000150BC
        setActivePage                                  CODE 00015183
        ?Subroutine1                                   CODE 000151B0
        setXferPage                                    CODE 000151BA
        ?Subroutine7                                   CODE 000151DE
        erasePage                                      CODE 000151E4
        ?Subroutine4                                   CODE 00015236
        ?Subroutine0                                   CODE 0001523A
        cleanErasedPage                                CODE 00015244
        ?Subroutine8                                   CODE 0001528E
        findOffset                                     CODE 0001529A
        findItem                                       CODE 000152FF
        ?Subroutine10                                  CODE 0001538C
        writeItem                                      CODE 00015397
        ?Subroutine2                                   CODE 00015487
        ?Subroutine5                                   CODE 0001548C
        ?Subroutine12                                  CODE 0001549A
        compactPage                                    CODE 000154A6
        ?Subroutine9                                   CODE 00015634
        verifyWordM                                    CODE 0001563D
        ?Subroutine3                                   CODE 000156C2
        writeWord                                      CODE 000156CA
        ?Subroutine11                                  CODE 00015848
        ?Subroutine6                                   CODE 00015852
        initNV::?relay                                 CODE 000013A2
        setActivePage::?relay                          CODE 000013A8
        setXferPage::?relay                            CODE 000013AE
        erasePage::?relay                              CODE 000013B4
        cleanErasedPage::?relay                        CODE 000013BA
        findOffset::?relay                             CODE 000013C0
        findItem::?relay                               CODE 000013C6
        writeItem::?relay                              CODE 000013CC
        compactPage::?relay                            CODE 000013D2
        verifyWordM::?relay                            CODE 000013D8
        writeWord::?relay                              CODE 000013DE
peripheral ( E:\TexasInstruments\BLE-CC254x-1.4.0\Projects\ble\SimpleBLEPeripheralzeke\CC2541DB\CC2541\Obj\peripheral.r51 )
        GAPRole_SetParameter                           CODE 00010000
        GAPRole_GetParameter                           CODE 00010381
        GAPRole_StartDevice                            CODE 00010509
        GAPRole_TerminateConnection                    CODE 00010560
        GAPRole_Init                                   CODE 0001057F
        GAPRole_ProcessEvent                           CODE 000105FD
        GAPRole_SendUpdateParam                        CODE 00010D5C
        GAPRole_SetParameter::?relay                   CODE 000013FC
        GAPRole_GetParameter::?relay                   CODE 00001402
        GAPRole_StartDevice::?relay                    CODE 00001408
        GAPRole_TerminateConnection::?relay            CODE 0000140E
        GAPRole_Init::?relay                           CODE 00001414
        GAPRole_ProcessEvent::?relay                   CODE 0000141A
        GAPRole_SendUpdateParam::?relay                CODE 00001432
        gapRole_TaskID                                 XDATA 00000C7A
        gapRole_state                                  XDATA 00000C7B
        gapRole_profileRole                            XDATA 00000C7C
        gapRole_IRK                                    XDATA 00000C7D
        gapRole_SRK                                    XDATA 00000C8D
        gapRole_signCounter                            XDATA 00000C9D
        gapRole_bdAddr                                 XDATA 00000CA1
        gapRole_AdvEnabled                             XDATA 00000F47
        gapRole_AdvertOffTime                          XDATA 00000F48
        gapRole_AdvertDataLen                          XDATA 00000F4A
        gapRole_AdvertData                             XDATA 00000F4B
        gapRole_ScanRspDataLen                         XDATA 00000CA7
        gapRole_ScanRspData                            XDATA 00000CA8
        gapRole_AdvEventType                           XDATA 00000CC7
        gapRole_AdvDirectType                          XDATA 00000CC8
        gapRole_AdvDirectAddr                          XDATA 00000CC9
        gapRole_AdvChanMap                             XDATA 00000CCF
        gapRole_AdvFilterPolicy                        XDATA 00000CD0
        gapRole_ConnectionHandle                       XDATA 00000F6A
        gapRole_RSSIReadRate                           XDATA 00000CD1
        gapRole_ConnectedDevAddr                       XDATA 00000CD3
        gapRole_ParamUpdateEnable                      XDATA 00000CD9
        gapRole_MinConnInterval                        XDATA 00000F6C
        gapRole_MaxConnInterval                        XDATA 00000F6E
        gapRole_SlaveLatency                           XDATA 00000CDA
        gapRole_TimeoutMultiplier                      XDATA 00000F70
        gapRole_ConnInterval                           XDATA 00000CDC
        gapRole_ConnSlaveLatency                       XDATA 00000CDE
        gapRole_ConnTimeout                            XDATA 00000CE0
        paramUpdateNoSuccessOption                     XDATA 00000CE2
        pGapRoles_AppCGs                               XDATA 00000CE3
        pGapRoles_ParamUpdateCB                        XDATA 00000CE5
        ?Subroutine18                                  CODE 0001035F
        ?Subroutine15                                  CODE 00010367
        ?Subroutine3                                   CODE 00010373
        ?Subroutine12                                  CODE 000104F8
        ?Subroutine0                                   CODE 00010501
        ?Subroutine1                                   CODE 00010559
        ?Subroutine11                                  CODE 0001078D
        gapRole_ProcessOSALMsg                         CODE 00010793
        gapRole_ProcessGAPMsg                          CODE 00010878
        ?Subroutine14                                  CODE 00010C18
        ?Subroutine13                                  CODE 00010C1E
        ?Subroutine10                                  CODE 00010C2A
        ?Subroutine9                                   CODE 00010C33
        ?Subroutine17                                  CODE 00010C3B
        ?Subroutine8                                   CODE 00010C41
        ?Subroutine7                                   CODE 00010C4D
        ?Subroutine6                                   CODE 00010C59
        ?Subroutine5                                   CODE 00010C65
        ?Subroutine4                                   CODE 00010C74
        ?Subroutine2                                   CODE 00010C7D
        gapRole_startConnUpdate                        CODE 00010C86
        ?Subroutine16                                  CODE 00010DF6
        gapRole_ProcessOSALMsg::?relay                 CODE 00001420
        gapRole_ProcessGAPMsg::?relay                  CODE 00001426
        gapRole_startConnUpdate::?relay                CODE 0000142C
simpleBLEPeripheral ( E:\TexasInstruments\BLE-CC254x-1.4.0\Projects\ble\SimpleBLEPeripheralzeke\CC2541DB\CC2541\Obj\simpleBLEPeripheral.r51 )
        buf                                            XDATA 00000CFD
        SimpleBLEPeripheral_Init                       CODE 0000F970
        SimpleBLEPeripheral_ProcessEvent               CODE 0000FB83
        SimpleBLEPeripheral_Init::?relay               CODE 0000143E
        SimpleBLEPeripheral_ProcessEvent::?relay       CODE 00001444
        __Constant_1388                                CONST 0000849A
        P1                                             DATA 00000090
        U1CSR                                          DATA 000000F8
        gapConnHandle                                  XDATA 00000CE7
        newValueBuf                                    XDATA 00000CE9
        simpleBLEPeripheral_TaskID                     XDATA 00000D11
        gapProfileState                                XDATA 00000D12
        scanRspData                                    XDATA 00000F72
        advertData                                     XDATA 00000F90
        simpleBLEPeripheral_PeripheralCBs              XDATA 00000F97
        simpleBLEPeripheral_BondMgrCBs                 XDATA 00000F9B
        simpleBLEPeripheral_SimpleProfileCBs           XDATA 00000F9F
        simpleBLEPeripheralPairStateCB                 CODE 0000F8FD
        peripheralStateNotificationCB                  CODE 0000FCB8
        simpleProfileChangeCB                          CODE 0000FDE9
        ?Subroutine0                                   CODE 0000FE52
        bdAddr2Str                                     CODE 0000FE5A
        ?Subroutine1                                   CODE 0000FEBF
        bdAddr2Str::str                                XDATA 00000D13
        simpleBLEPeripheralPairStateCB::?relay         CODE 00001438
        peripheralStateNotificationCB::?relay          CODE 0000144A
        simpleProfileChangeCB::?relay                  CODE 00001450
        bdAddr2Str::?relay                             CODE 00001456
simpleGATTprofile ( E:\TexasInstruments\BLE-CC254x-1.4.0\Projects\ble\SimpleBLEPeripheralzeke\CC2541DB\CC2541\Obj\simpleGATTprofile.r51 )
        simpleProfileServUUID                          CONST 0000851D
        simpleProfilechar1UUID                         CONST 0000851F
        simpleProfilechar2UUID                         CONST 00008515
        simpleProfilechar3UUID                         CONST 0000850D
        simpleProfilechar4UUID                         CONST 0000850B
        simpleProfilechar5UUID                         CONST 00008509
        simpleProfileCBs                               CONST 0000847B
        SimpleProfile_AddService                       CODE 00018000
        SimpleProfile_RegisterAppCBs                   CODE 00018045
        SimpleProfile_SetParameter                     CODE 00018062
        SimpleProfile_GetParameter                     CODE 00018127
        SimpleProfile_AddService::?relay               CODE 0000145C
        SimpleProfile_RegisterAppCBs::?relay           CODE 00001462
        SimpleProfile_SetParameter::?relay             CODE 00001468
        SimpleProfile_GetParameter::?relay             CODE 0000146E
        simpleProfile_AppCBs                           XDATA 00000D22
        simpleProfileService                           CONST 000084D5
        simpleProfileChar1Props                        XDATA 00000FA1
        simpleProfileChar1                             XDATA 00000D24
        simpleProfileChar1UserDesp                     XDATA 00000FA2
        simpleProfileChar2Props                        XDATA 00000FB3
        simpleProfileChar2                             XDATA 00000D38
        simpleProfileChar2UserDesp                     XDATA 00000FB4
        simpleProfileChar3Props                        XDATA 00000FC5
        simpleProfileChar3                             XDATA 00000D39
        simpleProfileChar3UserDesp                     XDATA 00000FC6
        simpleProfileChar4Props                        XDATA 00000FD7
        simpleProfileChar4                             XDATA 00000D4D
        simpleProfileChar4Config                       XDATA 00000D4E
        simpleProfileChar4UserDesp                     XDATA 00000FD8
        simpleProfileChar5Props                        XDATA 00000FE9
        simpleProfileChar5                             XDATA 00000D54
        simpleProfileChar5UserDesp                     XDATA 00000FEA
        simpleProfileAttrTbl                           XDATA 00000FFB
        ?Subroutine0                                   CODE 0001803E
        ?Subroutine1                                   CODE 0001818B
        simpleProfile_ReadAttrCB                       CODE 00018190
        ?Subroutine2                                   CODE 0001826D
        simpleProfile_WriteAttrCB                      CODE 00018274
        ?Subroutine3                                   CODE 00018415
        ?Subroutine4                                   CODE 0001841A
        simpleProfile_HandleConnStatusCB               CODE 00018423
        simpleProfile_ReadAttrCB::?relay               CODE 00001474
        simpleProfile_WriteAttrCB::?relay              CODE 0000147A
        simpleProfile_HandleConnStatusCB::?relay       CODE 00001480
?cexit ( C:\Program Files\IAR Systems\Embedded Workbench 6.4\8051\LIB\CLIB\cl-pli-blxd-1e16x01.r51 )
        exit                                           CODE 00000091
        ?C_EXIT                                        CODE 00000091
        ?ROM_MONITOR_NOPS                              CODE 00000091
?cmain ( C:\Program Files\IAR Systems\Embedded Workbench 6.4\8051\LIB\CLIB\cl-pli-blxd-1e16x01.r51 )
        ?cmain                                         CODE 00000096
        __low_level_init_call                          CODE 00000096
        __INIT_DATA_Z                                  CODE 0000009F
        __INIT_IDATA_Z                                 CODE 000000AD
        __INIT_XDATA_Z                                 CODE 000000BB
        __INIT_DATA_I                                  CODE 000000CB
        __INIT_XDATA_I                                 CODE 000000DE
        ?call_main                                     CODE 00000107
CSTARTUP ( C:\Program Files\IAR Systems\Embedded Workbench 6.4\8051\LIB\CLIB\cl-pli-blxd-1e16x01.r51 )
        ?REGISTERS                                     DATA 00000000
        ?ISTACK_START                                  IDATA 00000038
        ?XSTACK_START                                  XDATA 00000001
        __program_start                                CODE 0000011D
        ?RESET_SP                                      CODE 00000120
        ?RESET_XSP                                     CODE 00000123
        ?RESET_CODE_BANK                               CODE 00000129
VIRTUAL_REGISTERS ( C:\Program Files\IAR Systems\Embedded Workbench 6.4\8051\LIB\CLIB\cl-pli-blxd-1e16x01.r51 )
        ?B0                                            BIT 00000020.0
        ?V0                                            DATA 00000008
        ?XSP                                           DATA 00000018
?BANKED_CODE_SUPPORT ( C:\Program Files\IAR Systems\Embedded Workbench 6.4\8051\LIB\CLIB\cl-pli-blxd-1e16x01.r51 )
        ?BCALL_FF                                      CODE 0000012F
        ?BRET_FF                                       CODE 00000135
        ?BDISPATCH_FF                                  CODE 00000138
?L_EQ_X ( C:\Program Files\IAR Systems\Embedded Workbench 6.4\8051\LIB\CLIB\cl-pli-blxd-1e16x01.r51 )
        ?L_EQ_X                                        CODE 0000149E
?L_EQ_C ( C:\Program Files\IAR Systems\Embedded Workbench 6.4\8051\LIB\CLIB\cl-pli-blxd-1e16x01.r51 )
?UL_GT ( C:\Program Files\IAR Systems\Embedded Workbench 6.4\8051\LIB\CLIB\cl-pli-blxd-1e16x01.r51 )
        ?UL_GT                                         CODE 000014B3
?UL_GT_X ( C:\Program Files\IAR Systems\Embedded Workbench 6.4\8051\LIB\CLIB\cl-pli-blxd-1e16x01.r51 )
        ?UL_GT_X                                       CODE 000014C3
?UL_GE_X ( C:\Program Files\IAR Systems\Embedded Workbench 6.4\8051\LIB\CLIB\cl-pli-blxd-1e16x01.r51 )
        ?UL_GE_X                                       CODE 000014D3
?L_TO_FLT ( C:\Program Files\IAR Systems\Embedded Workbench 6.4\8051\LIB\CLIB\cl-pli-blxd-1e16x01.r51 )
?FLT_TO_L ( C:\Program Files\IAR Systems\Embedded Workbench 6.4\8051\LIB\CLIB\cl-pli-blxd-1e16x01.r51 )
?FLT_TEST_ZERO ( C:\Program Files\IAR Systems\Embedded Workbench 6.4\8051\LIB\CLIB\cl-pli-blxd-1e16x01.r51 )
?FLT_TEST_ZERO_R1 ( C:\Program Files\IAR Systems\Embedded Workbench 6.4\8051\LIB\CLIB\cl-pli-blxd-1e16x01.r51 )
?FLT_TEST_INF ( C:\Program Files\IAR Systems\Embedded Workbench 6.4\8051\LIB\CLIB\cl-pli-blxd-1e16x01.r51 )
?FLT_TEST_INF_R1 ( C:\Program Files\IAR Systems\Embedded Workbench 6.4\8051\LIB\CLIB\cl-pli-blxd-1e16x01.r51 )
?FLT_TEST_NAN ( C:\Program Files\IAR Systems\Embedded Workbench 6.4\8051\LIB\CLIB\cl-pli-blxd-1e16x01.r51 )
?FLT_TEST_NAN_R1 ( C:\Program Files\IAR Systems\Embedded Workbench 6.4\8051\LIB\CLIB\cl-pli-blxd-1e16x01.r51 )
?FLT_ADD ( C:\Program Files\IAR Systems\Embedded Workbench 6.4\8051\LIB\CLIB\cl-pli-blxd-1e16x01.r51 )
?FLT_DIV ( C:\Program Files\IAR Systems\Embedded Workbench 6.4\8051\LIB\CLIB\cl-pli-blxd-1e16x01.r51 )
?L_MUL ( C:\Program Files\IAR Systems\Embedded Workbench 6.4\8051\LIB\CLIB\cl-pli-blxd-1e16x01.r51 )
        ?L_MUL                                         CODE 000014F2
        ?L_MUL_REW                                     CODE 000014F5
?UL_DIV_MOD ( C:\Program Files\IAR Systems\Embedded Workbench 6.4\8051\LIB\CLIB\cl-pli-blxd-1e16x01.r51 )
        ?UL_DIV_MOD                                    CODE 00001572
?L_NEG ( C:\Program Files\IAR Systems\Embedded Workbench 6.4\8051\LIB\CLIB\cl-pli-blxd-1e16x01.r51 )
?UL_SHR ( C:\Program Files\IAR Systems\Embedded Workbench 6.4\8051\LIB\CLIB\cl-pli-blxd-1e16x01.r51 )
        ?UL_SHR                                        CODE 000015E2
?L_SHL ( C:\Program Files\IAR Systems\Embedded Workbench 6.4\8051\LIB\CLIB\cl-pli-blxd-1e16x01.r51 )
        ?L_SHL                                         CODE 000015FB
        ?L_SHL_REW                                     CODE 00001601
?L_ADD ( C:\Program Files\IAR Systems\Embedded Workbench 6.4\8051\LIB\CLIB\cl-pli-blxd-1e16x01.r51 )
        ?L_ADD                                         CODE 0000161A
?L_ADD_X ( C:\Program Files\IAR Systems\Embedded Workbench 6.4\8051\LIB\CLIB\cl-pli-blxd-1e16x01.r51 )
        ?L_ADD_X                                       CODE 0000162D
?L_ADD_TO_X ( C:\Program Files\IAR Systems\Embedded Workbench 6.4\8051\LIB\CLIB\cl-pli-blxd-1e16x01.r51 )
        ?L_ADD_TO_X                                    CODE 00001640
?L_SUB ( C:\Program Files\IAR Systems\Embedded Workbench 6.4\8051\LIB\CLIB\cl-pli-blxd-1e16x01.r51 )
        ?L_SUB                                         CODE 00001653
?L_SUB_FROM_X ( C:\Program Files\IAR Systems\Embedded Workbench 6.4\8051\LIB\CLIB\cl-pli-blxd-1e16x01.r51 )
        ?L_SUB_FROM_X                                  CODE 00001667
?L_AND ( C:\Program Files\IAR Systems\Embedded Workbench 6.4\8051\LIB\CLIB\cl-pli-blxd-1e16x01.r51 )
        ?L_AND                                         CODE 0000167B
?L_AND_X ( C:\Program Files\IAR Systems\Embedded Workbench 6.4\8051\LIB\CLIB\cl-pli-blxd-1e16x01.r51 )
        ?L_AND_X                                       CODE 0000168E
?L_AND_TO_X ( C:\Program Files\IAR Systems\Embedded Workbench 6.4\8051\LIB\CLIB\cl-pli-blxd-1e16x01.r51 )
        ?L_AND_TO_X                                    CODE 000016A1
?L_IOR ( C:\Program Files\IAR Systems\Embedded Workbench 6.4\8051\LIB\CLIB\cl-pli-blxd-1e16x01.r51 )
?L_IOR_X ( C:\Program Files\IAR Systems\Embedded Workbench 6.4\8051\LIB\CLIB\cl-pli-blxd-1e16x01.r51 )
?L_MOV_X ( C:\Program Files\IAR Systems\Embedded Workbench 6.4\8051\LIB\CLIB\cl-pli-blxd-1e16x01.r51 )
        ?L_MOV_X                                       CODE 000016B4
?L_MOV_TO_X ( C:\Program Files\IAR Systems\Embedded Workbench 6.4\8051\LIB\CLIB\cl-pli-blxd-1e16x01.r51 )
        ?L_MOV_TO_X                                    CODE 000016C3
?XLOAD_R2345 ( C:\Program Files\IAR Systems\Embedded Workbench 6.4\8051\LIB\CLIB\cl-pli-blxd-1e16x01.r51 )
        ?XLOAD_R2345                                   CODE 000016D2
?XSTORE_R2345 ( C:\Program Files\IAR Systems\Embedded Workbench 6.4\8051\LIB\CLIB\cl-pli-blxd-1e16x01.r51 )
        ?XSTORE_R2345                                  CODE 000016DE
?MOVE_LONG8_XDATA_IDATA ( C:\Program Files\IAR Systems\Embedded Workbench 6.4\8051\LIB\CLIB\cl-pli-blxd-1e16x01.r51 )
        ?MOVE_LONG8_XDATA_IDATA                        CODE 000016EA
?MOVE_LONG8_XDATA_XDATA ( C:\Program Files\IAR Systems\Embedded Workbench 6.4\8051\LIB\CLIB\cl-pli-blxd-1e16x01.r51 )
        ?MOVE_LONG8_XDATA_XDATA                        CODE 000016F7
iar_move_long_fg ( C:\Program Files\IAR Systems\Embedded Workbench 6.4\8051\LIB\CLIB\cl-pli-blxd-1e16x01.r51 )
?S_DIV_MOD ( C:\Program Files\IAR Systems\Embedded Workbench 6.4\8051\LIB\CLIB\cl-pli-blxd-1e16x01.r51 )
        ?S_DIV_MOD                                     CODE 00001751
        ?US_DIV_MOD                                    CODE 00001759
?SS_SHR ( C:\Program Files\IAR Systems\Embedded Workbench 6.4\8051\LIB\CLIB\cl-pli-blxd-1e16x01.r51 )
        ?SS_SHR                                        CODE 000017B2
?US_SHR ( C:\Program Files\IAR Systems\Embedded Workbench 6.4\8051\LIB\CLIB\cl-pli-blxd-1e16x01.r51 )
        ?US_SHR                                        CODE 000017C2
?S_SHL ( C:\Program Files\IAR Systems\Embedded Workbench 6.4\8051\LIB\CLIB\cl-pli-blxd-1e16x01.r51 )
        ?S_SHL                                         CODE 000017D1
        ?S_SHL_REW                                     CODE 000017D4
?ALLOC_XSTACK8 ( C:\Program Files\IAR Systems\Embedded Workbench 6.4\8051\LIB\CLIB\cl-pli-blxd-1e16x01.r51 )
        ?ALLOC_XSTACK8                                 CODE 000017E4
?DEALLOC_XSTACK8 ( C:\Program Files\IAR Systems\Embedded Workbench 6.4\8051\LIB\CLIB\cl-pli-blxd-1e16x01.r51 )
        ?DEALLOC_XSTACK8                               CODE 000017FA
?ADD_XSTACK_DISP8 ( C:\Program Files\IAR Systems\Embedded Workbench 6.4\8051\LIB\CLIB\cl-pli-blxd-1e16x01.r51 )
        ?ADD_XSTACK_DISP0_8                            CODE 00001814
?XSTACK_DISP8 ( C:\Program Files\IAR Systems\Embedded Workbench 6.4\8051\LIB\CLIB\cl-pli-blxd-1e16x01.r51 )
        ?XSTACK_DISP0_8                                CODE 0000182F
?CALL_IND ( C:\Program Files\IAR Systems\Embedded Workbench 6.4\8051\LIB\CLIB\cl-pli-blxd-1e16x01.r51 )
        ?CALL_IND                                      CODE 00001839
?BANKED_ENTER_XDATA ( C:\Program Files\IAR Systems\Embedded Workbench 6.4\8051\LIB\CLIB\cl-pli-blxd-1e16x01.r51 )
        ?BANKED_ENTER_XDATA                            CODE 0000183B
?FUNC_ENTER_XDATA ( C:\Program Files\IAR Systems\Embedded Workbench 6.4\8051\LIB\CLIB\cl-pli-blxd-1e16x01.r51 )
        ?FUNC_ENTER_XDATA                              CODE 000018A7
?BANKED_LEAVE_XDATA ( C:\Program Files\IAR Systems\Embedded Workbench 6.4\8051\LIB\CLIB\cl-pli-blxd-1e16x01.r51 )
        ?BANKED_LEAVE_XDATA                            CODE 0000190D
?FUNC_LEAVE_XDATA ( C:\Program Files\IAR Systems\Embedded Workbench 6.4\8051\LIB\CLIB\cl-pli-blxd-1e16x01.r51 )
        ?FUNC_LEAVE_XDATA                              CODE 00001953
?INTERRUPT_ENTER_XSP ( C:\Program Files\IAR Systems\Embedded Workbench 6.4\8051\LIB\CLIB\cl-pli-blxd-1e16x01.r51 )
        ?INTERRUPT_ENTER_XSP                           CODE 00001993
?INTERRUPT_LEAVE_XSP ( C:\Program Files\IAR Systems\Embedded Workbench 6.4\8051\LIB\CLIB\cl-pli-blxd-1e16x01.r51 )
        ?INTERRUPT_LEAVE_XSP                           CODE 000019F2
iar_stack_enter_leave_dptr ( C:\Program Files\IAR Systems\Embedded Workbench 6.4\8051\LIB\CLIB\cl-pli-blxd-1e16x01.r51 )
?PUSH_XSTACK_I ( C:\Program Files\IAR Systems\Embedded Workbench 6.4\8051\LIB\CLIB\cl-pli-blxd-1e16x01.r51 )
        ?PUSH_XSTACK_I_FOUR                            CODE 00001A4A
        ?PUSH_XSTACK_I_TWO                             CODE 00001A4E
        ?PUSH_XSTACK_I_ONE                             CODE 00001A52
        ?PUSH_XSTACK_I                                 CODE 00001A54
?PUSH_XSTACK8_X ( C:\Program Files\IAR Systems\Embedded Workbench 6.4\8051\LIB\CLIB\cl-pli-blxd-1e16x01.r51 )
        ?PUSH_XSTACK8_X_FOUR                           CODE 00001A61
        ?PUSH_XSTACK8_X_TWO                            CODE 00001A65
        ?PUSH_XSTACK8_X                                CODE 00001A69
?US_SWITCH_DENSE ( C:\Program Files\IAR Systems\Embedded Workbench 6.4\8051\LIB\CLIB\cl-pli-blxd-1e16x01.r51 )
        ?US_SWITCH_DENSE                               CODE 00001A92
?US_SWITCH_SPARSE ( C:\Program Files\IAR Systems\Embedded Workbench 6.4\8051\LIB\CLIB\cl-pli-blxd-1e16x01.r51 )
        ?US_SWITCH_SPARSE                              CODE 00001AD8
        ?US_SWITCH_SPARSE_LEAVE                        CODE 00001B14
?US_JMP_IF_IN_RANGE ( C:\Program Files\IAR Systems\Embedded Workbench 6.4\8051\LIB\CLIB\cl-pli-blxd-1e16x01.r51 )
        ?US_JMP_IF_IN_RANGE                            CODE 00001B24
?US_JMP_IF_VALUE ( C:\Program Files\IAR Systems\Embedded Workbench 6.4\8051\LIB\CLIB\cl-pli-blxd-1e16x01.r51 )
        ?US_JMP_IF_VALUE                               CODE 00001B63
?memset ( C:\Program Files\IAR Systems\Embedded Workbench 6.4\8051\LIB\CLIB\cl-pli-blxd-1e16x01.r51 )
        memset                                         CODE 0001C5A1
        memset::?relay                                 CODE 00001486
?strcat ( C:\Program Files\IAR Systems\Embedded Workbench 6.4\8051\LIB\CLIB\cl-pli-blxd-1e16x01.r51 )
        strcat                                         CODE 0001C56B
        strcat::?relay                                 CODE 0000148C
?strcpy ( C:\Program Files\IAR Systems\Embedded Workbench 6.4\8051\LIB\CLIB\cl-pli-blxd-1e16x01.r51 )
        strcpy                                         CODE 0001C5CD
        strcpy::?relay                                 CODE 00001492
?strlen ( C:\Program Files\IAR Systems\Embedded Workbench 6.4\8051\LIB\CLIB\cl-pli-blxd-1e16x01.r51 )
        strlen                                         CODE 00007FDA
        strlen::?relay                                 CODE 00001498


                ****************************************
                *                                      *
                *              CALL GRAPH              *
                *                                      *
                ****************************************

  ->Sub-tree of type: Interrupt function tree that does not make
                    : indirect calls
                             XSTACK   ISTACK
    | Stack used (prev) :  00000000 00000000
  02    osal_set_event
        | Stack used (prev) :  00000000 00000000
        | + function block  :  00000017 00000000
  02    PHY_SetRfFreq
        | Stack used (prev) :  00000000 00000000
        | + function block  :  00000000 00000002
  02    PHY_GetEndCause
        | Stack used (prev) :  00000000 00000000
        | + function block  :  00000000 00000002
  02    PHY_SetEndConnection
        | Stack used (prev) :  00000000 00000000
        | + function block  :  00000000 00000002
  02    llDisableT2E1
        | Stack used (prev) :  00000000 00000000
        | + function block  :  00000000 00000000
  02    llDisableT2IntsEvts
        | Stack used (prev) :  00000000 00000000
        | + function block  :  00000000 00000000
  02    llDisableT2Ints
        | Stack used (prev) :  00000000 00000000
        | + function block  :  00000000 00000000
  04        osal_mem_free
            | Stack used (prev) :  00000000 00000000
            | + function block  :  0000000A 00000002
  03      osal_bm_free
          | Stack used (prev) :  0000000A 00000002
          | + function block  :  00000014 00000000
  06            LL_ENC_LoadEmptyIV
                | Stack used (prev) :  00000000 00000000
                | + function block  :  0000002B 00000002
  05          LL_ENC_GenerateMIC
              | Stack used (prev) :  0000002B 00000002
              | + function block  :  00000076 00000000
  05          LL_ENC_EncryptMsg
              | Stack used (prev) :  00000000 00000000
              | + function block  :  00000044 00000001
  04        LL_ENC_Encrypt
            | Stack used (prev) :  000000A1 00000002
            | + function block  :  0000003A 00000000
  03      llWriteTxData
          | Stack used (prev) :  000000DB 00000002
          | + function block  :  00000029 00000000
  06            osal_set_event
                | Stack used (prev) :  00000000 00000000
                | + function block  :  00000017 00000000
                |  Already listed
  06            osal_msg_push
                | Stack used (prev) :  00000000 00000000
                | + function block  :  00000012 00000000
  06            osal_msg_enqueue
                | Stack used (prev) :  00000000 00000000
                | + function block  :  00000012 00000000
  07              osal_mem_free
                  | Stack used (prev) :  00000000 00000000
                  | + function block  :  0000000A 00000002
                  |  Already listed
  06            osal_msg_deallocate
                | Stack used (prev) :  0000000A 00000002
                | + function block  :  00000009 00000004
  06            osal_msg_deallocate
                | Stack used (prev) :  0000000A 00000002
                | + function block  :  00000009 00000004
                |  Already listed
  05          osal_msg_enqueue_push
              | Stack used (prev) :  00000017 00000006
              | + function block  :  0000001B 00000000
  04        osal_msg_send
            | Stack used (prev) :  00000032 00000006
            | + function block  :  00000012 00000000
  05          osal_mem_alloc
              | Stack used (prev) :  00000000 00000000
              | + function block  :  00000018 00000000
  04        osal_msg_allocate
            | Stack used (prev) :  00000018 00000000
            | + function block  :  00000014 00000000
  03      HCI_NumOfCompletedPacketsEvent
          | Stack used (prev) :  00000044 00000006
          | + function block  :  00000024 00000000
  02    llProcessTxData
        | Stack used (prev) :  00000104 00000006
        | + function block  :  00000022 00000000
  03      osal_bm_free
          | Stack used (prev) :  0000000A 00000002
          | + function block  :  00000014 00000000
          |  Already listed
  03      PHY_DeallocateRxFifo
          | Stack used (prev) :  00000000 00000000
          | + function block  :  00000000 00000000
  03      PHY_RetryRxFifo
          | Stack used (prev) :  00000000 00000000
          | + function block  :  00000000 00000000
  04        LL_ENC_GenDeviceIV
            | Stack used (prev) :  00000000 00000000
            | + function block  :  00000000 00000003
  04        LL_ENC_GenDeviceSKD
            | Stack used (prev) :  00000000 00000000
            | + function block  :  00000000 00000003
  04        LL_ENC_ReverseBytes
            | Stack used (prev) :  00000000 00000000
            | + function block  :  0000000A 00000001
  04        llMemCopySrc
            | Stack used (prev) :  00000000 00000000
            | + function block  :  00000009 00000001
  06            ll24BitTimeDelta
                | Stack used (prev) :  00000000 00000000
                | + function block  :  00000017 00000000
  06            ll24BitTimeCompare
                | Stack used (prev) :  00000000 00000000
                | + function block  :  00000017 00000000
  06            llGetCurrentTime
                | Stack used (prev) :  00000000 00000000
                | + function block  :  00000004 00000003
  07              LL_ENC_MoveData
                  | Stack used (prev) :  00000000 00000000
                  | + function block  :  00000002 00000002
  06            llRestoreConnState
                | Stack used (prev) :  00000002 00000002
                | + function block  :  0000003A 00000000
  06            llRestoreConnState
                | Stack used (prev) :  00000002 00000002
                | + function block  :  0000003A 00000000
                |  Already listed
  07              PHY_CommitRxFifo
                  | Stack used (prev) :  00000000 00000000
                  | + function block  :  00000000 00000000
  07              PHY_RetryRxFifo
                  | Stack used (prev) :  00000000 00000000
                  | + function block  :  00000000 00000000
                  |  Already listed
  06            llSave_rxFIFO
                | Stack used (prev) :  00000000 00000000
                | + function block  :  0000002E 00000001
  06            llSave_rxFIFO
                | Stack used (prev) :  00000000 00000000
                | + function block  :  0000002E 00000001
                |  Already listed
  07              PHY_RetryTxFifo
                  | Stack used (prev) :  00000000 00000000
                  | + function block  :  00000000 00000000
  06            llSave_txFIFO
                | Stack used (prev) :  00000000 00000000
                | + function block  :  0000002E 00000001
  06            llSave_txFIFO
                | Stack used (prev) :  00000000 00000000
                | + function block  :  0000002E 00000001
                |  Already listed
  07              ll24BitTimeCompare
                  | Stack used (prev) :  00000000 00000000
                  | + function block  :  00000017 00000000
                  |  Already listed
  06            llFindNextSecTask
                | Stack used (prev) :  00000017 00000000
                | + function block  :  00000042 00000000
  06            llFindNextSecTask
                | Stack used (prev) :  00000017 00000000
                | + function block  :  00000042 00000000
                |  Already listed
  06            llFindNextSecTask
                | Stack used (prev) :  00000017 00000000
                | + function block  :  00000042 00000000
                |  Already listed
  09                  osalFindTimer
                      | Stack used (prev) :  00000000 00000000
                      | + function block  :  00000010 00000002
  09                  osal_mem_alloc
                      | Stack used (prev) :  00000000 00000000
                      | + function block  :  00000018 00000000
                      |  Already listed
  08                osalAddTimer
                    | Stack used (prev) :  00000018 00000002
                    | + function block  :  00000032 00000000
  07              osal_start_timerEx
                  | Stack used (prev) :  0000004A 00000002
                  | + function block  :  00000024 00000000
  09                  osal_mem_free
                      | Stack used (prev) :  00000000 00000000
                      | + function block  :  0000000A 00000002
                      |  Already listed
  09                  osal_set_event
                      | Stack used (prev) :  00000000 00000000
                      | + function block  :  00000017 00000000
                      |  Already listed
  08                osalTimerUpdate
                    | Stack used (prev) :  00000017 00000002
                    | + function block  :  00000046 00000000
  08                ll_McuPrecisionCount
                    | Stack used (prev) :  00000000 00000000
                    | + function block  :  00000002 00000003
  07              osalTimeUpdate
                  | Stack used (prev) :  0000005D 00000003
                  | + function block  :  0000001C 00000000
  07              PHY_Reset
                  | Stack used (prev) :  00000000 00000000
                  | + function block  :  00000000 00000002
  07              ll24BitTimeDelta
                  | Stack used (prev) :  00000000 00000000
                  | + function block  :  00000017 00000000
                  |  Already listed
  07              llGetCurrentTime
                  | Stack used (prev) :  00000000 00000000
                  | + function block  :  00000004 00000003
                  |  Already listed
  07              llSetT2OVFC2Event2
                  | Stack used (prev) :  00000000 00000000
                  | + function block  :  00000010 00000000
  07              llSetT2LongC1Event1
                  | Stack used (prev) :  00000000 00000000
                  | + function block  :  00000006 00000002
  07              llSetT2LongC1Timeout
                  | Stack used (prev) :  00000000 00000000
                  | + function block  :  00000006 00000002
  06            llScheduleTask
                | Stack used (prev) :  00000079 00000003
                | + function block  :  0000003A 00000000
  06            llScheduleTask
                | Stack used (prev) :  00000079 00000003
                | + function block  :  0000003A 00000000
                |  Already listed
  06            llScheduleTask
                | Stack used (prev) :  00000079 00000003
                | + function block  :  0000003A 00000000
                |  Already listed
  06            llScheduleTask
                | Stack used (prev) :  00000079 00000003
                | + function block  :  0000003A 00000000
                |  Already listed
  06            llScheduleTask
                | Stack used (prev) :  00000079 00000003
                | + function block  :  0000003A 00000000
                |  Already listed
  06            llScheduleTask
                | Stack used (prev) :  00000079 00000003
                | + function block  :  0000003A 00000000
                |  Already listed
  06            llScheduleTask
                | Stack used (prev) :  00000079 00000003
                | + function block  :  0000003A 00000000
                |  Already listed
  06            LL_ENC_MoveData
                | Stack used (prev) :  00000000 00000000
                | + function block  :  00000002 00000002
                |  Already listed
  06            llGetNextConn
                | Stack used (prev) :  00000000 00000000
                | + function block  :  00000000 00000002
  06            llProcessTxData
                | Stack used (prev) :  00000104 00000006
                | + function block  :  00000022 00000000
                |  Already listed
  07              PHY_ConfigureAppendRfStatus
                  | Stack used (prev) :  00000000 00000000
                  | + function block  :  00000000 00000002
  07              PHY_SetSyncWord
                  | Stack used (prev) :  00000000 00000000
                  | + function block  :  00000010 00000000
  07              PHY_SetAdvChans
                  | Stack used (prev) :  00000000 00000000
                  | + function block  :  00000000 00000002
  07              PHY_SetCRCInit
                  | Stack used (prev) :  00000000 00000000
                  | + function block  :  00000010 00000000
  07              PHY_SetOwnAddr
                  | Stack used (prev) :  00000000 00000000
                  | + function block  :  00000000 00000002
  07              llSetupScannableAdvEvt
                  | Stack used (prev) :  00000000 00000000
                  | + function block  :  00000009 00000000
  07              llSetupNonConnectableAdvEvt
                  | Stack used (prev) :  00000000 00000000
                  | + function block  :  00000009 00000000
  07              llSetupUndirectedAdvEvt
                  | Stack used (prev) :  00000000 00000000
                  | + function block  :  00000009 00000000
  08                PHY_SetPeerAddr
                    | Stack used (prev) :  00000000 00000000
                    | + function block  :  00000000 00000002
  07              llSetupDirectedAdvEvt
                  | Stack used (prev) :  00000000 00000002
                  | + function block  :  00000020 00000000
  06            llSetupAdv
                | Stack used (prev) :  00000020 00000002
                | + function block  :  00000000 00000004
  09                  PHY_ConfigWhitener
                      | Stack used (prev) :  00000000 00000000
                      | + function block  :  00000000 00000002
  08                llRfInit
                    | Stack used (prev) :  00000000 00000002
                    | + function block  :  00000000 00000004
  07              LL_ENC_GenerateTrueRandNum
                  | Stack used (prev) :  00000000 00000006
                  | + function block  :  00000016 00000000
  07              llExtendRfRange
                  | Stack used (prev) :  00000000 00000000
                  | + function block  :  00000008 00000002
  10                    osal_msg_send
                        | Stack used (prev) :  00000032 00000006
                        | + function block  :  00000012 00000000
                        |  Already listed
  10                    osal_msg_allocate
                        | Stack used (prev) :  00000018 00000000
                        | + function block  :  00000014 00000000
                        |  Already listed
  10                    osal_memcpy
                        | Stack used (prev) :  00000000 00000000
                        | + function block  :  00000019 00000001
  09                  HCI_SendCommandCompleteEvent
                      | Stack used (prev) :  00000044 00000006
                      | + function block  :  00000030 00000000
  08                HCI_VendorSpecifcCommandCompleteEvent
                    | Stack used (prev) :  00000074 00000006
                    | + function block  :  00000018 00000000
  07              LL_EXT_ExtendRfRangeCback
                  | Stack used (prev) :  0000008C 00000006
                  | + function block  :  00000006 00000004
  08                HCI_VendorSpecifcCommandCompleteEvent
                    | Stack used (prev) :  00000074 00000006
                    | + function block  :  00000018 00000000
                    |  Already listed
  07              LL_EXT_SetTxPowerCback
                  | Stack used (prev) :  0000008C 00000006
                  | + function block  :  00000006 00000004
  08                HCI_VendorSpecifcCommandCompleteEvent
                    | Stack used (prev) :  00000074 00000006
                    | + function block  :  00000018 00000000
                    |  Already listed
  07              LL_EXT_SetRxGainCback
                  | Stack used (prev) :  0000008C 00000006
                  | + function block  :  00000006 00000004
  08                osal_memcpy
                    | Stack used (prev) :  00000000 00000000
                    | + function block  :  00000019 00000001
                    |  Already listed
  09                  osal_msg_send
                      | Stack used (prev) :  00000032 00000006
                      | + function block  :  00000012 00000000
                      |  Already listed
  09                  osal_msg_allocate
                      | Stack used (prev) :  00000018 00000000
                      | + function block  :  00000014 00000000
                      |  Already listed
  09                  osal_memcpy
                      | Stack used (prev) :  00000000 00000000
                      | + function block  :  00000019 00000001
                      |  Already listed
  09                  HCI_SendCommandCompleteEvent
                      | Stack used (prev) :  00000044 00000006
                      | + function block  :  00000030 00000000
                      |  Already listed
  08                HCI_CommandCompleteEvent
                    | Stack used (prev) :  00000074 00000006
                    | + function block  :  0000002B 00000000
  07              LL_RandCback
                  | Stack used (prev) :  0000009F 00000006
                  | + function block  :  00000026 00000000
  06            llProcessPostRfOps
                | Stack used (prev) :  000000C5 0000000A
                | + function block  :  00000010 00000004
  05          llScheduler
              | Stack used (prev) :  00000126 0000000E
              | + function block  :  00000034 00000000
  06            osal_bm_free
                | Stack used (prev) :  0000000A 00000002
                | + function block  :  00000014 00000000
                |  Already listed
  06            PHY_SetEndConnection
                | Stack used (prev) :  00000000 00000000
                | + function block  :  00000000 00000002
                |  Already listed
  06            llFreeTask
                | Stack used (prev) :  00000000 00000000
                | + function block  :  00000000 00000002
  05          llConnCleanup
              | Stack used (prev) :  0000001E 00000002
              | + function block  :  00000025 00000000
  06            osal_msg_send
                | Stack used (prev) :  00000032 00000006
                | + function block  :  00000012 00000000
                |  Already listed
  06            osal_msg_allocate
                | Stack used (prev) :  00000018 00000000
                | + function block  :  00000014 00000000
                |  Already listed
  05          LL_DisconnectCback
              | Stack used (prev) :  00000044 00000006
              | + function block  :  00000018 00000000
  04        llConnTerminate
            | Stack used (prev) :  0000015A 0000000E
            | + function block  :  00000012 00000000
  04        llEnqueueCtrlPkt
            | Stack used (prev) :  00000000 00000000
            | + function block  :  0000000B 00000001
  03      llProcessSlaveControlPacket
          | Stack used (prev) :  0000016C 0000000E
          | + function block  :  00000028 00000000
  03      llScheduler
          | Stack used (prev) :  00000126 0000000E
          | + function block  :  00000034 00000000
          |  Already listed
  04        LL_ENC_GenerateMIC
            | Stack used (prev) :  0000002B 00000002
            | + function block  :  00000076 00000000
            |  Already listed
  04        LL_ENC_DecryptMsg
            | Stack used (prev) :  00000000 00000000
            | + function block  :  00000048 00000001
  03      LL_ENC_Decrypt
          | Stack used (prev) :  000000A1 00000002
          | + function block  :  00000042 00000000
  03      LL_ENC_MoveData
          | Stack used (prev) :  00000000 00000000
          | + function block  :  00000002 00000002
          |  Already listed
  03      llConnCleanup
          | Stack used (prev) :  0000001E 00000002
          | + function block  :  00000025 00000000
          |  Already listed
  03      llConnCleanup
          | Stack used (prev) :  0000001E 00000002
          | + function block  :  00000025 00000000
          |  Already listed
  05          osal_mem_alloc
              | Stack used (prev) :  00000000 00000000
              | + function block  :  00000018 00000000
              |  Already listed
  04        osal_bm_alloc
            | Stack used (prev) :  00000018 00000000
            | + function block  :  00000018 00000000
  03      LL_RX_bm_alloc
          | Stack used (prev) :  00000030 00000000
          | + function block  :  00000014 00000000
  03      LL_DisconnectCback
          | Stack used (prev) :  00000044 00000006
          | + function block  :  00000018 00000000
          |  Already listed
  04        osal_bm_free
            | Stack used (prev) :  0000000A 00000002
            | + function block  :  00000014 00000000
            |  Already listed
  04        osal_msg_send
            | Stack used (prev) :  00000032 00000006
            | + function block  :  00000012 00000000
            |  Already listed
  04        osal_msg_allocate
            | Stack used (prev) :  00000018 00000000
            | + function block  :  00000014 00000000
            |  Already listed
  04        LL_CtrlToHostFlowControl
            | Stack used (prev) :  00000000 00000000
            | + function block  :  00000000 00000002
  03      LL_RxDataCompleteCback
          | Stack used (prev) :  00000044 00000006
          | + function block  :  0000001E 00000000
  02    llProcessRxData
        | Stack used (prev) :  00000194 0000000E
        | + function block  :  00000022 00000000
  02    llProcessPostRfOps
        | Stack used (prev) :  000000C5 0000000A
        | + function block  :  00000010 00000004
        |  Already listed
  01  RF_NormalIsr
      | Stack used (prev) :  000001B6 0000000E
      | + function block  :  00000000 00000020
  <-Sub-tree of type: Interrupt function tree that does not make
                    : indirect calls
    | Stack used          :  000001B6 0000002E


  ->Sub-tree of type: Interrupt function tree that does not make
                    : indirect calls
                             XSTACK   ISTACK
    | Stack used (prev) :  000001B6 0000002E
  01  RF_ErrorIsr
      | Stack used (prev) :  000001B6 0000002E
      | + function block  :  00000000 00000004
  <-Sub-tree of type: Interrupt function tree that does not make
                    : indirect calls
    | Stack used          :  000001B6 00000032


  ->Sub-tree of type: Interrupt function tree that does not make
                    : indirect calls
                             XSTACK   ISTACK
    | Stack used (prev) :  000001B6 00000032
  04        osalDeleteTimer
            | Stack used (prev) :  000001B6 00000032
            | + function block  :  0000000C 00000002
  04        osalFindTimer
            | Stack used (prev) :  00000000 00000000
            | + function block  :  00000010 00000002
            |  Already listed
  03      osal_stop_timerEx
          | Stack used (prev) :  000001C2 00000034
          | + function block  :  00000018 00000000
  03      osal_clear_event
          | Stack used (prev) :  000001B6 00000032
          | + function block  :  00000017 00000000
  03      llSetT2C1Event1
          | Stack used (prev) :  000001B6 00000032
          | + function block  :  00000002 00000002
  03      llGetCurrentTask
          | Stack used (prev) :  000001B6 00000032
          | + function block  :  00000000 00000002
  03      HaltMcuUsingPhyFlag
          | Stack used (prev) :  000001B6 00000032
          | + function block  :  00000000 00000000
  02    llT2OVFC1_ISR
        | Stack used (prev) :  000001DA 00000034
        | + function block  :  00000010 00000000
  01  T2_Isr
      | Stack used (prev) :  000001EA 00000034
      | + function block  :  00000000 00000012
  <-Sub-tree of type: Interrupt function tree that does not make
                    : indirect calls
    | Stack used          :  000001EA 00000046


  ->Sub-tree of type: Interrupt function tree that does not make
                    : indirect calls
                             XSTACK   ISTACK
    | Stack used (prev) :  000001EA 00000046
  05          i2cMstStrt
              | Stack used (prev) :  000001EA 00000046
              | + function block  :  0000000A 00000002
  04        HalI2CWrite
            | Stack used (prev) :  000001F4 00000048
            | + function block  :  00000012 00000000
  05          i2cMstStrt
              | Stack used (prev) :  000001EA 00000046
              | + function block  :  0000000A 00000002
              |  Already listed
  04        HalI2CRead
            | Stack used (prev) :  000001F4 00000048
            | + function block  :  00000014 00000000
  03      HalSensorReadReg
          | Stack used (prev) :  00000208 00000048
          | + function block  :  00000021 00000000
  03      HalI2CInit
          | Stack used (prev) :  000001EA 00000046
          | + function block  :  00000000 00000002
  08                HalLcd_HW_Write
                    | Stack used (prev) :  000001EA 00000046
                    | + function block  :  0000000D 00000000
  08                HalLcd_HW_Write
                    | Stack used (prev) :  000001EA 00000046
                    | + function block  :  0000000D 00000000
                    |  Already listed
  08                HalLcd_HW_Write
                    | Stack used (prev) :  000001EA 00000046
                    | + function block  :  0000000D 00000000
                    |  Already listed
  09                  HalLcd_HW_WaitUs
                      | Stack used (prev) :  000001EA 00000046
                      | + function block  :  00000009 00000000
  09                  HalLcd_HW_WaitUs
                      | Stack used (prev) :  000001EA 00000046
                      | + function block  :  00000009 00000000
                      |  Already listed
  09                  HalLcd_HW_WaitUs
                      | Stack used (prev) :  000001EA 00000046
                      | + function block  :  00000009 00000000
                      |  Already listed
  09                  HalLcd_HW_Control
                      | Stack used (prev) :  000001EA 00000046
                      | + function block  :  00000009 00000000
  09                  HalLcd_HW_Control
                      | Stack used (prev) :  000001EA 00000046
                      | + function block  :  00000009 00000000
                      |  Already listed
  09                  HalLcd_HW_Control
                      | Stack used (prev) :  000001EA 00000046
                      | + function block  :  00000009 00000000
                      |  Already listed
  08                set_ddram_line_col
                    | Stack used (prev) :  000001F3 00000046
                    | + function block  :  0000001F 00000000
  08                set_ddram_line_col
                    | Stack used (prev) :  000001F3 00000046
                    | + function block  :  0000001F 00000000
                    |  Already listed
  07              DisplayByte_5x7
                  | Stack used (prev) :  00000212 00000046
                  | + function block  :  00000023 00000000
  06            HalLcd_HW_WriteChar
                | Stack used (prev) :  00000235 00000046
                | + function block  :  0000001D 00000000
  06            HalLcd_HW_WriteChar
                | Stack used (prev) :  00000235 00000046
                | + function block  :  0000001D 00000000
                |  Already listed
  07              strlen
                  | Stack used (prev) :  000001EA 00000046
                  | + function block  :  00000000 00000002
  06            osal_strlen
                | Stack used (prev) :  000001EA 00000048
                | + function block  :  00000000 00000004
  05          HalLcd_HW_WriteLine
              | Stack used (prev) :  00000252 0000004C
              | + function block  :  00000028 00000000
  05          osal_mem_free
              | Stack used (prev) :  00000000 00000000
              | + function block  :  0000000A 00000002
              |  Already listed
  05          osal_mem_alloc
              | Stack used (prev) :  00000000 00000000
              | + function block  :  00000018 00000000
              |  Already listed
  05          osal_memcpy
              | Stack used (prev) :  00000000 00000000
              | + function block  :  00000019 00000001
              |  Already listed
  05          osal_strlen
              | Stack used (prev) :  000001EA 00000048
              | + function block  :  00000000 00000004
              |  Already listed
  04        Recursive system consisting of
             | HalLcdWriteString
            | Stack used (prev) :  0000027A 0000004C
            | + function block  :  00000051 00000000
  04        hex2char
            | Stack used (prev) :  000001EA 00000046
            | + function block  :  0000002B 00000000
  04        hex2char
            | Stack used (prev) :  000001EA 00000046
            | + function block  :  0000002B 00000000
            |  Already listed
  04        hex2char
            | Stack used (prev) :  000001EA 00000046
            | + function block  :  0000002B 00000000
            |  Already listed
  04        hex2char
            | Stack used (prev) :  000001EA 00000046
            | + function block  :  0000002B 00000000
            |  Already listed
  04        hex2char
            | Stack used (prev) :  000001EA 00000046
            | + function block  :  0000002B 00000000
            |  Already listed
  04        hex2char
            | Stack used (prev) :  000001EA 00000046
            | + function block  :  0000002B 00000000
            |  Already listed
  04        hex2char
            | Stack used (prev) :  000001EA 00000046
            | + function block  :  0000002B 00000000
            |  Already listed
  04        hex2char
            | Stack used (prev) :  000001EA 00000046
            | + function block  :  0000002B 00000000
            |  Already listed
  04        hex2char
            | Stack used (prev) :  000001EA 00000046
            | + function block  :  0000002B 00000000
            |  Already listed
  04        hex2char
            | Stack used (prev) :  000001EA 00000046
            | + function block  :  0000002B 00000000
            |  Already listed
  04        hex2char
            | Stack used (prev) :  000001EA 00000046
            | + function block  :  0000002B 00000000
            |  Already listed
  04        hex2char
            | Stack used (prev) :  000001EA 00000046
            | + function block  :  0000002B 00000000
            |  Already listed
  04        osal_memcpy
            | Stack used (prev) :  00000000 00000000
            | + function block  :  00000019 00000001
            |  Already listed
  03      showDate
          | Stack used (prev) :  000002CB 0000004C
          | + function block  :  0000005F 00000000
  02    HalDS1307ReadTimeData
        | Stack used (prev) :  0000032A 0000004C
        | + function block  :  00000012 00000000
  01  RTCInterruptIsr
      | Stack used (prev) :  0000033C 0000004C
      | + function block  :  00000038 00000000
  <-Sub-tree of type: Interrupt function tree that does not make
                    : indirect calls
    | Stack used          :  00000374 0000004C


  ->Sub-tree of type: Interrupt function tree that does not make
                    : indirect calls
                             XSTACK   ISTACK
    | Stack used (prev) :  00000374 0000004C
  02    HalUARTIsrDMA
        | Stack used (prev) :  00000374 0000004C
        | + function block  :  00000000 00000000
  01  halDmaIsr
      | Stack used (prev) :  00000374 0000004C
      | + function block  :  0000001C 00000000
  <-Sub-tree of type: Interrupt function tree that does not make
                    : indirect calls
    | Stack used          :  00000390 0000004C


  ->Sub-tree of type: Interrupt function tree that does not make
                    : indirect calls
                             XSTACK   ISTACK
    | Stack used (prev) :  00000390 0000004C
  03      osal_start_timerEx
          | Stack used (prev) :  0000004A 00000002
          | + function block  :  00000024 00000000
          |  Already listed
  02    halProcessKeyInterrupt
        | Stack used (prev) :  00000390 0000004C
        | + function block  :  00000012 00000002
  01  halKeyPort0Isr
      | Stack used (prev) :  000003A2 0000004E
      | + function block  :  0000001C 00000000
  <-Sub-tree of type: Interrupt function tree that does not make
                    : indirect calls
    | Stack used          :  000003BE 0000004E


  ->Sub-tree of type: Interrupt function tree that does not make
                    : indirect calls
                             XSTACK   ISTACK
    | Stack used (prev) :  000003BE 0000004E
  02    halProcessKeyInterrupt
        | Stack used (prev) :  00000390 0000004C
        | + function block  :  00000012 00000002
        |  Already listed
  01  halKeyPort2Isr
      | Stack used (prev) :  000003BE 0000004E
      | + function block  :  0000000E 00000000
  <-Sub-tree of type: Interrupt function tree that does not make
                    : indirect calls
    | Stack used          :  000003CC 0000004E


  ->Sub-tree of type: Interrupt function tree that does not make
                    : indirect calls
                             XSTACK   ISTACK
    | Stack used (prev) :  000003CC 0000004E
  01  halSleepTimerIsr
      | Stack used (prev) :  000003CC 0000004E
      | + function block  :  00000000 00000004
  <-Sub-tree of type: Interrupt function tree that does not make
                    : indirect calls
    | Stack used          :  000003CC 00000052


  ->Sub-tree of type: Interrupt function tree that does not make
                    : indirect calls
                             XSTACK   ISTACK
    | Stack used (prev) :  000003CC 00000052
  02    osal_pwrmgr_task_state
        | Stack used (prev) :  000003CC 00000052
        | + function block  :  0000000A 00000000
  01  port0Isr
      | Stack used (prev) :  000003D6 00000052
      | + function block  :  0000001C 00000000
  <-Sub-tree of type: Interrupt function tree that does not make
                    : indirect calls
    | Stack used          :  000003F2 00000052


  ->Sub-tree of type: Interrupt function tree that does not make
                    : indirect calls
                             XSTACK   ISTACK
    | Stack used (prev) :  000003F2 00000052
  01  halUart0TxIsr
      | Stack used (prev) :  000003F2 00000052
      | + function block  :  00000000 00000008
  <-Sub-tree of type: Interrupt function tree that does not make
                    : indirect calls
    | Stack used          :  000003F2 0000005A


  ->Sub-tree of type: Indirectly called function tree that does not make
                    : indirect calls (Is not an interrupt and is not flagged
                    : as not overlayable)
                             XSTACK   ISTACK
    | Stack used (prev) :  000003F2 0000005A
  03      osal_msg_send
          | Stack used (prev) :  00000032 00000006
          | + function block  :  00000012 00000000
          |  Already listed
  03      osal_msg_allocate
          | Stack used (prev) :  00000018 00000000
          | + function block  :  00000014 00000000
          |  Already listed
  02    gapWriteAdvDataStatus
        | Stack used (prev) :  000003F2 0000005A
        | + function block  :  00000014 00000001
  04        osalAddTimer
            | Stack used (prev) :  00000018 00000002
            | + function block  :  00000032 00000000
            |  Already listed
  03      osal_start_reload_timer
          | Stack used (prev) :  000003F2 0000005A
          | + function block  :  00000016 00000000
  03      osal_start_timerEx
          | Stack used (prev) :  0000004A 00000002
          | + function block  :  00000024 00000000
          |  Already listed
  03      osal_msg_send
          | Stack used (prev) :  00000032 00000006
          | + function block  :  00000012 00000000
          |  Already listed
  03      osal_msg_allocate
          | Stack used (prev) :  00000018 00000000
          | + function block  :  00000014 00000000
          |  Already listed
  05          gapValidADType
              | Stack used (prev) :  000003F2 0000005A
              | + function block  :  00000012 00000000
  04        gapFindADType
            | Stack used (prev) :  00000404 0000005A
            | + function block  :  00000026 00000001
  03      isLimitedDiscoverableMode
          | Stack used (prev) :  0000042A 0000005B
          | + function block  :  0000002E 00000000
  04        osal_mem_free
            | Stack used (prev) :  00000000 00000000
            | + function block  :  0000000A 00000002
            |  Already listed
  03      gapFreeAdvertState
          | Stack used (prev) :  000003F2 0000005A
          | + function block  :  00000014 00000002
  04        osal_msg_send
            | Stack used (prev) :  00000032 00000006
            | + function block  :  00000012 00000000
            |  Already listed
  04        osal_msg_allocate
            | Stack used (prev) :  00000018 00000000
            | + function block  :  00000014 00000000
            |  Already listed
  04        gapFreeAdvertState
            | Stack used (prev) :  000003F2 0000005A
            | + function block  :  00000014 00000002
            |  Already listed
  03      gapSendMakeDiscEvent
          | Stack used (prev) :  00000406 0000005C
          | + function block  :  0000002C 00000000
  03      GAP_GetParamValue
          | Stack used (prev) :  000003F2 0000005A
          | + function block  :  00000014 00000002
  02    gapWriteAdvEnableStatus
        | Stack used (prev) :  00000458 0000005C
        | + function block  :  00000032 00000000
  05          osal_stop_timerEx
              | Stack used (prev) :  000001C2 00000034
              | + function block  :  00000018 00000000
              |  Already listed
  05          osal_pwrmgr_task_state
              | Stack used (prev) :  000003CC 00000052
              | + function block  :  0000000A 00000000
              |  Already listed
  05          osal_clear_event
              | Stack used (prev) :  000001B6 00000032
              | + function block  :  00000017 00000000
              |  Already listed
  05          llGetCurrentTime
              | Stack used (prev) :  00000000 00000000
              | + function block  :  00000004 00000003
              |  Already listed
  05          llDisableT2IntsEvts
              | Stack used (prev) :  00000000 00000000
              | + function block  :  00000000 00000000
              |  Already listed
  05          llGetNumTasks
              | Stack used (prev) :  000003F2 0000005A
              | + function block  :  00000000 00000002
  05          llGetActiveTasks
              | Stack used (prev) :  000003F2 0000005A
              | + function block  :  00000000 00000002
  05          llFreeTask
              | Stack used (prev) :  00000000 00000000
              | + function block  :  00000000 00000002
              |  Already listed
  06            llGetCurrentTime
                | Stack used (prev) :  00000000 00000000
                | + function block  :  00000004 00000003
                |  Already listed
  05          llAllocTask
              | Stack used (prev) :  000003F2 0000005A
              | + function block  :  0000000A 00000001
  05          llScheduler
              | Stack used (prev) :  00000126 0000000E
              | + function block  :  00000034 00000000
              |  Already listed
  05          llSetupAdv
              | Stack used (prev) :  00000020 00000002
              | + function block  :  00000000 00000004
              |  Already listed
  04        LL_SetAdvControl
            | Stack used (prev) :  000003FC 0000005C
            | + function block  :  00000020 00000000
  04        HCI_CommandCompleteEvent
            | Stack used (prev) :  00000074 00000006
            | + function block  :  0000002B 00000000
            |  Already listed
  03      HCI_LE_SetAdvEnableCmd
          | Stack used (prev) :  0000041C 0000005C
          | + function block  :  00000014 00000000
  03      gapSendMakeDiscEvent
          | Stack used (prev) :  00000406 0000005C
          | + function block  :  0000002C 00000000
          |  Already listed
  02    gapSetAdvParamsStatus
        | Stack used (prev) :  00000432 0000005C
        | + function block  :  0000001C 00000000
  01  gapPeriProcessHCICmdCompleteEvt
      | Stack used (prev) :  0000048A 0000005C
      | + function block  :  00000014 00000000
  <-Sub-tree of type: Indirectly called function tree that does not make
                    : indirect calls (Is not an interrupt and is not flagged
                    : as not overlayable)
    | Stack used          :  0000049E 0000005C


  ->Sub-tree of type: Indirectly called function tree that does not make
                    : indirect calls (Is not an interrupt and is not flagged
                    : as not overlayable)
                             XSTACK   ISTACK
    | Stack used (prev) :  000003F2 0000005A
  04        PHY_SetAdvWlPolicy
            | Stack used (prev) :  000003F2 0000005A
            | + function block  :  00000000 00000002
  03      LL_SetAdvParam
          | Stack used (prev) :  000003F2 0000005C
          | + function block  :  0000001A 00000000
  03      HCI_CommandCompleteEvent
          | Stack used (prev) :  00000074 00000006
          | + function block  :  0000002B 00000000
          |  Already listed
  02    HCI_LE_SetAdvParamCmd
        | Stack used (prev) :  0000040C 0000005C
        | + function block  :  0000002C 00000000
  03      linkDB_NumActive
          | Stack used (prev) :  000003F2 0000005A
          | + function block  :  00000000 00000002
  02    GAP_NumActiveConnections
        | Stack used (prev) :  000003F2 0000005C
        | + function block  :  00000000 00000004
  02    isLimitedDiscoverableMode
        | Stack used (prev) :  0000042A 0000005B
        | + function block  :  0000002E 00000000
        |  Already listed
  02    gapAddAddrAdj
        | Stack used (prev) :  000003F2 0000005A
        | + function block  :  0000000A 00000002
  02    GAP_GetParamValue
        | Stack used (prev) :  000003F2 0000005A
        | + function block  :  00000014 00000002
        |  Already listed
  01  gapSetAdvParams
      | Stack used (prev) :  00000458 00000060
      | + function block  :  00000028 00000000
  <-Sub-tree of type: Indirectly called function tree that does not make
                    : indirect calls (Is not an interrupt and is not flagged
                    : as not overlayable)
    | Stack used          :  00000480 00000060


  ->Sub-tree of type: Indirectly called function tree that does not make
                    : indirect calls (Is not an interrupt and is not flagged
                    : as not overlayable)
                             XSTACK   ISTACK
    | Stack used (prev) :  000003F2 0000005A
  02    osal_stop_timerEx
        | Stack used (prev) :  000001C2 00000034
        | + function block  :  00000018 00000000
        |  Already listed
  02    osal_start_timerEx
        | Stack used (prev) :  0000004A 00000002
        | + function block  :  00000024 00000000
        |  Already listed
  02    gapFreeAdvertState
        | Stack used (prev) :  000003F2 0000005A
        | + function block  :  00000014 00000002
        |  Already listed
  03      osal_stop_timerEx
          | Stack used (prev) :  000001C2 00000034
          | + function block  :  00000018 00000000
          |  Already listed
  03      HCI_LE_SetAdvEnableCmd
          | Stack used (prev) :  0000041C 0000005C
          | + function block  :  00000014 00000000
          |  Already listed
  02    GAP_EndDiscoverable
        | Stack used (prev) :  00000430 0000005C
        | + function block  :  0000001E 00000000
  01  gapProcessAdvertisingEvt
      | Stack used (prev) :  0000044E 0000005C
      | + function block  :  00000018 00000000
  <-Sub-tree of type: Indirectly called function tree that does not make
                    : indirect calls (Is not an interrupt and is not flagged
                    : as not overlayable)
    | Stack used          :  00000466 0000005C


  ->Sub-tree of type: Indirectly called function tree that does not make
                    : indirect calls (Is not an interrupt and is not flagged
                    : as not overlayable)
                             XSTACK   ISTACK
    | Stack used (prev) :  000003F2 0000005A
  02    osal_memcpy
        | Stack used (prev) :  00000000 00000000
        | + function block  :  00000019 00000001
        |  Already listed
  02    osal_strlen
        | Stack used (prev) :  000001EA 00000048
        | + function block  :  00000000 00000004
        |  Already listed
  01  ggs_ReadAttrCB
      | Stack used (prev) :  000003F2 0000005A
      | + function block  :  0000001A 00000001
  <-Sub-tree of type: Indirectly called function tree that does not make
                    : indirect calls (Is not an interrupt and is not flagged
                    : as not overlayable)
    | Stack used          :  0000040C 0000005B


  ->Sub-tree of type: Indirectly called function tree that does not make
                    : indirect calls (Is not an interrupt and is not flagged
                    : as not overlayable)
                             XSTACK   ISTACK
    | Stack used (prev) :  000003F2 0000005A
  02    osal_memcpy
        | Stack used (prev) :  00000000 00000000
        | + function block  :  00000019 00000001
        |  Already listed
  02    osal_strlen
        | Stack used (prev) :  000001EA 00000048
        | + function block  :  00000000 00000004
        |  Already listed
  01  ggs_WriteAttrCB
      | Stack used (prev) :  000003F2 0000005A
      | + function block  :  00000018 00000001
  <-Sub-tree of type: Indirectly called function tree that does not make
                    : indirect calls (Is not an interrupt and is not flagged
                    : as not overlayable)
    | Stack used          :  0000040A 0000005B


  ->Sub-tree of type: Indirectly called function tree that does not make
                    : indirect calls (Is not an interrupt and is not flagged
                    : as not overlayable)
                             XSTACK   ISTACK
    | Stack used (prev) :  000003F2 0000005A
  04        osal_stop_timerEx
            | Stack used (prev) :  000001C2 00000034
            | + function block  :  00000018 00000000
            |  Already listed
  03      osal_CbTimerStop
          | Stack used (prev) :  000003F2 0000005A
          | + function block  :  0000000B 00000000
  02    gattStopTimer
        | Stack used (prev) :  000003FD 0000005A
        | + function block  :  00000012 00000000
  03      osal_msg_send
          | Stack used (prev) :  00000032 00000006
          | + function block  :  00000012 00000000
          |  Already listed
  03      osal_msg_allocate
          | Stack used (prev) :  00000018 00000000
          | + function block  :  00000014 00000000
          |  Already listed
  04        memset
            | Stack used (prev) :  000003F2 0000005A
            | + function block  :  00000002 00000002
  03      osal_memset
          | Stack used (prev) :  000003F4 0000005C
          | + function block  :  00000018 00000000
  03      osal_memcpy
          | Stack used (prev) :  00000000 00000000
          | + function block  :  00000019 00000001
          |  Already listed
  02    gattNotifyEvent
        | Stack used (prev) :  0000040C 0000005C
        | + function block  :  00000022 00000000
  02    gattFindServerInfo
        | Stack used (prev) :  000003F2 0000005A
        | + function block  :  00000037 00000000
  04        osal_bm_free
            | Stack used (prev) :  0000000A 00000002
            | + function block  :  00000014 00000000
            |  Already listed
  05          osal_mem_free
              | Stack used (prev) :  00000000 00000000
              | + function block  :  0000000A 00000002
              |  Already listed
  05          osal_mem_alloc
              | Stack used (prev) :  00000000 00000000
              | + function block  :  00000018 00000000
              |  Already listed
  05          osal_revmemcpy
              | Stack used (prev) :  000003F2 0000005A
              | + function block  :  0000000B 00000001
  06            osal_mem_free
                | Stack used (prev) :  00000000 00000000
                | + function block  :  0000000A 00000002
                |  Already listed
  06            osal_mem_alloc
                | Stack used (prev) :  00000000 00000000
                | + function block  :  00000018 00000000
                |  Already listed
  06            osal_memset
                | Stack used (prev) :  000003F4 0000005C
                | + function block  :  00000018 00000000
                |  Already listed
  06            osal_memcpy
                | Stack used (prev) :  00000000 00000000
                | + function block  :  00000019 00000001
                |  Already listed
  06            xor_128
                | Stack used (prev) :  000003F2 0000005A
                | + function block  :  00000037 00000001
  06            xor_128
                | Stack used (prev) :  000003F2 0000005A
                | + function block  :  00000037 00000001
                |  Already listed
  06            xor_128
                | Stack used (prev) :  000003F2 0000005A
                | + function block  :  00000037 00000001
                |  Already listed
  06            xor_128
                | Stack used (prev) :  000003F2 0000005A
                | + function block  :  00000037 00000001
                |  Already listed
  07              osal_mem_free
                  | Stack used (prev) :  00000000 00000000
                  | + function block  :  0000000A 00000002
                  |  Already listed
  07              osal_mem_alloc
                  | Stack used (prev) :  00000000 00000000
                  | + function block  :  00000018 00000000
                  |  Already listed
  07              osal_memset
                  | Stack used (prev) :  000003F4 0000005C
                  | + function block  :  00000018 00000000
                  |  Already listed
  07              leftshift_onebit
                  | Stack used (prev) :  000003F2 0000005A
                  | + function block  :  0000001D 00000001
  07              leftshift_onebit
                  | Stack used (prev) :  000003F2 0000005A
                  | + function block  :  0000001D 00000001
                  |  Already listed
  07              leftshift_onebit
                  | Stack used (prev) :  000003F2 0000005A
                  | + function block  :  0000001D 00000001
                  |  Already listed
  07              leftshift_onebit
                  | Stack used (prev) :  000003F2 0000005A
                  | + function block  :  0000001D 00000001
                  |  Already listed
  07              xor_128
                  | Stack used (prev) :  000003F2 0000005A
                  | + function block  :  00000037 00000001
                  |  Already listed
  07              xor_128
                  | Stack used (prev) :  000003F2 0000005A
                  | + function block  :  00000037 00000001
                  |  Already listed
  08                LL_ENC_AES128_Encrypt
                    | Stack used (prev) :  000003F2 0000005A
                    | + function block  :  00000002 00000002
  07              LL_Encrypt
                  | Stack used (prev) :  000003F4 0000005C
                  | + function block  :  0000001A 00000000
  06            generate_subkey
                | Stack used (prev) :  00000429 0000005C
                | + function block  :  00000055 00000000
  06            LL_Encrypt
                | Stack used (prev) :  000003F4 0000005C
                | + function block  :  0000001A 00000000
                |  Already listed
  05          sm_CMAC
              | Stack used (prev) :  0000047E 0000005C
              | + function block  :  00000097 00000000
  06            osal_set_event
                | Stack used (prev) :  00000000 00000000
                | + function block  :  00000017 00000000
                |  Already listed
  05          gapIncSignCounter
              | Stack used (prev) :  000003F2 0000005A
              | + function block  :  0000000C 00000000
  05          gapGetSignCounter
              | Stack used (prev) :  000003F2 0000005A
              | + function block  :  00000000 00000002
  05          gapGetSRK
              | Stack used (prev) :  000003F2 0000005A
              | + function block  :  00000000 00000002
  04        SM_GenerateAuthenSig
            | Stack used (prev) :  00000515 0000005C
            | + function block  :  00000064 00000000
  05          linkDB_Find
              | Stack used (prev) :  000003F2 0000005A
              | + function block  :  00000014 00000002
  04        linkDB_State
            | Stack used (prev) :  00000406 0000005C
            | + function block  :  00000014 00000000
  06            bm_desc_from_payload
                | Stack used (prev) :  000003F2 0000005A
                | + function block  :  0000000C 00000002
  05          osal_bm_adjust_header
              | Stack used (prev) :  000003FE 0000005C
              | + function block  :  00000018 00000000
  07              osal_bm_alloc
                  | Stack used (prev) :  00000018 00000000
                  | + function block  :  00000018 00000000
                  |  Already listed
  06            LL_TX_bm_alloc
                | Stack used (prev) :  000003F2 0000005A
                | + function block  :  0000000A 00000000
  05          HCI_bm_alloc
              | Stack used (prev) :  000003FC 0000005A
              | + function block  :  00000000 00000004
  04        L2CAP_bm_alloc
            | Stack used (prev) :  00000416 0000005E
            | + function block  :  0000002A 00000000
  05          linkDB_State
              | Stack used (prev) :  00000406 0000005C
              | + function block  :  00000014 00000000
              |  Already listed
  06            osal_bm_adjust_header
                | Stack used (prev) :  000003FE 0000005C
                | + function block  :  00000018 00000000
                |  Already listed
  06            osal_msg_send
                | Stack used (prev) :  00000032 00000006
                | + function block  :  00000012 00000000
                |  Already listed
  06            osal_msg_allocate
                | Stack used (prev) :  00000018 00000000
                | + function block  :  00000014 00000000
                |  Already listed
  08                ll24BitTimeDelta
                    | Stack used (prev) :  00000000 00000000
                    | + function block  :  00000017 00000000
                    |  Already listed
  08                ll24BitTimeCompare
                    | Stack used (prev) :  00000000 00000000
                    | + function block  :  00000017 00000000
                    |  Already listed
  08                llGetCurrentTime
                    | Stack used (prev) :  00000000 00000000
                    | + function block  :  00000004 00000003
                    |  Already listed
  08                llGetCurrentTask
                    | Stack used (prev) :  000001B6 00000032
                    | + function block  :  00000000 00000002
                    |  Already listed
  08                llScheduleTask
                    | Stack used (prev) :  00000079 00000003
                    | + function block  :  0000003A 00000000
                    |  Already listed
  08                llDivide31By16To16
                    | Stack used (prev) :  000003F2 0000005A
                    | + function block  :  00000000 00000000
  08                llEnqueueDataQ
                    | Stack used (prev) :  000003F2 0000005A
                    | + function block  :  00000009 00000000
  08                llProcessTxData
                    | Stack used (prev) :  00000104 00000006
                    | + function block  :  00000022 00000000
                    |  Already listed
  09                  PHY_SetDataChan
                      | Stack used (prev) :  000003F2 0000005A
                      | + function block  :  00000000 00000002
  09                  llProcessChanMap
                      | Stack used (prev) :  000003F2 0000005A
                      | + function block  :  00000018 00000001
  08                llSetNextDataChan
                    | Stack used (prev) :  0000040A 0000005A
                    | + function block  :  00000016 00000002
  07              LL_TxData
                  | Stack used (prev) :  00000420 0000005A
                  | + function block  :  0000002D 00000002
  06            HCI_SendDataPkt
                | Stack used (prev) :  0000044D 0000005C
                | + function block  :  00000018 00000000
  05          l2capEncapSendData
              | Stack used (prev) :  00000465 0000005C
              | + function block  :  00000036 00000000
  04        L2CAP_SendData
            | Stack used (prev) :  0000049B 0000005C
            | + function block  :  00000014 00000000
  03      attSendMsg
          | Stack used (prev) :  00000579 0000005E
          | + function block  :  00000032 00000000
  02    ATT_ErrorRsp
        | Stack used (prev) :  000005AB 0000005E
        | + function block  :  00000018 00000000
  01  gattServerProcessMsgCB
      | Stack used (prev) :  000005C3 0000005E
      | + function block  :  0000005A 00000000
  <-Sub-tree of type: Indirectly called function tree that does not make
                    : indirect calls (Is not an interrupt and is not flagged
                    : as not overlayable)
    | Stack used          :  0000061D 0000005E


  ->Sub-tree of type: Indirectly called function tree that does not make
                    : indirect calls (Is not an interrupt and is not flagged
                    : as not overlayable)
                             XSTACK   ISTACK
    | Stack used (prev) :  000003F2 0000005A
  01  gattProcessExchangeMTUReq
      | Stack used (prev) :  000003F2 0000005A
      | + function block  :  00000000 00000000
  <-Sub-tree of type: Indirectly called function tree that does not make
                    : indirect calls (Is not an interrupt and is not flagged
                    : as not overlayable)
    | Stack used          :  000003F2 0000005A


  ->Sub-tree of type: Indirectly called function tree that does not make
                    : indirect calls (Is not an interrupt and is not flagged
                    : as not overlayable)
                             XSTACK   ISTACK
    | Stack used (prev) :  000003F2 0000005A
  02    osal_memcpy
        | Stack used (prev) :  00000000 00000000
        | + function block  :  00000019 00000001
        |  Already listed
  04        osal_memcmp
            | Stack used (prev) :  000003F2 0000005A
            | + function block  :  0000000D 00000000
  05          osal_memcpy
              | Stack used (prev) :  00000000 00000000
              | + function block  :  00000019 00000001
              |  Already listed
  04        ATT_ConvertUUIDto128
            | Stack used (prev) :  000003F2 0000005A
            | + function block  :  0000002A 00000001
  04        ATT_ConvertUUIDto128
            | Stack used (prev) :  000003F2 0000005A
            | + function block  :  0000002A 00000001
            |  Already listed
  03      ATT_CompareUUID
          | Stack used (prev) :  0000041C 0000005B
          | + function block  :  0000003C 00000000
  02    GATT_FindHandleUUID
        | Stack used (prev) :  00000458 0000005B
        | + function block  :  00000060 00000000
  03      attSendMsg
          | Stack used (prev) :  00000579 0000005E
          | + function block  :  00000032 00000000
          |  Already listed
  02    ATT_FindInfoRsp
        | Stack used (prev) :  000005AB 0000005E
        | + function block  :  00000018 00000000
  01  gattProcessFindInfoReq
      | Stack used (prev) :  000005C3 0000005E
      | + function block  :  0000004C 00000000
  <-Sub-tree of type: Indirectly called function tree that does not make
                    : indirect calls (Is not an interrupt and is not flagged
                    : as not overlayable)
    | Stack used          :  0000060F 0000005E


  ->Sub-tree of type: Indirectly called function tree that does not make
                    : indirect calls (Is not an interrupt and is not flagged
                    : as not overlayable)
                             XSTACK   ISTACK
    | Stack used (prev) :  000003F2 0000005A
  02    GATT_FindHandleUUID
        | Stack used (prev) :  00000458 0000005B
        | + function block  :  00000060 00000000
        |  Already listed
  01  gattProcessFindByTypeValueReq
      | Stack used (prev) :  000004B8 0000005B
      | + function block  :  00000020 00000000
  <-Sub-tree of type: Indirectly called function tree that does not make
                    : indirect calls (Is not an interrupt and is not flagged
                    : as not overlayable)
    | Stack used          :  000004D8 0000005B


  ->Sub-tree of type: Indirectly called function tree that does not make
                    : indirect calls (Is not an interrupt and is not flagged
                    : as not overlayable)
                             XSTACK   ISTACK
    | Stack used (prev) :  000003F2 0000005A
  02    GATT_FindHandleUUID
        | Stack used (prev) :  00000458 0000005B
        | + function block  :  00000060 00000000
        |  Already listed
  01  gattProcessReadByTypeReq
      | Stack used (prev) :  000004B8 0000005B
      | + function block  :  00000020 00000000
  <-Sub-tree of type: Indirectly called function tree that does not make
                    : indirect calls (Is not an interrupt and is not flagged
                    : as not overlayable)
    | Stack used          :  000004D8 0000005B


  ->Sub-tree of type: Indirectly called function tree that does not make
                    : indirect calls (Is not an interrupt and is not flagged
                    : as not overlayable)
                             XSTACK   ISTACK
    | Stack used (prev) :  000003F2 0000005A
  02    GATT_FindHandle
        | Stack used (prev) :  000003F2 0000005A
        | + function block  :  00000022 00000000
  04        linkDB_Find
            | Stack used (prev) :  000003F2 0000005A
            | + function block  :  00000014 00000002
            |  Already listed
  03      linkDB_Authen
          | Stack used (prev) :  00000406 0000005C
          | + function block  :  00000018 00000000
  02    GATT_VerifyReadPermissions
        | Stack used (prev) :  0000041E 0000005C
        | + function block  :  00000022 00000000
  01  gattProcessReadReq
      | Stack used (prev) :  00000440 0000005C
      | + function block  :  00000014 00000000
  <-Sub-tree of type: Indirectly called function tree that does not make
                    : indirect calls (Is not an interrupt and is not flagged
                    : as not overlayable)
    | Stack used          :  00000454 0000005C


  ->Sub-tree of type: Indirectly called function tree that does not make
                    : indirect calls (Is not an interrupt and is not flagged
                    : as not overlayable)
                             XSTACK   ISTACK
    | Stack used (prev) :  000003F2 0000005A
  02    GATT_FindHandle
        | Stack used (prev) :  000003F2 0000005A
        | + function block  :  00000022 00000000
        |  Already listed
  02    GATT_VerifyReadPermissions
        | Stack used (prev) :  0000041E 0000005C
        | + function block  :  00000022 00000000
        |  Already listed
  01  gattProcessReadMultiReq
      | Stack used (prev) :  00000440 0000005C
      | + function block  :  00000020 00000000
  <-Sub-tree of type: Indirectly called function tree that does not make
                    : indirect calls (Is not an interrupt and is not flagged
                    : as not overlayable)
    | Stack used          :  00000460 0000005C


  ->Sub-tree of type: Indirectly called function tree that does not make
                    : indirect calls (Is not an interrupt and is not flagged
                    : as not overlayable)
                             XSTACK   ISTACK
    | Stack used (prev) :  000003F2 0000005A
  02    GATT_FindHandleUUID
        | Stack used (prev) :  00000458 0000005B
        | + function block  :  00000060 00000000
        |  Already listed
  02    ATT_CompareUUID
        | Stack used (prev) :  0000041C 0000005B
        | + function block  :  0000003C 00000000
        |  Already listed
  01  gattProcessReadByGrpTypeReq
      | Stack used (prev) :  000004B8 0000005B
      | + function block  :  0000002C 00000000
  <-Sub-tree of type: Indirectly called function tree that does not make
                    : indirect calls (Is not an interrupt and is not flagged
                    : as not overlayable)
    | Stack used          :  000004E4 0000005B


  ->Sub-tree of type: Indirectly called function tree that does not make
                    : indirect calls (Is not an interrupt and is not flagged
                    : as not overlayable)
                             XSTACK   ISTACK
    | Stack used (prev) :  000003F2 0000005A
  02    GATT_FindHandle
        | Stack used (prev) :  000003F2 0000005A
        | + function block  :  00000022 00000000
        |  Already listed
  03      linkDB_Authen
          | Stack used (prev) :  00000406 0000005C
          | + function block  :  00000018 00000000
          |  Already listed
  02    GATT_VerifyWritePermissions
        | Stack used (prev) :  0000041E 0000005C
        | + function block  :  0000001E 00000000
  01  gattProcessWriteReq
      | Stack used (prev) :  0000043C 0000005C
      | + function block  :  00000018 00000000
  <-Sub-tree of type: Indirectly called function tree that does not make
                    : indirect calls (Is not an interrupt and is not flagged
                    : as not overlayable)
    | Stack used          :  00000454 0000005C


  ->Sub-tree of type: Indirectly called function tree that does not make
                    : indirect calls (Is not an interrupt and is not flagged
                    : as not overlayable)
                             XSTACK   ISTACK
    | Stack used (prev) :  000003F2 0000005A
  01  gattProcessExecuteWriteReq
      | Stack used (prev) :  000003F2 0000005A
      | + function block  :  00000000 00000000
  <-Sub-tree of type: Indirectly called function tree that does not make
                    : indirect calls (Is not an interrupt and is not flagged
                    : as not overlayable)
    | Stack used          :  000003F2 0000005A


  ->Sub-tree of type: Indirectly called function tree that does not make
                    : indirect calls (Is not an interrupt and is not flagged
                    : as not overlayable)
                             XSTACK   ISTACK
    | Stack used (prev) :  000003F2 0000005A
  02    gattNotifyEvent
        | Stack used (prev) :  0000040C 0000005C
        | + function block  :  00000022 00000000
        |  Already listed
  01  gattServerHandleTimerCB
      | Stack used (prev) :  0000042E 0000005C
      | + function block  :  0000001C 00000000
  <-Sub-tree of type: Indirectly called function tree that does not make
                    : indirect calls (Is not an interrupt and is not flagged
                    : as not overlayable)
    | Stack used          :  0000044A 0000005C


  ->Sub-tree of type: Indirectly called function tree that does not make
                    : indirect calls (Is not an interrupt and is not flagged
                    : as not overlayable)
                             XSTACK   ISTACK
    | Stack used (prev) :  000003F2 0000005A
  02    linkDB_State
        | Stack used (prev) :  00000406 0000005C
        | + function block  :  00000014 00000000
        |  Already listed
  02    gattStopTimer
        | Stack used (prev) :  000003FD 0000005A
        | + function block  :  00000012 00000000
        |  Already listed
  02    gattNotifyEvent
        | Stack used (prev) :  0000040C 0000005C
        | + function block  :  00000022 00000000
        |  Already listed
  02    gattFindServerInfo
        | Stack used (prev) :  000003F2 0000005A
        | + function block  :  00000037 00000000
        |  Already listed
  02    gattFindServerInfo
        | Stack used (prev) :  000003F2 0000005A
        | + function block  :  00000037 00000000
        |  Already listed
  02    gattFindServerInfo
        | Stack used (prev) :  000003F2 0000005A
        | + function block  :  00000037 00000000
        |  Already listed
  02    gattFindServerInfo
        | Stack used (prev) :  000003F2 0000005A
        | + function block  :  00000037 00000000
        |  Already listed
  01  gattServerHandleConnStatusCB
      | Stack used (prev) :  0000042E 0000005C
      | + function block  :  00000024 00000000
  <-Sub-tree of type: Indirectly called function tree that does not make
                    : indirect calls (Is not an interrupt and is not flagged
                    : as not overlayable)
    | Stack used          :  00000452 0000005C


  ->Sub-tree of type: Indirectly called function tree that does not make
                    : indirect calls (Is not an interrupt and is not flagged
                    : as not overlayable)
                             XSTACK   ISTACK
    | Stack used (prev) :  000003F2 0000005A
  04        osal_msg_send
            | Stack used (prev) :  00000032 00000006
            | + function block  :  00000012 00000000
            |  Already listed
  04        osal_msg_allocate
            | Stack used (prev) :  00000018 00000000
            | + function block  :  00000014 00000000
            |  Already listed
  03      GATTServApp_SendCCCUpdatedEvent
          | Stack used (prev) :  000003F2 0000005A
          | + function block  :  00000022 00000000
  04        gattServApp_FindCharCfgItem
            | Stack used (prev) :  000003F2 0000005A
            | + function block  :  0000000E 00000002
  04        gattServApp_FindCharCfgItem
            | Stack used (prev) :  000003F2 0000005A
            | + function block  :  0000000E 00000002
            |  Already listed
  03      GATTServApp_WriteCharCfg
          | Stack used (prev) :  00000400 0000005C
          | + function block  :  00000030 00000000
  04        gattServApp_FindCharCfgItem
            | Stack used (prev) :  000003F2 0000005A
            | + function block  :  0000000E 00000002
            |  Already listed
  03      GATTServApp_ReadCharCfg
          | Stack used (prev) :  00000400 0000005C
          | + function block  :  00000031 00000000
  02    GATTServApp_ProcessCCCWriteReq
        | Stack used (prev) :  00000430 0000005C
        | + function block  :  0000003C 00000000
  01  gattServApp_WriteAttrCB
      | Stack used (prev) :  0000046C 0000005C
      | + function block  :  0000002C 00000000
  <-Sub-tree of type: Indirectly called function tree that does not make
                    : indirect calls (Is not an interrupt and is not flagged
                    : as not overlayable)
    | Stack used          :  00000498 0000005C


  ->Sub-tree of type: Indirectly called function tree that does not make
                    : indirect calls (Is not an interrupt and is not flagged
                    : as not overlayable)
                             XSTACK   ISTACK
    | Stack used (prev) :  000003F2 0000005A
  02    osal_memset
        | Stack used (prev) :  000003F4 0000005C
        | + function block  :  00000018 00000000
        |  Already listed
  02    linkDB_State
        | Stack used (prev) :  00000406 0000005C
        | + function block  :  00000014 00000000
        |  Already listed
  03      gattServApp_FindCharCfgItem
          | Stack used (prev) :  000003F2 0000005A
          | + function block  :  0000000E 00000002
          |  Already listed
  02    GATTServApp_InitCharCfg
        | Stack used (prev) :  00000400 0000005C
        | + function block  :  00000022 00000000
  02    gattServApp_FindPrepareWriteQ
        | Stack used (prev) :  000003F2 0000005A
        | + function block  :  00000014 00000002
  01  gattServApp_HandleConnStatusCB
      | Stack used (prev) :  00000422 0000005C
      | + function block  :  0000001C 00000000
  <-Sub-tree of type: Indirectly called function tree that does not make
                    : indirect calls (Is not an interrupt and is not flagged
                    : as not overlayable)
    | Stack used          :  0000043E 0000005C


  ->Sub-tree of type: Indirectly called function tree that does not make
                    : indirect calls (Is not an interrupt and is not flagged
                    : as not overlayable)
                             XSTACK   ISTACK
    | Stack used (prev) :  000003F2 0000005A
  02    l2capFreeChannel
        | Stack used (prev) :  000003F2 0000005A
        | + function block  :  00000012 00000002
  03      osal_msg_send
          | Stack used (prev) :  00000032 00000006
          | + function block  :  00000012 00000000
          |  Already listed
  03      osal_msg_allocate
          | Stack used (prev) :  00000018 00000000
          | + function block  :  00000014 00000000
          |  Already listed
  03      osal_memset
          | Stack used (prev) :  000003F4 0000005C
          | + function block  :  00000018 00000000
          |  Already listed
  03      osal_memcpy
          | Stack used (prev) :  00000000 00000000
          | + function block  :  00000019 00000001
          |  Already listed
  02    l2capNotifySignal
        | Stack used (prev) :  0000040C 0000005C
        | + function block  :  0000002D 00000000
  01  l2capHandleTimerCB
      | Stack used (prev) :  00000439 0000005C
      | + function block  :  0000001A 00000000
  <-Sub-tree of type: Indirectly called function tree that does not make
                    : indirect calls (Is not an interrupt and is not flagged
                    : as not overlayable)
    | Stack used          :  00000453 0000005C


  ->Sub-tree of type: Indirectly called function tree that does not make
                    : indirect calls (Is not an interrupt and is not flagged
                    : as not overlayable)
                             XSTACK   ISTACK
    | Stack used (prev) :  000003F2 0000005A
  01  llStartAdvSetup
      | Stack used (prev) :  000003F2 0000005A
      | + function block  :  00000000 00000002
  <-Sub-tree of type: Indirectly called function tree that does not make
                    : indirect calls (Is not an interrupt and is not flagged
                    : as not overlayable)
    | Stack used          :  000003F2 0000005C


  ->Sub-tree of type: Indirectly called function tree that does not make
                    : indirect calls (Is not an interrupt and is not flagged
                    : as not overlayable)
                             XSTACK   ISTACK
    | Stack used (prev) :  000003F2 0000005A
  02    osal_memset
        | Stack used (prev) :  000003F4 0000005C
        | + function block  :  00000018 00000000
        |  Already listed
  02    osal_memcmp
        | Stack used (prev) :  000003F2 0000005A
        | + function block  :  0000000D 00000000
        |  Already listed
  02    osal_memcpy
        | Stack used (prev) :  00000000 00000000
        | + function block  :  00000019 00000001
        |  Already listed
  02    smDetermineKeySize
        | Stack used (prev) :  000003F2 0000005A
        | + function block  :  00000000 00000002
  04        osal_mem_free
            | Stack used (prev) :  00000000 00000000
            | + function block  :  0000000A 00000002
            |  Already listed
  05          osal_stop_timerEx
              | Stack used (prev) :  000001C2 00000034
              | + function block  :  00000018 00000000
              |  Already listed
  04        smStopRspTimer
            | Stack used (prev) :  000003F2 0000005A
            | + function block  :  00000000 00000002
  03      smFreePairingParams
          | Stack used (prev) :  000003F2 0000005C
          | + function block  :  00000012 00000004
  04        osal_mem_free
            | Stack used (prev) :  00000000 00000000
            | + function block  :  0000000A 00000002
            |  Already listed
  04        osal_mem_alloc
            | Stack used (prev) :  00000000 00000000
            | + function block  :  00000018 00000000
            |  Already listed
  05          osal_mem_alloc
              | Stack used (prev) :  00000000 00000000
              | + function block  :  00000018 00000000
              |  Already listed
  05          osal_memcpy
              | Stack used (prev) :  00000000 00000000
              | + function block  :  00000019 00000001
              |  Already listed
  04        osal_memdup
            | Stack used (prev) :  000003F2 0000005A
            | + function block  :  00000010 00000000
  04        osal_memcpy
            | Stack used (prev) :  00000000 00000000
            | + function block  :  00000019 00000001
            |  Already listed
  04        linkDB_Find
            | Stack used (prev) :  000003F2 0000005A
            | + function block  :  00000014 00000002
            |  Already listed
  05          osal_msg_send
              | Stack used (prev) :  00000032 00000006
              | + function block  :  00000012 00000000
              |  Already listed
  05          osal_msg_allocate
              | Stack used (prev) :  00000018 00000000
              | + function block  :  00000014 00000000
              |  Already listed
  05          osal_memset
              | Stack used (prev) :  000003F4 0000005C
              | + function block  :  00000018 00000000
              |  Already listed
  05          osal_memcpy
              | Stack used (prev) :  00000000 00000000
              | + function block  :  00000019 00000001
              |  Already listed
  05          linkDB_Find
              | Stack used (prev) :  000003F2 0000005A
              | + function block  :  00000014 00000002
              |  Already listed
  06            osal_mem_free
                | Stack used (prev) :  00000000 00000000
                | + function block  :  0000000A 00000002
                |  Already listed
  05          gapFreeAuthLink
              | Stack used (prev) :  000003F2 0000005A
              | + function block  :  00000014 00000002
  05          GAP_GetParamValue
              | Stack used (prev) :  000003F2 0000005A
              | + function block  :  00000014 00000002
              |  Already listed
  04        sendAuthEvent
            | Stack used (prev) :  0000040C 0000005C
            | + function block  :  00000042 00000000
  03      gapPairingCompleteCB
          | Stack used (prev) :  0000044E 0000005C
          | + function block  :  0000003C 00000000
  02    smEndPairing
        | Stack used (prev) :  0000048A 00000060
        | + function block  :  0000002E 00000000
  03      osal_revmemcpy
          | Stack used (prev) :  000003F2 0000005A
          | + function block  :  0000000B 00000001
          |  Already listed
  04        LL_Encrypt
            | Stack used (prev) :  000003F4 0000005C
            | + function block  :  0000001A 00000000
            |  Already listed
  03      smEncrypt
          | Stack used (prev) :  0000040E 0000005C
          | + function block  :  00000080 00000000
  02    sm_s1
        | Stack used (prev) :  0000048E 0000005C
        | + function block  :  00000080 00000000
  02    linkDB_Find
        | Stack used (prev) :  000003F2 0000005A
        | + function block  :  00000014 00000002
        |  Already listed
  04        llEnqueueCtrlPkt
            | Stack used (prev) :  00000000 00000000
            | + function block  :  0000000B 00000001
            |  Already listed
  03      LL_EncLtkNegReply
          | Stack used (prev) :  000003F2 0000005A
          | + function block  :  00000000 00000002
  03      HCI_CommandCompleteEvent
          | Stack used (prev) :  00000074 00000006
          | + function block  :  0000002B 00000000
          |  Already listed
  02    HCI_LE_LtkReqNegReplyCmd
        | Stack used (prev) :  000003F2 0000005C
        | + function block  :  00000018 00000000
  04        llEnqueueCtrlPkt
            | Stack used (prev) :  00000000 00000000
            | + function block  :  0000000B 00000001
            |  Already listed
  03      LL_EncLtkReply
          | Stack used (prev) :  000003F2 0000005A
          | + function block  :  00000000 00000003
  03      HCI_CommandCompleteEvent
          | Stack used (prev) :  00000074 00000006
          | + function block  :  0000002B 00000000
          |  Already listed
  02    HCI_LE_LtkReqReplyCmd
        | Stack used (prev) :  000003F2 0000005D
        | + function block  :  00000018 00000000
  01  smResponderProcessLTKReq
      | Stack used (prev) :  0000050E 00000060
      | + function block  :  00000066 00000000
  <-Sub-tree of type: Indirectly called function tree that does not make
                    : indirect calls (Is not an interrupt and is not flagged
                    : as not overlayable)
    | Stack used          :  00000574 00000060


  ->Sub-tree of type: Indirectly called function tree that does not make
                    : indirect calls (Is not an interrupt and is not flagged
                    : as not overlayable)
                             XSTACK   ISTACK
    | Stack used (prev) :  000003F2 0000005A
  02    osal_mem_alloc
        | Stack used (prev) :  00000000 00000000
        | + function block  :  00000018 00000000
        |  Already listed
  02    osal_memcpy
        | Stack used (prev) :  00000000 00000000
        | + function block  :  00000019 00000001
        |  Already listed
  03      osal_memcpy
          | Stack used (prev) :  00000000 00000000
          | + function block  :  00000019 00000001
          |  Already listed
  03      smEndPairing
          | Stack used (prev) :  0000048A 00000060
          | + function block  :  0000002E 00000000
          |  Already listed
  02    smpResponderProcessMasterID
        | Stack used (prev) :  000004B8 00000060
        | + function block  :  00000022 00000000
  03      osal_memcmp
          | Stack used (prev) :  000003F2 0000005A
          | + function block  :  0000000D 00000000
          |  Already listed
  03      osal_memcpy
          | Stack used (prev) :  00000000 00000000
          | + function block  :  00000019 00000001
          |  Already listed
  04        osal_memcpy
            | Stack used (prev) :  00000000 00000000
            | + function block  :  00000019 00000001
            |  Already listed
  05          osal_bm_free
              | Stack used (prev) :  0000000A 00000002
              | + function block  :  00000014 00000000
              |  Already listed
  06            osal_start_timerEx
                | Stack used (prev) :  0000004A 00000002
                | + function block  :  00000024 00000000
                |  Already listed
  06            GAP_GetParamValue
                | Stack used (prev) :  000003F2 0000005A
                | + function block  :  00000014 00000002
                |  Already listed
  05          smStartRspTimer
              | Stack used (prev) :  00000406 0000005C
              | + function block  :  0000001C 00000000
  05          L2CAP_bm_alloc
              | Stack used (prev) :  00000416 0000005E
              | + function block  :  0000002A 00000000
              |  Already listed
  05          L2CAP_SendData
              | Stack used (prev) :  0000049B 0000005C
              | + function block  :  00000014 00000000
              |  Already listed
  04        smSendSMMsg
            | Stack used (prev) :  000004AF 0000005E
            | + function block  :  00000028 00000000
  03      smGenerateRandMsg
          | Stack used (prev) :  000004D7 0000005E
          | + function block  :  00000038 00000000
  06            smAuthReqToUint8
                | Stack used (prev) :  000003F2 0000005A
                | + function block  :  00000000 00000002
  05          smpBuildPairingReqRsp
              | Stack used (prev) :  000003F2 0000005C
              | + function block  :  00000016 00000000
  04        smpBuildPairingRsp
            | Stack used (prev) :  00000408 0000005C
            | + function block  :  00000000 00000004
  05          smpBuildPairingReqRsp
              | Stack used (prev) :  000003F2 0000005C
              | + function block  :  00000016 00000000
              |  Already listed
  04        smpBuildPairingReq
            | Stack used (prev) :  00000408 0000005C
            | + function block  :  00000000 00000004
  05          osal_memset
              | Stack used (prev) :  000003F4 0000005C
              | + function block  :  00000018 00000000
              |  Already listed
  05          smUint8ToAuthReq
              | Stack used (prev) :  000003F2 0000005A
              | + function block  :  0000000A 00000000
  04        smSetPairingReqRsp
            | Stack used (prev) :  0000040C 0000005C
            | + function block  :  00000043 00000000
  05          osal_memset
              | Stack used (prev) :  000003F4 0000005C
              | + function block  :  00000018 00000000
              |  Already listed
  05          osal_revmemcpy
              | Stack used (prev) :  000003F2 0000005A
              | + function block  :  0000000B 00000001
              |  Already listed
  05          osal_memcpy
              | Stack used (prev) :  00000000 00000000
              | + function block  :  00000019 00000001
              |  Already listed
  05          smEncrypt
              | Stack used (prev) :  0000040E 0000005C
              | + function block  :  00000080 00000000
              |  Already listed
  05          smEncrypt
              | Stack used (prev) :  0000040E 0000005C
              | + function block  :  00000080 00000000
              |  Already listed
  05          sm_xor
              | Stack used (prev) :  000003F2 0000005A
              | + function block  :  00000071 00000000
  05          sm_xor
              | Stack used (prev) :  000003F2 0000005A
              | + function block  :  00000071 00000000
              |  Already listed
  04        sm_c1new
            | Stack used (prev) :  0000048E 0000005C
            | + function block  :  000000DB 00000000
  04        linkDB_Find
            | Stack used (prev) :  000003F2 0000005A
            | + function block  :  00000014 00000002
            |  Already listed
  04        gapGetDevAddress
            | Stack used (prev) :  000003F2 0000005A
            | + function block  :  00000000 00000002
  04        gapGetDevAddressMode
            | Stack used (prev) :  000003F2 0000005A
            | + function block  :  00000000 00000002
  03      sm_c1
          | Stack used (prev) :  00000569 00000060
          | + function block  :  00000080 00000000
  02    smpResponderProcessPairingRandom
        | Stack used (prev) :  000005E9 00000060
        | + function block  :  00000046 00000000
  03      osal_memset
          | Stack used (prev) :  000003F4 0000005C
          | + function block  :  00000018 00000000
          |  Already listed
  03      osal_memcpy
          | Stack used (prev) :  00000000 00000000
          | + function block  :  00000019 00000001
          |  Already listed
  04        osal_mem_alloc
            | Stack used (prev) :  00000000 00000000
            | + function block  :  00000018 00000000
            |  Already listed
  04        osal_memcpy
            | Stack used (prev) :  00000000 00000000
            | + function block  :  00000019 00000001
            |  Already listed
  03      smSavePairInfo
          | Stack used (prev) :  000003F2 0000005A
          | + function block  :  00000012 00000001
  04        smSendSMMsg
            | Stack used (prev) :  000004AF 0000005E
            | + function block  :  00000028 00000000
            |  Already listed
  04        smSetPairingReqRsp
            | Stack used (prev) :  0000040C 0000005C
            | + function block  :  00000043 00000000
            |  Already listed
  03      smGeneratePairingReqRsp
          | Stack used (prev) :  000004D7 0000005E
          | + function block  :  00000038 00000000
  07              LL_ENC_GeneratePseudoRandNum
                  | Stack used (prev) :  000003F2 0000005A
                  | + function block  :  00000000 00000002
  06            LL_PseudoRand
                | Stack used (prev) :  000003F2 0000005C
                | + function block  :  00000014 00000000
  05          Onboard_rand
              | Stack used (prev) :  00000406 0000005C
              | + function block  :  00000004 00000004
  04        osal_rand
            | Stack used (prev) :  0000040A 00000060
            | + function block  :  00000000 00000004
  03      smGenerateRandBuf
          | Stack used (prev) :  0000040A 00000064
          | + function block  :  00000027 00000000
  04        osal_msg_send
            | Stack used (prev) :  00000032 00000006
            | + function block  :  00000012 00000000
            |  Already listed
  04        osal_msg_allocate
            | Stack used (prev) :  00000018 00000000
            | + function block  :  00000014 00000000
            |  Already listed
  04        osal_memcpy
            | Stack used (prev) :  00000000 00000000
            | + function block  :  00000019 00000001
            |  Already listed
  04        linkDB_Find
            | Stack used (prev) :  000003F2 0000005A
            | + function block  :  00000014 00000002
            |  Already listed
  04        GAP_GetParamValue
            | Stack used (prev) :  000003F2 0000005A
            | + function block  :  00000014 00000002
            |  Already listed
  03      gapPasskeyNeededCB
          | Stack used (prev) :  00000406 0000005C
          | + function block  :  00000024 00000000
  02    smpResponderProcessPairingReq
        | Stack used (prev) :  0000050F 00000064
        | + function block  :  00000022 00000000
  02    smDetermineKeySize
        | Stack used (prev) :  000003F2 0000005A
        | + function block  :  00000000 00000002
        |  Already listed
  02    smEndPairing
        | Stack used (prev) :  0000048A 00000060
        | + function block  :  0000002E 00000000
        |  Already listed
  03      osal_memcpy
          | Stack used (prev) :  00000000 00000000
          | + function block  :  00000019 00000001
          |  Already listed
  03      smSendSMMsg
          | Stack used (prev) :  000004AF 0000005E
          | + function block  :  00000028 00000000
          |  Already listed
  02    smGenerateConfirm
        | Stack used (prev) :  000004D7 0000005E
        | + function block  :  00000042 00000000
  02    sm_c1
        | Stack used (prev) :  00000569 00000060
        | + function block  :  00000080 00000000
        |  Already listed
  02    smAuthReqToUint8
        | Stack used (prev) :  000003F2 0000005A
        | + function block  :  00000000 00000002
        |  Already listed
  03      osal_msg_send
          | Stack used (prev) :  00000032 00000006
          | + function block  :  00000012 00000000
          |  Already listed
  03      osal_msg_allocate
          | Stack used (prev) :  00000018 00000000
          | + function block  :  00000014 00000000
          |  Already listed
  03      osal_memset
          | Stack used (prev) :  000003F4 0000005C
          | + function block  :  00000018 00000000
          |  Already listed
  03      linkDB_Find
          | Stack used (prev) :  000003F2 0000005A
          | + function block  :  00000014 00000002
          |  Already listed
  03      GAP_GetParamValue
          | Stack used (prev) :  000003F2 0000005A
          | + function block  :  00000014 00000002
          |  Already listed
  02    gapSendPairingReqEvent
        | Stack used (prev) :  0000040C 0000005C
        | + function block  :  0000002C 00000000
  01  smpResponderProcessIncoming
      | Stack used (prev) :  0000062F 00000064
      | + function block  :  0000001C 00000000
  <-Sub-tree of type: Indirectly called function tree that does not make
                    : indirect calls (Is not an interrupt and is not flagged
                    : as not overlayable)
    | Stack used          :  0000064B 00000064


  ->Sub-tree of type: Indirectly called function tree that does not make
                    : indirect calls (Is not an interrupt and is not flagged
                    : as not overlayable)
                             XSTACK   ISTACK
    | Stack used (prev) :  000003F2 0000005A
  02    osal_start_timerEx
        | Stack used (prev) :  0000004A 00000002
        | + function block  :  00000024 00000000
        |  Already listed
  02    osal_mem_alloc
        | Stack used (prev) :  00000000 00000000
        | + function block  :  00000018 00000000
        |  Already listed
  02    osal_rand
        | Stack used (prev) :  0000040A 00000060
        | + function block  :  00000000 00000004
        |  Already listed
  02    osal_memset
        | Stack used (prev) :  000003F4 0000005C
        | + function block  :  00000018 00000000
        |  Already listed
  02    smDetermineKeySize
        | Stack used (prev) :  000003F2 0000005A
        | + function block  :  00000000 00000002
        |  Already listed
  03      smSendSMMsg
          | Stack used (prev) :  000004AF 0000005E
          | + function block  :  00000028 00000000
          |  Already listed
  02    smPairingSendSingingInfo
        | Stack used (prev) :  000004D7 0000005E
        | + function block  :  00000018 00000000
  03      osal_memcpy
          | Stack used (prev) :  00000000 00000000
          | + function block  :  00000019 00000001
          |  Already listed
  03      smSendSMMsg
          | Stack used (prev) :  000004AF 0000005E
          | + function block  :  00000028 00000000
          |  Already listed
  02    smPairingSendIdentityAddrInfo
        | Stack used (prev) :  000004D7 0000005E
        | + function block  :  0000002A 00000000
  03      smSendSMMsg
          | Stack used (prev) :  000004AF 0000005E
          | + function block  :  00000028 00000000
          |  Already listed
  02    smPairingSendIdentityInfo
        | Stack used (prev) :  000004D7 0000005E
        | + function block  :  00000018 00000000
  03      osal_memcpy
          | Stack used (prev) :  00000000 00000000
          | + function block  :  00000019 00000001
          |  Already listed
  03      smSendSMMsg
          | Stack used (prev) :  000004AF 0000005E
          | + function block  :  00000028 00000000
          |  Already listed
  02    smPairingSendMasterID
        | Stack used (prev) :  000004D7 0000005E
        | + function block  :  0000003E 00000000
  03      smSendSMMsg
          | Stack used (prev) :  000004AF 0000005E
          | + function block  :  00000028 00000000
          |  Already listed
  02    smPairingSendEncInfo
        | Stack used (prev) :  000004D7 0000005E
        | + function block  :  00000018 00000000
  02    smGenerateRandBuf
        | Stack used (prev) :  0000040A 00000064
        | + function block  :  00000027 00000000
        |  Already listed
  02    linkDB_Find
        | Stack used (prev) :  000003F2 0000005A
        | + function block  :  00000014 00000002
        |  Already listed
  02    gapGetIRK
        | Stack used (prev) :  000003F2 0000005A
        | + function block  :  00000000 00000002
  02    gapGetDevAddress
        | Stack used (prev) :  000003F2 0000005A
        | + function block  :  00000000 00000002
        |  Already listed
  02    gapGetDevAddressMode
        | Stack used (prev) :  000003F2 0000005A
        | + function block  :  00000000 00000002
        |  Already listed
  02    gapGetSRK
        | Stack used (prev) :  000003F2 0000005A
        | + function block  :  00000000 00000002
        |  Already listed
  01  smResponderSendNextKeyInfo
      | Stack used (prev) :  00000515 00000064
      | + function block  :  00000024 00000000
  <-Sub-tree of type: Indirectly called function tree that does not make
                    : indirect calls (Is not an interrupt and is not flagged
                    : as not overlayable)
    | Stack used          :  00000539 00000064


  ->Sub-tree of type: Indirectly called function tree that does not make
                    : indirect calls (Is not an interrupt and is not flagged
                    : as not overlayable)
                             XSTACK   ISTACK
    | Stack used (prev) :  000003F2 0000005A
  03      osal_stop_timerEx
          | Stack used (prev) :  000001C2 00000034
          | + function block  :  00000018 00000000
          |  Already listed
  03      osal_set_event
          | Stack used (prev) :  00000000 00000000
          | + function block  :  00000017 00000000
          |  Already listed
  02    HalKeyConfig
        | Stack used (prev) :  000003F2 0000005A
        | + function block  :  00000009 00000000
  03      osal_msg_send
          | Stack used (prev) :  00000032 00000006
          | + function block  :  00000012 00000000
          |  Already listed
  03      osal_msg_allocate
          | Stack used (prev) :  00000018 00000000
          | + function block  :  00000014 00000000
          |  Already listed
  02    OnBoard_SendKeys
        | Stack used (prev) :  000003F2 0000005A
        | + function block  :  00000013 00000001
  01  OnBoard_KeyCallback
      | Stack used (prev) :  00000405 0000005B
      | + function block  :  00000012 00000000
  <-Sub-tree of type: Indirectly called function tree that does not make
                    : indirect calls (Is not an interrupt and is not flagged
                    : as not overlayable)
    | Stack used          :  00000417 0000005B


  ->Sub-tree of type: Indirectly called function tree that does not make
                    : indirect calls (Is not an interrupt and is not flagged
                    : as not overlayable)
                             XSTACK   ISTACK
    | Stack used (prev) :  000003F2 0000005A
  03      HalUARTRxAvailDMA
          | Stack used (prev) :  000003F2 0000005A
          | + function block  :  0000000A 00000002
  02    Hal_UART_RxBufLen
        | Stack used (prev) :  000003FC 0000005C
        | + function block  :  00000012 00000000
  03      Recursive system consisting of
           | HalLcdWriteString
          | Stack used (prev) :  0000027A 0000004C
          | + function block  :  00000051 00000000
          |  Already listed
  04        strlen
            | Stack used (prev) :  000001EA 00000046
            | + function block  :  00000000 00000002
            |  Already listed
  04        strcpy
            | Stack used (prev) :  000003F2 0000005A
            | + function block  :  00000009 00000001
  04        strcat
            | Stack used (prev) :  000003F2 0000005A
            | + function block  :  00000009 00000001
  04        _itoa
            | Stack used (prev) :  000003F2 0000005A
            | + function block  :  00000015 00000001
  03      _ltoa
          | Stack used (prev) :  00000407 0000005A
          | + function block  :  00000074 00000002
  03      osal_memcpy
          | Stack used (prev) :  00000000 00000000
          | + function block  :  00000019 00000001
          |  Already listed
  03      osal_strlen
          | Stack used (prev) :  000001EA 00000048
          | + function block  :  00000000 00000004
          |  Already listed
  02    HalLcdWriteStringValue
        | Stack used (prev) :  0000047B 0000005C
        | + function block  :  00000057 00000000
  04        HalUARTReadDMA
            | Stack used (prev) :  000003F2 0000005A
            | + function block  :  00000014 00000001
  03      HalUARTRead
          | Stack used (prev) :  00000406 0000005B
          | + function block  :  00000012 00000000
  02    SbpHalUARTRead
        | Stack used (prev) :  00000418 0000005B
        | + function block  :  0000001B 00000000
  02    SbpHalUARTRead
        | Stack used (prev) :  00000418 0000005B
        | + function block  :  0000001B 00000000
        |  Already listed
  02    SbpHalUARTRead
        | Stack used (prev) :  00000418 0000005B
        | + function block  :  0000001B 00000000
        |  Already listed
  02    SbpHalUARTRead
        | Stack used (prev) :  00000418 0000005B
        | + function block  :  0000001B 00000000
        |  Already listed
  03      Recursive system consisting of
           | HalLcdWriteString
          | Stack used (prev) :  0000027A 0000004C
          | + function block  :  00000051 00000000
          |  Already listed
  02    studyCompletedAndBroadcastData
        | Stack used (prev) :  000003F2 0000005A
        | + function block  :  00000009 00000002
  02    osal_memset
        | Stack used (prev) :  000003F4 0000005C
        | + function block  :  00000018 00000000
        |  Already listed
  02    osal_memcpy
        | Stack used (prev) :  00000000 00000000
        | + function block  :  00000019 00000001
        |  Already listed
  01  SbpHalUARTReadCallback
      | Stack used (prev) :  000004D2 0000005C
      | + function block  :  00000014 00000000
  <-Sub-tree of type: Indirectly called function tree that does not make
                    : indirect calls (Is not an interrupt and is not flagged
                    : as not overlayable)
    | Stack used          :  000004E6 0000005C


  ->Sub-tree of type: Indirectly called function tree that does not make
                    : indirect calls (Is not an interrupt and is not flagged
                    : as not overlayable)
                             XSTACK   ISTACK
    | Stack used (prev) :  000003F2 0000005A
  03      HalAdcSetReference
          | Stack used (prev) :  000003F2 0000005A
          | + function block  :  00000000 00000002
  03      HalAdcRead
          | Stack used (prev) :  000003F2 0000005A
          | + function block  :  0000000A 00000000
  02    battMeasure
        | Stack used (prev) :  000003FC 0000005A
        | + function block  :  0000001F 00000002
  02    osal_memcpy
        | Stack used (prev) :  00000000 00000000
        | + function block  :  00000019 00000001
        |  Already listed
  01  battReadAttrCB
      | Stack used (prev) :  0000041B 0000005C
      | + function block  :  0000001C 00000000
  <-Sub-tree of type: Indirectly called function tree that does not make
                    : indirect calls (Is not an interrupt and is not flagged
                    : as not overlayable)
    | Stack used          :  00000437 0000005C


  ->Sub-tree of type: Indirectly called function tree that does not make
                    : indirect calls (Is not an interrupt and is not flagged
                    : as not overlayable)
                             XSTACK   ISTACK
    | Stack used (prev) :  000003F2 0000005A
  02    GATTServApp_ProcessCCCWriteReq
        | Stack used (prev) :  00000430 0000005C
        | + function block  :  0000003C 00000000
        |  Already listed
  01  battWriteAttrCB
      | Stack used (prev) :  0000046C 0000005C
      | + function block  :  0000002C 00000000
  <-Sub-tree of type: Indirectly called function tree that does not make
                    : indirect calls (Is not an interrupt and is not flagged
                    : as not overlayable)
    | Stack used          :  00000498 0000005C


  ->Sub-tree of type: Indirectly called function tree that does not make
                    : indirect calls (Is not an interrupt and is not flagged
                    : as not overlayable)
                             XSTACK   ISTACK
    | Stack used (prev) :  000003F2 0000005A
  02    osal_memcpy
        | Stack used (prev) :  00000000 00000000
        | + function block  :  00000019 00000001
        |  Already listed
  01  devInfo_ReadAttrCB
      | Stack used (prev) :  000003F2 0000005A
      | + function block  :  0000001F 00000001
  <-Sub-tree of type: Indirectly called function tree that does not make
                    : indirect calls (Is not an interrupt and is not flagged
                    : as not overlayable)
    | Stack used          :  00000411 0000005B


  ->Sub-tree of type: Indirectly called function tree that does not make
                    : indirect calls (Is not an interrupt and is not flagged
                    : as not overlayable)
                             XSTACK   ISTACK
    | Stack used (prev) :  000003F2 0000005A
  03      GATTServApp_ReadCharCfg
          | Stack used (prev) :  00000400 0000005C
          | + function block  :  00000031 00000000
          |  Already listed
  05          linkDB_Authen
              | Stack used (prev) :  00000406 0000005C
              | + function block  :  00000018 00000000
              |  Already listed
  07              osal_start_timerEx
                  | Stack used (prev) :  0000004A 00000002
                  | + function block  :  00000024 00000000
                  |  Already listed
  06            osal_CbTimerStart
                | Stack used (prev) :  000003F2 0000005A
                | + function block  :  0000001B 00000001
  05          gattStartTimer
              | Stack used (prev) :  0000040D 0000005B
              | + function block  :  00000024 00000000
  06            gattFindServerInfo
                | Stack used (prev) :  000003F2 0000005A
                | + function block  :  00000037 00000000
                |  Already listed
  05          gattGetServerStatus
              | Stack used (prev) :  00000429 0000005A
              | + function block  :  00000024 00000000
  06            attSendMsg
                | Stack used (prev) :  00000579 0000005E
                | + function block  :  00000032 00000000
                |  Already listed
  05          ATT_HandleValueInd
              | Stack used (prev) :  000005AB 0000005E
              | + function block  :  00000018 00000000
  04        GATT_Indication
            | Stack used (prev) :  000005C3 0000005E
            | + function block  :  00000044 00000000
  04        GATT_FindHandleUUID
            | Stack used (prev) :  00000458 0000005B
            | + function block  :  00000060 00000000
            |  Already listed
  03      GATT_ServiceChangedInd
          | Stack used (prev) :  00000607 0000005E
          | + function block  :  00000048 00000000
  02    GATTServApp_SendServiceChangedInd
        | Stack used (prev) :  0000064F 0000005E
        | + function block  :  00000012 00000000
  01  gapBondMgrSendServiceChange
      | Stack used (prev) :  00000661 0000005E
      | + function block  :  0000000C 00000004
  <-Sub-tree of type: Indirectly called function tree that does not make
                    : indirect calls (Is not an interrupt and is not flagged
                    : as not overlayable)
    | Stack used          :  0000066D 00000062


  ->Sub-tree of type: Indirectly called function tree that does not make
                    : indirect calls (Is not an interrupt and is not flagged
                    : as not overlayable)
                             XSTACK   ISTACK
    | Stack used (prev) :  000003F2 0000005A
  04        linkDB_Find
            | Stack used (prev) :  000003F2 0000005A
            | + function block  :  00000014 00000002
            |  Already listed
  06            llReplaceCtrlPkt
                | Stack used (prev) :  000003F2 0000005A
                | + function block  :  00000000 00000003
  06            llEnqueueCtrlPkt
                | Stack used (prev) :  00000000 00000000
                | + function block  :  0000000B 00000001
                |  Already listed
  05          LL_Disconnect
              | Stack used (prev) :  000003F2 0000005D
              | + function block  :  00000012 00000000
  06            osal_msg_send
                | Stack used (prev) :  00000032 00000006
                | + function block  :  00000012 00000000
                |  Already listed
  06            osal_msg_allocate
                | Stack used (prev) :  00000018 00000000
                | + function block  :  00000014 00000000
                |  Already listed
  08                osal_msg_send
                    | Stack used (prev) :  00000032 00000006
                    | + function block  :  00000012 00000000
                    |  Already listed
  08                osal_msg_allocate
                    | Stack used (prev) :  00000018 00000000
                    | + function block  :  00000014 00000000
                    |  Already listed
  08                osal_memcpy
                    | Stack used (prev) :  00000000 00000000
                    | + function block  :  00000019 00000001
                    |  Already listed
  07              HCI_SendControllerToHostEvent
                  | Stack used (prev) :  000003F2 0000005A
                  | + function block  :  0000001D 00000001
  06            HCI_SendCommandStatusEvent
                | Stack used (prev) :  0000040F 0000005A
                | + function block  :  00000025 00000001
  05          HCI_CommandStatusEvent
              | Stack used (prev) :  00000434 0000005A
              | + function block  :  00000016 00000001
  04        HCI_DisconnectCmd
            | Stack used (prev) :  0000044A 0000005D
            | + function block  :  00000012 00000000
  05          linkDB_FindFirst
              | Stack used (prev) :  000003F2 0000005A
              | + function block  :  00000000 00000002
  05          HCI_DisconnectCmd
              | Stack used (prev) :  0000044A 0000005D
              | + function block  :  00000012 00000000
              |  Already listed
  04        disconnectNext
            | Stack used (prev) :  0000045C 0000005D
            | + function block  :  0000002A 00000000
  03      GAP_TerminateLinkReq
          | Stack used (prev) :  00000486 0000005D
          | + function block  :  0000001C 00000000
  02    GAPRole_TerminateConnection
        | Stack used (prev) :  000004A2 0000005D
        | + function block  :  00000016 00000004
  02    HalLcdWriteStringValue
        | Stack used (prev) :  0000047B 0000005C
        | + function block  :  00000057 00000000
        |  Already listed
  02    Recursive system consisting of
         | HalLcdWriteString
        | Stack used (prev) :  0000027A 0000004C
        | + function block  :  00000051 00000000
        |  Already listed
  01  simpleBLEPeripheralPairStateCB
      | Stack used (prev) :  000004D2 00000061
      | + function block  :  00000018 00000000
  <-Sub-tree of type: Indirectly called function tree that does not make
                    : indirect calls (Is not an interrupt and is not flagged
                    : as not overlayable)
    | Stack used          :  000004EA 00000061


  ->Sub-tree of type: Indirectly called function tree that does not make
                    : indirect calls (Is not an interrupt and is not flagged
                    : as not overlayable)
                             XSTACK   ISTACK
    | Stack used (prev) :  000003F2 0000005A
  02    bdAddr2Str
        | Stack used (prev) :  000003F2 0000005A
        | + function block  :  00000031 00000002
  02    bdAddr2Str
        | Stack used (prev) :  000003F2 0000005A
        | + function block  :  00000031 00000002
        |  Already listed
  03      osal_memcpy
          | Stack used (prev) :  00000000 00000000
          | + function block  :  00000019 00000001
          |  Already listed
  03      GAP_GetParamValue
          | Stack used (prev) :  000003F2 0000005A
          | + function block  :  00000014 00000002
          |  Already listed
  02    GAPRole_GetParameter
        | Stack used (prev) :  00000406 0000005C
        | + function block  :  00000018 00000000
  02    Recursive system consisting of
         | HalLcdWriteString
        | Stack used (prev) :  0000027A 0000004C
        | + function block  :  00000051 00000000
        |  Already listed
  03      osal_memcpy
          | Stack used (prev) :  00000000 00000000
          | + function block  :  00000019 00000001
          |  Already listed
  02    DevInfo_SetParameter
        | Stack used (prev) :  000003F2 0000005A
        | + function block  :  0000000D 00000000
  01  peripheralStateNotificationCB
      | Stack used (prev) :  00000423 0000005C
      | + function block  :  0000002E 00000000
  <-Sub-tree of type: Indirectly called function tree that does not make
                    : indirect calls (Is not an interrupt and is not flagged
                    : as not overlayable)
    | Stack used          :  00000451 0000005C


  ->Sub-tree of type: Indirectly called function tree that does not make
                    : indirect calls (Is not an interrupt and is not flagged
                    : as not overlayable)
                             XSTACK   ISTACK
    | Stack used (prev) :  000003F2 0000005A
  03      osal_memcpy
          | Stack used (prev) :  00000000 00000000
          | + function block  :  00000019 00000001
          |  Already listed
  02    SimpleProfile_GetParameter
        | Stack used (prev) :  000003F2 0000005A
        | + function block  :  0000000C 00000001
  02    Recursive system consisting of
         | HalLcdWriteString
        | Stack used (prev) :  0000027A 0000004C
        | + function block  :  00000051 00000000
        |  Already listed
  03      Recursive system consisting of
           | HalLcdWriteString
          | Stack used (prev) :  0000027A 0000004C
          | + function block  :  00000051 00000000
          |  Already listed
  03      atoi
          | Stack used (prev) :  000003F2 0000005A
          | + function block  :  0000002A 00000000
  08                HalFlashRead
                    | Stack used (prev) :  000003F2 0000005A
                    | + function block  :  0000000E 00000001
  08                osal_memcmp
                    | Stack used (prev) :  000003F2 0000005A
                    | + function block  :  0000000D 00000000
                    |  Already listed
  07              verifyWordM
                  | Stack used (prev) :  00000400 0000005B
                  | + function block  :  00000045 00000000
  07              HalFlashWrite
                  | Stack used (prev) :  000003F2 0000005A
                  | + function block  :  0000000C 00000000
  06            writeWord
                | Stack used (prev) :  00000445 0000005B
                | + function block  :  0000003E 00000000
  07              HalFlashRead
                  | Stack used (prev) :  000003F2 0000005A
                  | + function block  :  0000000E 00000001
                  |  Already listed
  06            findItem
                | Stack used (prev) :  00000400 0000005B
                | + function block  :  00000042 00000000
  07              HalFlashErase
                  | Stack used (prev) :  000003F2 0000005A
                  | + function block  :  00000000 00000002
  07              HalFlashRead
                  | Stack used (prev) :  000003F2 0000005A
                  | + function block  :  0000000E 00000001
                  |  Already listed
  06            erasePage
                | Stack used (prev) :  00000400 0000005C
                | + function block  :  0000003C 00000000
  07              writeWord
                  | Stack used (prev) :  00000445 0000005B
                  | + function block  :  0000003E 00000000
                  |  Already listed
  06            setActivePage
                | Stack used (prev) :  00000483 0000005B
                | + function block  :  00000038 00000000
  06            HalFlashRead
                | Stack used (prev) :  000003F2 0000005A
                | + function block  :  0000000E 00000001
                |  Already listed
  05          compactPage
              | Stack used (prev) :  000004BB 0000005C
              | + function block  :  00000050 00000000
  06            writeWord
                | Stack used (prev) :  00000445 0000005B
                | + function block  :  0000003E 00000000
                |  Already listed
  06            writeWord
                | Stack used (prev) :  00000445 0000005B
                | + function block  :  0000003E 00000000
                |  Already listed
  06            writeWord
                | Stack used (prev) :  00000445 0000005B
                | + function block  :  0000003E 00000000
                |  Already listed
  06            writeWord
                | Stack used (prev) :  00000445 0000005B
                | + function block  :  0000003E 00000000
                |  Already listed
  06            verifyWordM
                | Stack used (prev) :  00000400 0000005B
                | + function block  :  00000045 00000000
                |  Already listed
  06            HalFlashWrite
                | Stack used (prev) :  000003F2 0000005A
                | + function block  :  0000000C 00000000
                |  Already listed
  05          writeItem
              | Stack used (prev) :  00000483 0000005B
              | + function block  :  00000045 00000000
  05          findItem
              | Stack used (prev) :  00000400 0000005B
              | + function block  :  00000042 00000000
              |  Already listed
  06            writeWord
                | Stack used (prev) :  00000445 0000005B
                | + function block  :  0000003E 00000000
                |  Already listed
  05          setXferPage
              | Stack used (prev) :  00000483 0000005B
              | + function block  :  0000002E 00000000
  05          HalFlashRead
              | Stack used (prev) :  000003F2 0000005A
              | + function block  :  0000000E 00000001
              |  Already listed
  04        osal_snv_write
            | Stack used (prev) :  0000050B 0000005C
            | + function block  :  00000022 00000000
  06            compactPage
                | Stack used (prev) :  000004BB 0000005C
                | + function block  :  00000050 00000000
                |  Already listed
  06            setXferPage
                | Stack used (prev) :  00000483 0000005B
                | + function block  :  0000002E 00000000
                |  Already listed
  05          osal_snv_compact
              | Stack used (prev) :  0000050B 0000005C
              | + function block  :  00000028 00000000
  07              findItem
                  | Stack used (prev) :  00000400 0000005B
                  | + function block  :  00000042 00000000
                  |  Already listed
  07              HalFlashRead
                  | Stack used (prev) :  000003F2 0000005A
                  | + function block  :  0000000E 00000001
                  |  Already listed
  06            osal_snv_read
                | Stack used (prev) :  00000442 0000005B
                | + function block  :  00000018 00000000
  06            osal_snv_write
                | Stack used (prev) :  0000050B 0000005C
                | + function block  :  00000022 00000000
                |  Already listed
  07              osal_msg_deallocate
                  | Stack used (prev) :  0000000A 00000002
                  | + function block  :  00000009 00000004
                  |  Already listed
  06            gapBondFreeAuthEvt
                | Stack used (prev) :  000003F2 0000005A
                | + function block  :  00000042 00000002
  06            osal_isbufset
                | Stack used (prev) :  000003F2 0000005A
                | + function block  :  0000000A 00000000
  06            osal_clear_event
                | Stack used (prev) :  000001B6 00000032
                | + function block  :  00000017 00000000
                |  Already listed
  06            osal_memset
                | Stack used (prev) :  000003F4 0000005C
                | + function block  :  00000018 00000000
                |  Already listed
  05          gapBondMgrEraseBonding
              | Stack used (prev) :  0000052D 0000005C
              | + function block  :  000000A8 00000000
  06            gapBondMgrEraseBonding
                | Stack used (prev) :  0000052D 0000005C
                | + function block  :  000000A8 00000000
                |  Already listed
  05          gapBondMgrEraseAllBondings
              | Stack used (prev) :  000005D5 0000005C
              | + function block  :  00000036 00000000
  06            osal_snv_read
                | Stack used (prev) :  00000442 0000005B
                | + function block  :  00000018 00000000
                |  Already listed
  07              osal_isbufset
                  | Stack used (prev) :  000003F2 0000005A
                  | + function block  :  0000000A 00000000
                  |  Already listed
  10                    phyFindWlEntry
                        | Stack used (prev) :  000003F2 0000005A
                        | + function block  :  00000017 00000000
  10                    PHY_ClearBlacklistIndex
                        | Stack used (prev) :  000003F2 0000005A
                        | + function block  :  00000016 00000000
  10                    PHY_SetBlacklistIndex
                        | Stack used (prev) :  000003F2 0000005A
                        | + function block  :  00000016 00000000
  09                  PHY_AddWlEntry
                      | Stack used (prev) :  00000409 0000005A
                      | + function block  :  00000018 00000001
  09                  llCheckWhiteListUsage
                      | Stack used (prev) :  000003F2 0000005A
                      | + function block  :  00000000 00000002
  08                LL_AddWhiteListDevice
                    | Stack used (prev) :  00000421 0000005C
                    | + function block  :  00000012 00000000
  08                HCI_CommandCompleteEvent
                    | Stack used (prev) :  00000074 00000006
                    | + function block  :  0000002B 00000000
                    |  Already listed
  07              HCI_LE_AddWhiteListCmd
                  | Stack used (prev) :  00000433 0000005C
                  | + function block  :  00000014 00000000
  09                  PHY_ClearWhitelist
                      | Stack used (prev) :  000003F2 0000005A
                      | + function block  :  00000000 00000002
  09                  llCheckWhiteListUsage
                      | Stack used (prev) :  000003F2 0000005A
                      | + function block  :  00000000 00000002
                      |  Already listed
  08                LL_ClearWhiteList
                    | Stack used (prev) :  000003F2 0000005C
                    | + function block  :  00000000 00000004
  08                HCI_CommandCompleteEvent
                    | Stack used (prev) :  00000074 00000006
                    | + function block  :  0000002B 00000000
                    |  Already listed
  07              HCI_LE_ClearWhiteListCmd
                  | Stack used (prev) :  000003F2 00000060
                  | + function block  :  00000002 00000004
  06            gapBondMgr_SyncWhiteList
                | Stack used (prev) :  00000447 00000064
                | + function block  :  0000002C 00000000
  08                osal_isbufset
                    | Stack used (prev) :  000003F2 0000005A
                    | + function block  :  0000000A 00000000
                    |  Already listed
  07              gapBondMgrBondTotal
                  | Stack used (prev) :  000003FC 0000005A
                  | + function block  :  0000001E 00000000
  08                osal_memset
                    | Stack used (prev) :  000003F4 0000005C
                    | + function block  :  00000018 00000000
                    |  Already listed
  08                osal_memcpy
                    | Stack used (prev) :  00000000 00000000
                    | + function block  :  00000019 00000001
                    |  Already listed
  08                ggs_SetAttrWPermit
                    | Stack used (prev) :  000003F2 0000005A
                    | + function block  :  0000000E 00000002
  08                ggs_SetAttrWPermit
                    | Stack used (prev) :  000003F2 0000005A
                    | + function block  :  0000000E 00000002
                    |  Already listed
  08                ggs_SetAttrWPermit
                    | Stack used (prev) :  000003F2 0000005A
                    | + function block  :  0000000E 00000002
                    |  Already listed
  07              GGS_SetParameter
                  | Stack used (prev) :  0000040C 0000005C
                  | + function block  :  0000001C 00000000
  06            gapBondSetupPrivFlag
                | Stack used (prev) :  00000428 0000005C
                | + function block  :  0000001C 00000004
  06            osal_memset
                | Stack used (prev) :  000003F4 0000005C
                | + function block  :  00000018 00000000
                |  Already listed
  05          gapBondMgrReadBonds
              | Stack used (prev) :  00000473 00000064
              | + function block  :  00000036 00000000
  05          gapBondMgrReadBonds
              | Stack used (prev) :  00000473 00000064
              | + function block  :  00000036 00000000
              |  Already listed
  05          gapBondMgrReadBonds
              | Stack used (prev) :  00000473 00000064
              | + function block  :  00000036 00000000
              |  Already listed
  07              osal_snv_read
                  | Stack used (prev) :  00000442 0000005B
                  | + function block  :  00000018 00000000
                  |  Already listed
  07              osal_isbufset
                  | Stack used (prev) :  000003F2 0000005A
                  | + function block  :  0000000A 00000000
                  |  Already listed
  09                  osal_memcmp
                      | Stack used (prev) :  000003F2 0000005A
                      | + function block  :  0000000D 00000000
                      |  Already listed
  09                  osal_memcpy
                      | Stack used (prev) :  00000000 00000000
                      | + function block  :  00000019 00000001
                      |  Already listed
  10                    osal_memset
                        | Stack used (prev) :  000003F4 0000005C
                        | + function block  :  00000018 00000000
                        |  Already listed
  10                    osal_revmemcpy
                        | Stack used (prev) :  000003F2 0000005A
                        | + function block  :  0000000B 00000001
                        |  Already listed
  10                    smEncrypt
                        | Stack used (prev) :  0000040E 0000005C
                        | + function block  :  00000080 00000000
                        |  Already listed
  09                  sm_ah
                      | Stack used (prev) :  0000048E 0000005C
                      | + function block  :  00000090 00000000
  08                SM_ResolveRandomAddrs
                    | Stack used (prev) :  0000051E 0000005C
                    | + function block  :  00000028 00000000
  07              GAP_ResolvePrivateAddr
                  | Stack used (prev) :  00000546 0000005C
                  | + function block  :  00000000 00000004
  06            gapBondMgrResolvePrivateAddr
                | Stack used (prev) :  00000546 00000060
                | + function block  :  00000042 00000000
  07              osal_memcmp
                  | Stack used (prev) :  000003F2 0000005A
                  | + function block  :  0000000D 00000000
                  |  Already listed
  06            gapBondMgrFindAddr
                | Stack used (prev) :  000003FF 0000005A
                | + function block  :  00000036 00000000
  07              osal_snv_read
                  | Stack used (prev) :  00000442 0000005B
                  | + function block  :  00000018 00000000
                  |  Already listed
  07              osal_memcpy
                  | Stack used (prev) :  00000000 00000000
                  | + function block  :  00000019 00000001
                  |  Already listed
  06            gapBondMgrGetPublicAddr
                | Stack used (prev) :  0000045A 0000005B
                | + function block  :  00000044 00000000
  06            osal_memcmp
                | Stack used (prev) :  000003F2 0000005A
                | + function block  :  0000000D 00000000
                |  Already listed
  06            osal_memcpy
                | Stack used (prev) :  00000000 00000000
                | + function block  :  00000019 00000001
                |  Already listed
  05          GAPBondMgr_ResolveAddr
              | Stack used (prev) :  00000588 00000060
              | + function block  :  00000064 00000000
  05          osal_revmemcpy
              | Stack used (prev) :  000003F2 0000005A
              | + function block  :  0000000B 00000001
              |  Already listed
  05          osal_memcpy
              | Stack used (prev) :  00000000 00000000
              | + function block  :  00000019 00000001
              |  Already listed
  05          GAP_NumActiveConnections
              | Stack used (prev) :  000003F2 0000005C
              | + function block  :  00000000 00000004
              |  Already listed
  05          GAP_SetParamValue
              | Stack used (prev) :  000003F2 0000005A
              | + function block  :  00000000 00000002
  04        GAPBondMgr_SetParameter
            | Stack used (prev) :  0000060B 00000064
            | + function block  :  0000002C 00000000
  04        osal_strlen
            | Stack used (prev) :  000001EA 00000048
            | + function block  :  00000000 00000004
            |  Already listed
  04        GGS_SetParameter
            | Stack used (prev) :  0000040C 0000005C
            | + function block  :  0000001C 00000000
            |  Already listed
  03      set_new_passkey
          | Stack used (prev) :  00000637 00000064
          | + function block  :  00000040 00000000
  03      osal_memset
          | Stack used (prev) :  000003F4 0000005C
          | + function block  :  00000018 00000000
          |  Already listed
  03      osal_memcpy
          | Stack used (prev) :  00000000 00000000
          | + function block  :  00000019 00000001
          |  Already listed
  03      osal_strlen
          | Stack used (prev) :  000001EA 00000048
          | + function block  :  00000000 00000004
          |  Already listed
  02    set_code_name
        | Stack used (prev) :  00000677 00000064
        | + function block  :  00000030 00000000
  02    osal_memset
        | Stack used (prev) :  000003F4 0000005C
        | + function block  :  00000018 00000000
        |  Already listed
  01  simpleProfileChangeCB
      | Stack used (prev) :  000006A7 00000064
      | + function block  :  0000003A 00000000
  <-Sub-tree of type: Indirectly called function tree that does not make
                    : indirect calls (Is not an interrupt and is not flagged
                    : as not overlayable)
    | Stack used          :  000006E1 00000064


  ->Sub-tree of type: Indirectly called function tree that does not make
                    : indirect calls (Is not an interrupt and is not flagged
                    : as not overlayable)
                             XSTACK   ISTACK
    | Stack used (prev) :  000003F2 0000005A
  02    osal_memcpy
        | Stack used (prev) :  00000000 00000000
        | + function block  :  00000019 00000001
        |  Already listed
  01  simpleProfile_ReadAttrCB
      | Stack used (prev) :  000003F2 0000005A
      | + function block  :  00000016 00000001
  <-Sub-tree of type: Indirectly called function tree that does not make
                    : indirect calls (Is not an interrupt and is not flagged
                    : as not overlayable)
    | Stack used          :  00000408 0000005B


  ->Sub-tree of type: Indirectly called function tree that does not make
                    : indirect calls (Is not an interrupt and is not flagged
                    : as not overlayable)
                             XSTACK   ISTACK
    | Stack used (prev) :  000003F2 0000005A
  02    osal_memset
        | Stack used (prev) :  000003F4 0000005C
        | + function block  :  00000018 00000000
        |  Already listed
  02    osal_memcpy
        | Stack used (prev) :  00000000 00000000
        | + function block  :  00000019 00000001
        |  Already listed
  02    GATTServApp_ProcessCCCWriteReq
        | Stack used (prev) :  00000430 0000005C
        | + function block  :  0000003C 00000000
        |  Already listed
  01  simpleProfile_WriteAttrCB
      | Stack used (prev) :  0000046C 0000005C
      | + function block  :  00000036 00000000
  <-Sub-tree of type: Indirectly called function tree that does not make
                    : indirect calls (Is not an interrupt and is not flagged
                    : as not overlayable)
    | Stack used          :  000004A2 0000005C


  ->Sub-tree of type: Indirectly called function tree that does not make
                    : indirect calls (Is not an interrupt and is not flagged
                    : as not overlayable)
                             XSTACK   ISTACK
    | Stack used (prev) :  000003F2 0000005A
  02    linkDB_State
        | Stack used (prev) :  00000406 0000005C
        | + function block  :  00000014 00000000
        |  Already listed
  02    GATTServApp_InitCharCfg
        | Stack used (prev) :  00000400 0000005C
        | + function block  :  00000022 00000000
        |  Already listed
  01  simpleProfile_HandleConnStatusCB
      | Stack used (prev) :  00000422 0000005C
      | + function block  :  00000012 00000000
  <-Sub-tree of type: Indirectly called function tree that does not make
                    : indirect calls (Is not an interrupt and is not flagged
                    : as not overlayable)
    | Stack used          :  00000434 0000005C


  ->Sub-tree of type: Function tree
                             XSTACK   ISTACK
    | Stack used (prev) :  000006E1 00000064
  01  ATT_ErrorRsp::?relay
      | Stack used (prev) :  000006E1 00000064
      | + function block  :  00000000 00000000
  <-Sub-tree of type: Function tree
    | Stack used          :  000006E1 00000064


  ->Sub-tree of type: Function tree
                             XSTACK   ISTACK
    | Stack used (prev) :  000006E1 00000064
  01  ATT_ExchangeMTURsp::?relay
      | Stack used (prev) :  000006E1 00000064
      | + function block  :  00000000 00000000
  <-Sub-tree of type: Function tree
    | Stack used          :  000006E1 00000064


  ->Sub-tree of type: Function tree
                             XSTACK   ISTACK
    | Stack used (prev) :  000006E1 00000064
  01  ATT_FindInfoRsp::?relay
      | Stack used (prev) :  000006E1 00000064
      | + function block  :  00000000 00000000
  <-Sub-tree of type: Function tree
    | Stack used          :  000006E1 00000064


  ->Sub-tree of type: Function tree
                             XSTACK   ISTACK
    | Stack used (prev) :  000006E1 00000064
  01  ATT_FindByTypeValueRsp::?relay
      | Stack used (prev) :  000006E1 00000064
      | + function block  :  00000000 00000000
  <-Sub-tree of type: Function tree
    | Stack used          :  000006E1 00000064


  ->Sub-tree of type: Function tree
                             XSTACK   ISTACK
    | Stack used (prev) :  000006E1 00000064
  01  ATT_ReadByTypeRsp::?relay
      | Stack used (prev) :  000006E1 00000064
      | + function block  :  00000000 00000000
  <-Sub-tree of type: Function tree
    | Stack used          :  000006E1 00000064


  ->Sub-tree of type: Function tree
                             XSTACK   ISTACK
    | Stack used (prev) :  000006E1 00000064
  01  ATT_ReadRsp::?relay
      | Stack used (prev) :  000006E1 00000064
      | + function block  :  00000000 00000000
  <-Sub-tree of type: Function tree
    | Stack used          :  000006E1 00000064


  ->Sub-tree of type: Function tree
                             XSTACK   ISTACK
    | Stack used (prev) :  000006E1 00000064
  01  ATT_ReadBlobRsp::?relay
      | Stack used (prev) :  000006E1 00000064
      | + function block  :  00000000 00000000
  <-Sub-tree of type: Function tree
    | Stack used          :  000006E1 00000064


  ->Sub-tree of type: Function tree
                             XSTACK   ISTACK
    | Stack used (prev) :  000006E1 00000064
  01  ATT_ReadMultiRsp::?relay
      | Stack used (prev) :  000006E1 00000064
      | + function block  :  00000000 00000000
  <-Sub-tree of type: Function tree
    | Stack used          :  000006E1 00000064


  ->Sub-tree of type: Function tree
                             XSTACK   ISTACK
    | Stack used (prev) :  000006E1 00000064
  01  ATT_ReadByGrpTypeRsp::?relay
      | Stack used (prev) :  000006E1 00000064
      | + function block  :  00000000 00000000
  <-Sub-tree of type: Function tree
    | Stack used          :  000006E1 00000064


  ->Sub-tree of type: Function tree
                             XSTACK   ISTACK
    | Stack used (prev) :  000006E1 00000064
  01  ATT_WriteRsp::?relay
      | Stack used (prev) :  000006E1 00000064
      | + function block  :  00000000 00000000
  <-Sub-tree of type: Function tree
    | Stack used          :  000006E1 00000064


  ->Sub-tree of type: Function tree
                             XSTACK   ISTACK
    | Stack used (prev) :  000006E1 00000064
  01  ATT_PrepareWriteRsp::?relay
      | Stack used (prev) :  000006E1 00000064
      | + function block  :  00000000 00000000
  <-Sub-tree of type: Function tree
    | Stack used          :  000006E1 00000064


  ->Sub-tree of type: Function tree
                             XSTACK   ISTACK
    | Stack used (prev) :  000006E1 00000064
  01  ATT_ExecuteWriteRsp::?relay
      | Stack used (prev) :  000006E1 00000064
      | + function block  :  00000000 00000000
  <-Sub-tree of type: Function tree
    | Stack used          :  000006E1 00000064


  ->Sub-tree of type: Function tree
                             XSTACK   ISTACK
    | Stack used (prev) :  000006E1 00000064
  01  ATT_HandleValueNoti::?relay
      | Stack used (prev) :  000006E1 00000064
      | + function block  :  00000000 00000000
  <-Sub-tree of type: Function tree
    | Stack used          :  000006E1 00000064


  ->Sub-tree of type: Function tree
                             XSTACK   ISTACK
    | Stack used (prev) :  000006E1 00000064
  01  ATT_HandleValueInd::?relay
      | Stack used (prev) :  000006E1 00000064
      | + function block  :  00000000 00000000
  <-Sub-tree of type: Function tree
    | Stack used          :  000006E1 00000064


  ->Sub-tree of type: Function tree
                             XSTACK   ISTACK
    | Stack used (prev) :  000006E1 00000064
  01  ATT_BuildErrorRsp
      | Stack used (prev) :  000006E1 00000064
      | + function block  :  00000009 00000001
  <-Sub-tree of type: Function tree
    | Stack used          :  000006EA 00000065


  ->Sub-tree of type: Function tree
                             XSTACK   ISTACK
    | Stack used (prev) :  000006EA 00000065
  01  ATT_ParseExchangeMTUReq
      | Stack used (prev) :  000006EA 00000065
      | + function block  :  0000000D 00000000
  <-Sub-tree of type: Function tree
    | Stack used          :  000006F7 00000065


  ->Sub-tree of type: Function tree
                             XSTACK   ISTACK
    | Stack used (prev) :  000006F7 00000065
  01  ATT_BuildExchangeMTURsp
      | Stack used (prev) :  000006F7 00000065
      | + function block  :  00000000 00000003
  <-Sub-tree of type: Function tree
    | Stack used          :  000006F7 00000068


  ->Sub-tree of type: Function tree
                             XSTACK   ISTACK
    | Stack used (prev) :  000006F7 00000068
  01  ATT_ParseFindInfoReq
      | Stack used (prev) :  000006F7 00000068
      | + function block  :  0000000D 00000000
  <-Sub-tree of type: Function tree
    | Stack used          :  00000704 00000068


  ->Sub-tree of type: Function tree
                             XSTACK   ISTACK
    | Stack used (prev) :  00000704 00000068
  02    osal_memcpy
        | Stack used (prev) :  00000000 00000000
        | + function block  :  00000019 00000001
        |  Already listed
  01  ATT_BuildFindInfoRsp
      | Stack used (prev) :  00000704 00000068
      | + function block  :  00000014 00000001
  <-Sub-tree of type: Function tree
    | Stack used          :  00000718 00000069


  ->Sub-tree of type: Function tree
                             XSTACK   ISTACK
    | Stack used (prev) :  00000718 00000069
  02    osal_memcpy
        | Stack used (prev) :  00000000 00000000
        | + function block  :  00000019 00000001
        |  Already listed
  01  ATT_ParseFindByTypeValueReq
      | Stack used (prev) :  00000718 00000069
      | + function block  :  00000014 00000001
  <-Sub-tree of type: Function tree
    | Stack used          :  0000072C 0000006A


  ->Sub-tree of type: Function tree
                             XSTACK   ISTACK
    | Stack used (prev) :  0000072C 0000006A
  01  ATT_BuildFindByTypeValueRsp
      | Stack used (prev) :  0000072C 0000006A
      | + function block  :  0000000B 00000001
  <-Sub-tree of type: Function tree
    | Stack used          :  00000737 0000006B


  ->Sub-tree of type: Function tree
                             XSTACK   ISTACK
    | Stack used (prev) :  00000737 0000006B
  02    osal_memcpy
        | Stack used (prev) :  00000000 00000000
        | + function block  :  00000019 00000001
        |  Already listed
  01  ATT_ParseReadByTypeReq
      | Stack used (prev) :  00000737 0000006B
      | + function block  :  00000010 00000000
  <-Sub-tree of type: Function tree
    | Stack used          :  00000747 0000006B


  ->Sub-tree of type: Function tree
                             XSTACK   ISTACK
    | Stack used (prev) :  00000747 0000006B
  02    osal_memcpy
        | Stack used (prev) :  00000000 00000000
        | + function block  :  00000019 00000001
        |  Already listed
  01  ATT_BuildReadByTypeRsp
      | Stack used (prev) :  00000747 0000006B
      | + function block  :  0000000C 00000001
  <-Sub-tree of type: Function tree
    | Stack used          :  00000753 0000006C


  ->Sub-tree of type: Function tree
                             XSTACK   ISTACK
    | Stack used (prev) :  00000753 0000006C
  01  ATT_ParseReadReq
      | Stack used (prev) :  00000753 0000006C
      | + function block  :  0000000D 00000000
  <-Sub-tree of type: Function tree
    | Stack used          :  00000760 0000006C


  ->Sub-tree of type: Function tree
                             XSTACK   ISTACK
    | Stack used (prev) :  00000760 0000006C
  02    osal_memcpy
        | Stack used (prev) :  00000000 00000000
        | + function block  :  00000019 00000001
        |  Already listed
  01  ATT_BuildReadRsp
      | Stack used (prev) :  00000760 0000006C
      | + function block  :  0000000C 00000000
  <-Sub-tree of type: Function tree
    | Stack used          :  0000076C 0000006C


  ->Sub-tree of type: Function tree
                             XSTACK   ISTACK
    | Stack used (prev) :  0000076C 0000006C
  02    osal_memcpy
        | Stack used (prev) :  00000000 00000000
        | + function block  :  00000019 00000001
        |  Already listed
  01  ATT_ParseWriteReq
      | Stack used (prev) :  0000076C 0000006C
      | + function block  :  00000012 00000001
  <-Sub-tree of type: Function tree
    | Stack used          :  0000077E 0000006D


  ->Sub-tree of type: Function tree
                             XSTACK   ISTACK
    | Stack used (prev) :  0000077E 0000006D
  01  ATT_ParseReadBlobReq
      | Stack used (prev) :  0000077E 0000006D
      | + function block  :  0000000D 00000000
  <-Sub-tree of type: Function tree
    | Stack used          :  0000078B 0000006D


  ->Sub-tree of type: Function tree
                             XSTACK   ISTACK
    | Stack used (prev) :  0000078B 0000006D
  02    osal_memcpy
        | Stack used (prev) :  00000000 00000000
        | + function block  :  00000019 00000001
        |  Already listed
  01  ATT_BuildReadBlobRsp
      | Stack used (prev) :  0000078B 0000006D
      | + function block  :  0000000C 00000000
  <-Sub-tree of type: Function tree
    | Stack used          :  00000797 0000006D


  ->Sub-tree of type: Function tree
                             XSTACK   ISTACK
    | Stack used (prev) :  00000797 0000006D
  01  ATT_ParseReadMultiReq
      | Stack used (prev) :  00000797 0000006D
      | + function block  :  0000000E 00000001
  <-Sub-tree of type: Function tree
    | Stack used          :  000007A5 0000006E


  ->Sub-tree of type: Function tree
                             XSTACK   ISTACK
    | Stack used (prev) :  000007A5 0000006E
  02    osal_memcpy
        | Stack used (prev) :  00000000 00000000
        | + function block  :  00000019 00000001
        |  Already listed
  01  ATT_BuildReadMultiRsp
      | Stack used (prev) :  000007A5 0000006E
      | + function block  :  0000000C 00000000
  <-Sub-tree of type: Function tree
    | Stack used          :  000007B1 0000006E


  ->Sub-tree of type: Function tree
                             XSTACK   ISTACK
    | Stack used (prev) :  000007B1 0000006E
  02    osal_memcpy
        | Stack used (prev) :  00000000 00000000
        | + function block  :  00000019 00000001
        |  Already listed
  01  ATT_BuildReadByGrpTypeRsp
      | Stack used (prev) :  000007B1 0000006E
      | + function block  :  0000000C 00000001
  <-Sub-tree of type: Function tree
    | Stack used          :  000007BD 0000006F


  ->Sub-tree of type: Function tree
                             XSTACK   ISTACK
    | Stack used (prev) :  000007BD 0000006F
  02    osal_memcpy
        | Stack used (prev) :  00000000 00000000
        | + function block  :  00000019 00000001
        |  Already listed
  01  ATT_ParsePrepareWriteReq
      | Stack used (prev) :  000007BD 0000006F
      | + function block  :  00000010 00000001
  <-Sub-tree of type: Function tree
    | Stack used          :  000007CD 00000070


  ->Sub-tree of type: Function tree
                             XSTACK   ISTACK
    | Stack used (prev) :  000007CD 00000070
  02    osal_memcpy
        | Stack used (prev) :  00000000 00000000
        | + function block  :  00000019 00000001
        |  Already listed
  01  ATT_BuildPrepareWriteRsp
      | Stack used (prev) :  000007CD 00000070
      | + function block  :  0000000C 00000001
  <-Sub-tree of type: Function tree
    | Stack used          :  000007D9 00000071


  ->Sub-tree of type: Function tree
                             XSTACK   ISTACK
    | Stack used (prev) :  000007D9 00000071
  01  ATT_ParseExecuteWriteReq
      | Stack used (prev) :  000007D9 00000071
      | + function block  :  00000004 00000003
  <-Sub-tree of type: Function tree
    | Stack used          :  000007DD 00000074


  ->Sub-tree of type: Function tree
                             XSTACK   ISTACK
    | Stack used (prev) :  000007DD 00000074
  02    osal_memcpy
        | Stack used (prev) :  00000000 00000000
        | + function block  :  00000019 00000001
        |  Already listed
  01  ATT_BuildHandleValueInd
      | Stack used (prev) :  000007DD 00000074
      | + function block  :  0000000C 00000001
  <-Sub-tree of type: Function tree
    | Stack used          :  000007E9 00000075


  ->Sub-tree of type: Function tree
                             XSTACK   ISTACK
    | Stack used (prev) :  000007E9 00000075
  01  ATT_ParsePacket::?relay
      | Stack used (prev) :  000007E9 00000075
      | + function block  :  00000000 00000000
  <-Sub-tree of type: Function tree
    | Stack used          :  000007E9 00000075


  ->Sub-tree of type: Function tree
                             XSTACK   ISTACK
    | Stack used (prev) :  000007E9 00000075
  01  ATT_BuildErrorRsp::?relay
      | Stack used (prev) :  000007E9 00000075
      | + function block  :  00000000 00000000
  <-Sub-tree of type: Function tree
    | Stack used          :  000007E9 00000075


  ->Sub-tree of type: Function tree
                             XSTACK   ISTACK
    | Stack used (prev) :  000007E9 00000075
  01  ATT_ParseExchangeMTUReq::?relay
      | Stack used (prev) :  000007E9 00000075
      | + function block  :  00000000 00000000
  <-Sub-tree of type: Function tree
    | Stack used          :  000007E9 00000075


  ->Sub-tree of type: Function tree
                             XSTACK   ISTACK
    | Stack used (prev) :  000007E9 00000075
  01  ATT_BuildExchangeMTURsp::?relay
      | Stack used (prev) :  000007E9 00000075
      | + function block  :  00000000 00000000
  <-Sub-tree of type: Function tree
    | Stack used          :  000007E9 00000075


  ->Sub-tree of type: Function tree
                             XSTACK   ISTACK
    | Stack used (prev) :  000007E9 00000075
  01  ATT_ParseFindInfoReq::?relay
      | Stack used (prev) :  000007E9 00000075
      | + function block  :  00000000 00000000
  <-Sub-tree of type: Function tree
    | Stack used          :  000007E9 00000075


  ->Sub-tree of type: Function tree
                             XSTACK   ISTACK
    | Stack used (prev) :  000007E9 00000075
  01  ATT_BuildFindInfoRsp::?relay
      | Stack used (prev) :  000007E9 00000075
      | + function block  :  00000000 00000000
  <-Sub-tree of type: Function tree
    | Stack used          :  000007E9 00000075


  ->Sub-tree of type: Function tree
                             XSTACK   ISTACK
    | Stack used (prev) :  000007E9 00000075
  01  ATT_ParseFindByTypeValueReq::?relay
      | Stack used (prev) :  000007E9 00000075
      | + function block  :  00000000 00000000
  <-Sub-tree of type: Function tree
    | Stack used          :  000007E9 00000075


  ->Sub-tree of type: Function tree
                             XSTACK   ISTACK
    | Stack used (prev) :  000007E9 00000075
  01  ATT_BuildFindByTypeValueRsp::?relay
      | Stack used (prev) :  000007E9 00000075
      | + function block  :  00000000 00000000
  <-Sub-tree of type: Function tree
    | Stack used          :  000007E9 00000075


  ->Sub-tree of type: Function tree
                             XSTACK   ISTACK
    | Stack used (prev) :  000007E9 00000075
  01  ATT_ParseReadByTypeReq::?relay
      | Stack used (prev) :  000007E9 00000075
      | + function block  :  00000000 00000000
  <-Sub-tree of type: Function tree
    | Stack used          :  000007E9 00000075


  ->Sub-tree of type: Function tree
                             XSTACK   ISTACK
    | Stack used (prev) :  000007E9 00000075
  01  ATT_BuildReadByTypeRsp::?relay
      | Stack used (prev) :  000007E9 00000075
      | + function block  :  00000000 00000000
  <-Sub-tree of type: Function tree
    | Stack used          :  000007E9 00000075


  ->Sub-tree of type: Function tree
                             XSTACK   ISTACK
    | Stack used (prev) :  000007E9 00000075
  01  ATT_ParseReadReq::?relay
      | Stack used (prev) :  000007E9 00000075
      | + function block  :  00000000 00000000
  <-Sub-tree of type: Function tree
    | Stack used          :  000007E9 00000075


  ->Sub-tree of type: Function tree
                             XSTACK   ISTACK
    | Stack used (prev) :  000007E9 00000075
  01  ATT_BuildReadRsp::?relay
      | Stack used (prev) :  000007E9 00000075
      | + function block  :  00000000 00000000
  <-Sub-tree of type: Function tree
    | Stack used          :  000007E9 00000075


  ->Sub-tree of type: Function tree
                             XSTACK   ISTACK
    | Stack used (prev) :  000007E9 00000075
  01  ATT_ParseWriteReq::?relay
      | Stack used (prev) :  000007E9 00000075
      | + function block  :  00000000 00000000
  <-Sub-tree of type: Function tree
    | Stack used          :  000007E9 00000075


  ->Sub-tree of type: Function tree
                             XSTACK   ISTACK
    | Stack used (prev) :  000007E9 00000075
  01  ATT_ParseReadBlobReq::?relay
      | Stack used (prev) :  000007E9 00000075
      | + function block  :  00000000 00000000
  <-Sub-tree of type: Function tree
    | Stack used          :  000007E9 00000075


  ->Sub-tree of type: Function tree
                             XSTACK   ISTACK
    | Stack used (prev) :  000007E9 00000075
  01  ATT_BuildReadBlobRsp::?relay
      | Stack used (prev) :  000007E9 00000075
      | + function block  :  00000000 00000000
  <-Sub-tree of type: Function tree
    | Stack used          :  000007E9 00000075


  ->Sub-tree of type: Function tree
                             XSTACK   ISTACK
    | Stack used (prev) :  000007E9 00000075
  01  ATT_ParseReadMultiReq::?relay
      | Stack used (prev) :  000007E9 00000075
      | + function block  :  00000000 00000000
  <-Sub-tree of type: Function tree
    | Stack used          :  000007E9 00000075


  ->Sub-tree of type: Function tree
                             XSTACK   ISTACK
    | Stack used (prev) :  000007E9 00000075
  01  ATT_BuildReadMultiRsp::?relay
      | Stack used (prev) :  000007E9 00000075
      | + function block  :  00000000 00000000
  <-Sub-tree of type: Function tree
    | Stack used          :  000007E9 00000075


  ->Sub-tree of type: Function tree
                             XSTACK   ISTACK
    | Stack used (prev) :  000007E9 00000075
  01  ATT_BuildReadByGrpTypeRsp::?relay
      | Stack used (prev) :  000007E9 00000075
      | + function block  :  00000000 00000000
  <-Sub-tree of type: Function tree
    | Stack used          :  000007E9 00000075


  ->Sub-tree of type: Function tree
                             XSTACK   ISTACK
    | Stack used (prev) :  000007E9 00000075
  01  ATT_ParsePrepareWriteReq::?relay
      | Stack used (prev) :  000007E9 00000075
      | + function block  :  00000000 00000000
  <-Sub-tree of type: Function tree
    | Stack used          :  000007E9 00000075


  ->Sub-tree of type: Function tree
                             XSTACK   ISTACK
    | Stack used (prev) :  000007E9 00000075
  01  ATT_BuildPrepareWriteRsp::?relay
      | Stack used (prev) :  000007E9 00000075
      | + function block  :  00000000 00000000
  <-Sub-tree of type: Function tree
    | Stack used          :  000007E9 00000075


  ->Sub-tree of type: Function tree
                             XSTACK   ISTACK
    | Stack used (prev) :  000007E9 00000075
  01  ATT_ParseExecuteWriteReq::?relay
      | Stack used (prev) :  000007E9 00000075
      | + function block  :  00000000 00000000
  <-Sub-tree of type: Function tree
    | Stack used          :  000007E9 00000075


  ->Sub-tree of type: Function tree
                             XSTACK   ISTACK
    | Stack used (prev) :  000007E9 00000075
  01  ATT_BuildHandleValueInd::?relay
      | Stack used (prev) :  000007E9 00000075
      | + function block  :  00000000 00000000
  <-Sub-tree of type: Function tree
    | Stack used          :  000007E9 00000075


  ->Sub-tree of type: Function tree
                             XSTACK   ISTACK
    | Stack used (prev) :  000007E9 00000075
  01  attSendMsg::?relay
      | Stack used (prev) :  000007E9 00000075
      | + function block  :  00000000 00000000
  <-Sub-tree of type: Function tree
    | Stack used          :  000007E9 00000075


  ->Sub-tree of type: Function tree
                             XSTACK   ISTACK
    | Stack used (prev) :  000007E9 00000075
  01  ATT_CompareUUID::?relay
      | Stack used (prev) :  000007E9 00000075
      | + function block  :  00000000 00000000
  <-Sub-tree of type: Function tree
    | Stack used          :  000007E9 00000075


  ->Sub-tree of type: Function tree
                             XSTACK   ISTACK
    | Stack used (prev) :  000007E9 00000075
  01  ATT_ConvertUUIDto128::?relay
      | Stack used (prev) :  000007E9 00000075
      | + function block  :  00000000 00000000
  <-Sub-tree of type: Function tree
    | Stack used          :  000007E9 00000075


  ->Sub-tree of type: Function tree
                             XSTACK   ISTACK
    | Stack used (prev) :  000007E9 00000075
  01  GAP_SetParamValue::?relay
      | Stack used (prev) :  000007E9 00000075
      | + function block  :  00000000 00000000
  <-Sub-tree of type: Function tree
    | Stack used          :  000007E9 00000075


  ->Sub-tree of type: Function tree
                             XSTACK   ISTACK
    | Stack used (prev) :  000007E9 00000075
  01  GAP_GetParamValue::?relay
      | Stack used (prev) :  000007E9 00000075
      | + function block  :  00000000 00000000
  <-Sub-tree of type: Function tree
    | Stack used          :  000007E9 00000075


  ->Sub-tree of type: Function tree
                             XSTACK   ISTACK
    | Stack used (prev) :  000007E9 00000075
  01  GAP_ParamsInit::?relay
      | Stack used (prev) :  000007E9 00000075
      | + function block  :  00000000 00000000
  <-Sub-tree of type: Function tree
    | Stack used          :  000007E9 00000075


  ->Sub-tree of type: Function tree
                             XSTACK   ISTACK
    | Stack used (prev) :  000007E9 00000075
  01  GAP_SecParamsInit::?relay
      | Stack used (prev) :  000007E9 00000075
      | + function block  :  00000000 00000000
  <-Sub-tree of type: Function tree
    | Stack used          :  000007E9 00000075


  ->Sub-tree of type: Function tree
                             XSTACK   ISTACK
    | Stack used (prev) :  000007E9 00000075
  01  gapReadBD_ADDRStatus::?relay
      | Stack used (prev) :  000007E9 00000075
      | + function block  :  00000000 00000000
  <-Sub-tree of type: Function tree
    | Stack used          :  000007E9 00000075


  ->Sub-tree of type: Function tree
                             XSTACK   ISTACK
    | Stack used (prev) :  000007E9 00000075
  01  gapReadBufSizeCmdStatus::?relay
      | Stack used (prev) :  000007E9 00000075
      | + function block  :  00000000 00000000
  <-Sub-tree of type: Function tree
    | Stack used          :  000007E9 00000075


  ->Sub-tree of type: Function tree
                             XSTACK   ISTACK
    | Stack used (prev) :  000007E9 00000075
  01  gapProcessNewAddr::?relay
      | Stack used (prev) :  000007E9 00000075
      | + function block  :  00000000 00000000
  <-Sub-tree of type: Function tree
    | Stack used          :  000007E9 00000075


  ->Sub-tree of type: Function tree
                             XSTACK   ISTACK
    | Stack used (prev) :  000007E9 00000075
  01  gapAddAddrAdj::?relay
      | Stack used (prev) :  000007E9 00000075
      | + function block  :  00000000 00000000
  <-Sub-tree of type: Function tree
    | Stack used          :  000007E9 00000075


  ->Sub-tree of type: Function tree
                             XSTACK   ISTACK
    | Stack used (prev) :  000007E9 00000075
  01  gapDetermineAddrType::?relay
      | Stack used (prev) :  000007E9 00000075
      | + function block  :  00000000 00000000
  <-Sub-tree of type: Function tree
    | Stack used          :  000007E9 00000075


  ->Sub-tree of type: Function tree
                             XSTACK   ISTACK
    | Stack used (prev) :  000007E9 00000075
  01  gapProcessRandomAddrComplete::?relay
      | Stack used (prev) :  000007E9 00000075
      | + function block  :  00000000 00000000
  <-Sub-tree of type: Function tree
    | Stack used          :  000007E9 00000075


  ->Sub-tree of type: Function tree
                             XSTACK   ISTACK
    | Stack used (prev) :  000007E9 00000075
  01  gapGetSRK::?relay
      | Stack used (prev) :  000007E9 00000075
      | + function block  :  00000000 00000000
  <-Sub-tree of type: Function tree
    | Stack used          :  000007E9 00000075


  ->Sub-tree of type: Function tree
                             XSTACK   ISTACK
    | Stack used (prev) :  000007E9 00000075
  01  gapGetSignCounter::?relay
      | Stack used (prev) :  000007E9 00000075
      | + function block  :  00000000 00000000
  <-Sub-tree of type: Function tree
    | Stack used          :  000007E9 00000075


  ->Sub-tree of type: Function tree
                             XSTACK   ISTACK
    | Stack used (prev) :  000007E9 00000075
  01  gapIncSignCounter::?relay
      | Stack used (prev) :  000007E9 00000075
      | + function block  :  00000000 00000000
  <-Sub-tree of type: Function tree
    | Stack used          :  000007E9 00000075


  ->Sub-tree of type: Function tree
                             XSTACK   ISTACK
    | Stack used (prev) :  000007E9 00000075
  01  gapUpdateConnSignCounter::?relay
      | Stack used (prev) :  000007E9 00000075
      | + function block  :  00000000 00000000
  <-Sub-tree of type: Function tree
    | Stack used          :  000007E9 00000075


  ->Sub-tree of type: Function tree
                             XSTACK   ISTACK
    | Stack used (prev) :  000007E9 00000075
  01  gapGetDevAddressMode::?relay
      | Stack used (prev) :  000007E9 00000075
      | + function block  :  00000000 00000000
  <-Sub-tree of type: Function tree
    | Stack used          :  000007E9 00000075


  ->Sub-tree of type: Function tree
                             XSTACK   ISTACK
    | Stack used (prev) :  000007E9 00000075
  01  gapGetDevAddress::?relay
      | Stack used (prev) :  000007E9 00000075
      | + function block  :  00000000 00000000
  <-Sub-tree of type: Function tree
    | Stack used          :  000007E9 00000075


  ->Sub-tree of type: Function tree
                             XSTACK   ISTACK
    | Stack used (prev) :  000007E9 00000075
  01  gapGetIRK::?relay
      | Stack used (prev) :  000007E9 00000075
      | + function block  :  00000000 00000000
  <-Sub-tree of type: Function tree
    | Stack used          :  000007E9 00000075


  ->Sub-tree of type: Function tree
                             XSTACK   ISTACK
    | Stack used (prev) :  000007E9 00000075
  01  gapSendDeviceInitDoneEvent::?relay
      | Stack used (prev) :  000007E9 00000075
      | + function block  :  00000000 00000000
  <-Sub-tree of type: Function tree
    | Stack used          :  000007E9 00000075


  ->Sub-tree of type: Function tree
                             XSTACK   ISTACK
    | Stack used (prev) :  000007E9 00000075
  01  GAP_ResolvePrivateAddr::?relay
      | Stack used (prev) :  000007E9 00000075
      | + function block  :  00000000 00000000
  <-Sub-tree of type: Function tree
    | Stack used          :  000007E9 00000075


  ->Sub-tree of type: Function tree
                             XSTACK   ISTACK
    | Stack used (prev) :  000007E9 00000075
  01  gapIsAdvertising::?relay
      | Stack used (prev) :  000007E9 00000075
      | + function block  :  00000000 00000000
  <-Sub-tree of type: Function tree
    | Stack used          :  000007E9 00000075


  ->Sub-tree of type: Function tree
                             XSTACK   ISTACK
    | Stack used (prev) :  000007E9 00000075
  01  gapValidADType::?relay
      | Stack used (prev) :  000007E9 00000075
      | + function block  :  00000000 00000000
  <-Sub-tree of type: Function tree
    | Stack used          :  000007E9 00000075


  ->Sub-tree of type: Function tree
                             XSTACK   ISTACK
    | Stack used (prev) :  000007E9 00000075
  01  gapFindADType::?relay
      | Stack used (prev) :  000007E9 00000075
      | + function block  :  00000000 00000000
  <-Sub-tree of type: Function tree
    | Stack used          :  000007E9 00000075


  ->Sub-tree of type: Function tree
                             XSTACK   ISTACK
    | Stack used (prev) :  000007E9 00000075
  01  GAP_TerminateLinkReq::?relay
      | Stack used (prev) :  000007E9 00000075
      | + function block  :  00000000 00000000
  <-Sub-tree of type: Function tree
    | Stack used          :  000007E9 00000075


  ->Sub-tree of type: Function tree
                             XSTACK   ISTACK
    | Stack used (prev) :  000007E9 00000075
  01  GAP_Signable::?relay
      | Stack used (prev) :  000007E9 00000075
      | + function block  :  00000000 00000000
  <-Sub-tree of type: Function tree
    | Stack used          :  000007E9 00000075


  ->Sub-tree of type: Function tree
                             XSTACK   ISTACK
    | Stack used (prev) :  000007E9 00000075
  01  GAP_Authenticate::?relay
      | Stack used (prev) :  000007E9 00000075
      | + function block  :  00000000 00000000
  <-Sub-tree of type: Function tree
    | Stack used          :  000007E9 00000075


  ->Sub-tree of type: Function tree
                             XSTACK   ISTACK
    | Stack used (prev) :  000007E9 00000075
  01  GAP_TerminateAuth::?relay
      | Stack used (prev) :  000007E9 00000075
      | + function block  :  00000000 00000000
  <-Sub-tree of type: Function tree
    | Stack used          :  000007E9 00000075


  ->Sub-tree of type: Function tree
                             XSTACK   ISTACK
    | Stack used (prev) :  000007E9 00000075
  01  GAP_PasscodeUpdate::?relay
      | Stack used (prev) :  000007E9 00000075
      | + function block  :  00000000 00000000
  <-Sub-tree of type: Function tree
    | Stack used          :  000007E9 00000075


  ->Sub-tree of type: Function tree
                             XSTACK   ISTACK
    | Stack used (prev) :  000007E9 00000075
  01  GAP_Bond::?relay
      | Stack used (prev) :  000007E9 00000075
      | + function block  :  00000000 00000000
  <-Sub-tree of type: Function tree
    | Stack used          :  000007E9 00000075


  ->Sub-tree of type: Function tree
                             XSTACK   ISTACK
    | Stack used (prev) :  000007E9 00000075
  01  gapProcessConnectionCompleteEvt::?relay
      | Stack used (prev) :  000007E9 00000075
      | + function block  :  00000000 00000000
  <-Sub-tree of type: Function tree
    | Stack used          :  000007E9 00000075


  ->Sub-tree of type: Function tree
                             XSTACK   ISTACK
    | Stack used (prev) :  000007E9 00000075
  01  gapProcessConnUpdateCompleteEvt::?relay
      | Stack used (prev) :  000007E9 00000075
      | + function block  :  00000000 00000000
  <-Sub-tree of type: Function tree
    | Stack used          :  000007E9 00000075


  ->Sub-tree of type: Function tree
                             XSTACK   ISTACK
    | Stack used (prev) :  000007E9 00000075
  01  gapProcessDisconnectCompleteEvt::?relay
      | Stack used (prev) :  000007E9 00000075
      | + function block  :  00000000 00000000
  <-Sub-tree of type: Function tree
    | Stack used          :  000007E9 00000075


  ->Sub-tree of type: Function tree
                             XSTACK   ISTACK
    | Stack used (prev) :  000007E9 00000075
  01  sendEstLinkEvent::?relay
      | Stack used (prev) :  000007E9 00000075
      | + function block  :  00000000 00000000
  <-Sub-tree of type: Function tree
    | Stack used          :  000007E9 00000075


  ->Sub-tree of type: Function tree
                             XSTACK   ISTACK
    | Stack used (prev) :  000007E9 00000075
  01  sendTerminateEvent::?relay
      | Stack used (prev) :  000007E9 00000075
      | + function block  :  00000000 00000000
  <-Sub-tree of type: Function tree
    | Stack used          :  000007E9 00000075


  ->Sub-tree of type: Function tree
                             XSTACK   ISTACK
    | Stack used (prev) :  000007E9 00000075
  01  gapSendLinkUpdateEvent::?relay
      | Stack used (prev) :  000007E9 00000075
      | + function block  :  00000000 00000000
  <-Sub-tree of type: Function tree
    | Stack used          :  000007E9 00000075


  ->Sub-tree of type: Function tree
                             XSTACK   ISTACK
    | Stack used (prev) :  000007E9 00000075
  01  disconnectNext::?relay
      | Stack used (prev) :  000007E9 00000075
      | + function block  :  00000000 00000000
  <-Sub-tree of type: Function tree
    | Stack used          :  000007E9 00000075


  ->Sub-tree of type: Function tree
                             XSTACK   ISTACK
    | Stack used (prev) :  000007E9 00000075
  01  sendAuthEvent::?relay
      | Stack used (prev) :  000007E9 00000075
      | + function block  :  00000000 00000000
  <-Sub-tree of type: Function tree
    | Stack used          :  000007E9 00000075


  ->Sub-tree of type: Function tree
                             XSTACK   ISTACK
    | Stack used (prev) :  000007E9 00000075
  01  gapFreeAuthLink::?relay
      | Stack used (prev) :  000007E9 00000075
      | + function block  :  00000000 00000000
  <-Sub-tree of type: Function tree
    | Stack used          :  000007E9 00000075


  ->Sub-tree of type: Function tree
                             XSTACK   ISTACK
    | Stack used (prev) :  000007E9 00000075
  01  gapFreeEstLink::?relay
      | Stack used (prev) :  000007E9 00000075
      | + function block  :  00000000 00000000
  <-Sub-tree of type: Function tree
    | Stack used          :  000007E9 00000075


  ->Sub-tree of type: Function tree
                             XSTACK   ISTACK
    | Stack used (prev) :  000007E9 00000075
  01  gapSendBondCompleteEvent::?relay
      | Stack used (prev) :  000007E9 00000075
      | + function block  :  00000000 00000000
  <-Sub-tree of type: Function tree
    | Stack used          :  000007E9 00000075


  ->Sub-tree of type: Function tree
                             XSTACK   ISTACK
    | Stack used (prev) :  000007E9 00000075
  01  gapSendPairingReqEvent::?relay
      | Stack used (prev) :  000007E9 00000075
      | + function block  :  00000000 00000000
  <-Sub-tree of type: Function tree
    | Stack used          :  000007E9 00000075


  ->Sub-tree of type: Function tree
                             XSTACK   ISTACK
    | Stack used (prev) :  000007E9 00000075
  01  gapPasskeyNeededCB::?relay
      | Stack used (prev) :  000007E9 00000075
      | + function block  :  00000000 00000000
  <-Sub-tree of type: Function tree
    | Stack used          :  000007E9 00000075


  ->Sub-tree of type: Function tree
                             XSTACK   ISTACK
    | Stack used (prev) :  000007E9 00000075
  01  gapPairingCompleteCB::?relay
      | Stack used (prev) :  000007E9 00000075
      | + function block  :  00000000 00000000
  <-Sub-tree of type: Function tree
    | Stack used          :  000007E9 00000075


  ->Sub-tree of type: Function tree
                             XSTACK   ISTACK
    | Stack used (prev) :  000007E9 00000075
  01  GAP_MakeDiscoverable::?relay
      | Stack used (prev) :  000007E9 00000075
      | + function block  :  00000000 00000000
  <-Sub-tree of type: Function tree
    | Stack used          :  000007E9 00000075


  ->Sub-tree of type: Function tree
                             XSTACK   ISTACK
    | Stack used (prev) :  000007E9 00000075
  01  GAP_UpdateAdvertisingData::?relay
      | Stack used (prev) :  000007E9 00000075
      | + function block  :  00000000 00000000
  <-Sub-tree of type: Function tree
    | Stack used          :  000007E9 00000075


  ->Sub-tree of type: Function tree
                             XSTACK   ISTACK
    | Stack used (prev) :  000007E9 00000075
  01  GAP_EndDiscoverable::?relay
      | Stack used (prev) :  000007E9 00000075
      | + function block  :  00000000 00000000
  <-Sub-tree of type: Function tree
    | Stack used          :  000007E9 00000075


  ->Sub-tree of type: Function tree
                             XSTACK   ISTACK
    | Stack used (prev) :  000007E9 00000075
  01  GAP_PeriDevMgrInit::?relay
      | Stack used (prev) :  000007E9 00000075
      | + function block  :  00000000 00000000
  <-Sub-tree of type: Function tree
    | Stack used          :  000007E9 00000075


  ->Sub-tree of type: Function tree
                             XSTACK   ISTACK
    | Stack used (prev) :  000007E9 00000075
  01  gapPeriProcessHCICmdCompleteEvt::?relay
      | Stack used (prev) :  000007E9 00000075
      | + function block  :  00000000 00000000
  <-Sub-tree of type: Function tree
    | Stack used          :  000007E9 00000075


  ->Sub-tree of type: Function tree
                             XSTACK   ISTACK
    | Stack used (prev) :  000007E9 00000075
  01  gapSetAdvParams::?relay
      | Stack used (prev) :  000007E9 00000075
      | + function block  :  00000000 00000000
  <-Sub-tree of type: Function tree
    | Stack used          :  000007E9 00000075


  ->Sub-tree of type: Function tree
                             XSTACK   ISTACK
    | Stack used (prev) :  000007E9 00000075
  01  gapSetAdvParamsStatus::?relay
      | Stack used (prev) :  000007E9 00000075
      | + function block  :  00000000 00000000
  <-Sub-tree of type: Function tree
    | Stack used          :  000007E9 00000075


  ->Sub-tree of type: Function tree
                             XSTACK   ISTACK
    | Stack used (prev) :  000007E9 00000075
  01  gapWriteAdvEnableStatus::?relay
      | Stack used (prev) :  000007E9 00000075
      | + function block  :  00000000 00000000
  <-Sub-tree of type: Function tree
    | Stack used          :  000007E9 00000075


  ->Sub-tree of type: Function tree
                             XSTACK   ISTACK
    | Stack used (prev) :  000007E9 00000075
  01  gapWriteAdvDataStatus::?relay
      | Stack used (prev) :  000007E9 00000075
      | + function block  :  00000000 00000000
  <-Sub-tree of type: Function tree
    | Stack used          :  000007E9 00000075


  ->Sub-tree of type: Function tree
                             XSTACK   ISTACK
    | Stack used (prev) :  000007E9 00000075
  01  gapProcessAdvertisingEvt::?relay
      | Stack used (prev) :  000007E9 00000075
      | + function block  :  00000000 00000000
  <-Sub-tree of type: Function tree
    | Stack used          :  000007E9 00000075


  ->Sub-tree of type: Function tree
                             XSTACK   ISTACK
    | Stack used (prev) :  000007E9 00000075
  01  gapSendMakeDiscEvent::?relay
      | Stack used (prev) :  000007E9 00000075
      | + function block  :  00000000 00000000
  <-Sub-tree of type: Function tree
    | Stack used          :  000007E9 00000075


  ->Sub-tree of type: Function tree
                             XSTACK   ISTACK
    | Stack used (prev) :  000007E9 00000075
  01  gapFreeAdvertState::?relay
      | Stack used (prev) :  000007E9 00000075
      | + function block  :  00000000 00000000
  <-Sub-tree of type: Function tree
    | Stack used          :  000007E9 00000075


  ->Sub-tree of type: Function tree
                             XSTACK   ISTACK
    | Stack used (prev) :  000007E9 00000075
  01  isLimitedDiscoverableMode::?relay
      | Stack used (prev) :  000007E9 00000075
      | + function block  :  00000000 00000000
  <-Sub-tree of type: Function tree
    | Stack used          :  000007E9 00000075


  ->Sub-tree of type: Function tree
                             XSTACK   ISTACK
    | Stack used (prev) :  000007E9 00000075
  01  GAP_SendSlaveSecurityRequest::?relay
      | Stack used (prev) :  000007E9 00000075
      | + function block  :  00000000 00000000
  <-Sub-tree of type: Function tree
    | Stack used          :  000007E9 00000075


  ->Sub-tree of type: Function tree
                             XSTACK   ISTACK
    | Stack used (prev) :  000007E9 00000075
  02    osal_stop_timerEx
        | Stack used (prev) :  000001C2 00000034
        | + function block  :  00000018 00000000
        |  Already listed
  03      osal_clear_event
          | Stack used (prev) :  000001B6 00000032
          | + function block  :  00000017 00000000
          |  Already listed
  03      osal_set_event
          | Stack used (prev) :  00000000 00000000
          | + function block  :  00000017 00000000
          |  Already listed
  03      osal_msg_extract
          | Stack used (prev) :  000007E9 00000075
          | + function block  :  0000001D 00000000
  02    osal_msg_receive
        | Stack used (prev) :  00000806 00000075
        | + function block  :  00000020 00000000
  02    osal_msg_send
        | Stack used (prev) :  00000032 00000006
        | + function block  :  00000012 00000000
        |  Already listed
  02    osal_msg_deallocate
        | Stack used (prev) :  0000000A 00000002
        | + function block  :  00000009 00000004
        |  Already listed
  03      osal_memcpy
          | Stack used (prev) :  00000000 00000000
          | + function block  :  00000019 00000001
          |  Already listed
  03      smGenerateRandBuf
          | Stack used (prev) :  0000040A 00000064
          | + function block  :  00000027 00000000
          |  Already listed
  03      sm_ah
          | Stack used (prev) :  0000048E 0000005C
          | + function block  :  00000090 00000000
          |  Already listed
  02    SM_CalcRandomAddr
        | Stack used (prev) :  000007E9 00000075
        | + function block  :  00000011 00000001
  05          osal_bm_free
              | Stack used (prev) :  0000000A 00000002
              | + function block  :  00000014 00000000
              |  Already listed
  05          L2CAP_bm_alloc
              | Stack used (prev) :  00000416 0000005E
              | + function block  :  0000002A 00000000
              |  Already listed
  05          l2capEncapSendData
              | Stack used (prev) :  00000465 0000005C
              | + function block  :  00000036 00000000
              |  Already listed
  04        l2capSendCmd
            | Stack used (prev) :  000007E9 00000075
            | + function block  :  0000002C 00000001
  03      L2CAP_CmdReject
          | Stack used (prev) :  00000815 00000076
          | + function block  :  0000001C 00000000
  05          osal_start_reload_timer
              | Stack used (prev) :  000003F2 0000005A
              | + function block  :  00000016 00000000
              |  Already listed
  05          osal_msg_send
              | Stack used (prev) :  00000032 00000006
              | + function block  :  00000012 00000000
              |  Already listed
  05          osal_msg_allocate
              | Stack used (prev) :  00000018 00000000
              | + function block  :  00000014 00000000
              |  Already listed
  05          osal_memcpy
              | Stack used (prev) :  00000000 00000000
              | + function block  :  00000019 00000001
              |  Already listed
  04        gapProcessRandomAddrComplete
            | Stack used (prev) :  000007E9 00000075
            | + function block  :  00000010 00000001
  06            osal_msg_send
                | Stack used (prev) :  00000032 00000006
                | + function block  :  00000012 00000000
                |  Already listed
  06            osal_msg_allocate
                | Stack used (prev) :  00000018 00000000
                | + function block  :  00000014 00000000
                |  Already listed
  06            osal_memcpy
                | Stack used (prev) :  00000000 00000000
                | + function block  :  00000019 00000001
                |  Already listed
  05          gapSendDeviceInitDoneEvent
              | Stack used (prev) :  000007E9 00000075
              | + function block  :  00000018 00000001
  04        gapReadBufSizeCmdStatus
            | Stack used (prev) :  00000801 00000076
            | + function block  :  00000012 00000000
  05          osal_memcpy
              | Stack used (prev) :  00000000 00000000
              | + function block  :  00000019 00000001
              |  Already listed
  06            HCI_CommandCompleteEvent
                | Stack used (prev) :  00000074 00000006
                | + function block  :  0000002B 00000000
                |  Already listed
  05          HCI_LE_ReadBufSizeCmd
              | Stack used (prev) :  000007E9 00000075
              | + function block  :  00000004 00000002
  05          gapSendDeviceInitDoneEvent
              | Stack used (prev) :  000007E9 00000075
              | + function block  :  00000018 00000001
              |  Already listed
  04        gapReadBD_ADDRStatus
            | Stack used (prev) :  00000801 00000077
            | + function block  :  00000014 00000000
  03      gapProcessHCICmdCompleteEvt
          | Stack used (prev) :  00000815 00000077
          | + function block  :  00000028 00000000
  04        linkDB_Find
            | Stack used (prev) :  000003F2 0000005A
            | + function block  :  00000014 00000002
            |  Already listed
  05          osal_mem_free
              | Stack used (prev) :  00000000 00000000
              | + function block  :  0000000A 00000002
              |  Already listed
  05          osal_memset
              | Stack used (prev) :  000003F4 0000005C
              | + function block  :  00000018 00000000
              |  Already listed
  05          reportStatusChange
              | Stack used (prev) :  000007E9 00000075
              | + function block  :  0000001E 00000000
  05          linkDB_Find
              | Stack used (prev) :  000003F2 0000005A
              | + function block  :  00000014 00000002
              |  Already listed
  04        linkDB_Remove
            | Stack used (prev) :  00000807 00000075
            | + function block  :  00000014 00000000
  04        gapFreeAuthLink
            | Stack used (prev) :  000003F2 0000005A
            | + function block  :  00000014 00000002
            |  Already listed
  04        disconnectNext
            | Stack used (prev) :  0000045C 0000005D
            | + function block  :  0000002A 00000000
            |  Already listed
  05          osal_msg_send
              | Stack used (prev) :  00000032 00000006
              | + function block  :  00000012 00000000
              |  Already listed
  05          osal_msg_allocate
              | Stack used (prev) :  00000018 00000000
              | + function block  :  00000014 00000000
              |  Already listed
  04        sendTerminateEvent
            | Stack used (prev) :  000007E9 00000075
            | + function block  :  00000024 00000001
  03      gapProcessDisconnectCompleteEvt
          | Stack used (prev) :  0000081B 00000076
          | + function block  :  0000001C 00000000
  05          osal_msg_send
              | Stack used (prev) :  00000032 00000006
              | + function block  :  00000012 00000000
              |  Already listed
  05          osal_msg_allocate
              | Stack used (prev) :  00000018 00000000
              | + function block  :  00000014 00000000
              |  Already listed
  05          linkDB_Find
              | Stack used (prev) :  000003F2 0000005A
              | + function block  :  00000014 00000002
              |  Already listed
  04        gapSendLinkUpdateEvent
            | Stack used (prev) :  000007E9 00000075
            | + function block  :  00000021 00000001
  03      gapProcessConnUpdateCompleteEvt
          | Stack used (prev) :  0000080A 00000076
          | + function block  :  0000001A 00000000
  05          osal_memcpy
              | Stack used (prev) :  00000000 00000000
              | + function block  :  00000019 00000001
              |  Already listed
  05          reportStatusChange
              | Stack used (prev) :  000007E9 00000075
              | + function block  :  0000001E 00000000
              |  Already listed
  05          linkDB_Find
              | Stack used (prev) :  000003F2 0000005A
              | + function block  :  00000014 00000002
              |  Already listed
  05          linkDB_Find
              | Stack used (prev) :  000003F2 0000005A
              | + function block  :  00000014 00000002
              |  Already listed
  04        linkDB_Add
            | Stack used (prev) :  00000807 00000075
            | + function block  :  0000002C 00000001
  05          osal_mem_free
              | Stack used (prev) :  00000000 00000000
              | + function block  :  0000000A 00000002
              |  Already listed
  04        gapFreeEstLink
            | Stack used (prev) :  000007E9 00000075
            | + function block  :  00000016 00000002
  04        disconnectNext
            | Stack used (prev) :  0000045C 0000005D
            | + function block  :  0000002A 00000000
            |  Already listed
  04        sendTerminateEvent
            | Stack used (prev) :  000007E9 00000075
            | + function block  :  00000024 00000001
            |  Already listed
  05          osal_msg_send
              | Stack used (prev) :  00000032 00000006
              | + function block  :  00000012 00000000
              |  Already listed
  05          osal_msg_allocate
              | Stack used (prev) :  00000018 00000000
              | + function block  :  00000014 00000000
              |  Already listed
  05          osal_memset
              | Stack used (prev) :  000003F4 0000005C
              | + function block  :  00000018 00000000
              |  Already listed
  05          osal_memcpy
              | Stack used (prev) :  00000000 00000000
              | + function block  :  00000019 00000001
              |  Already listed
  04        sendEstLinkEvent
            | Stack used (prev) :  000007E9 00000075
            | + function block  :  0000003A 00000001
  04        gapDetermineAddrType
            | Stack used (prev) :  000007E9 00000075
            | + function block  :  00000000 00000002
  03      gapProcessConnectionCompleteEvt
          | Stack used (prev) :  00000833 00000077
          | + function block  :  00000034 00000000
  02    gapProcessOSALMsg
        | Stack used (prev) :  00000867 00000077
        | + function block  :  00000032 00000000
  02    gapIsAdvertising
        | Stack used (prev) :  000007E9 00000075
        | + function block  :  00000000 00000002
  02    gapGetIRK
        | Stack used (prev) :  000003F2 0000005A
        | + function block  :  00000000 00000002
        |  Already listed
  03      osal_memcpy
          | Stack used (prev) :  00000000 00000000
          | + function block  :  00000019 00000001
          |  Already listed
  04        LL_SetRandomAddress
            | Stack used (prev) :  000007E9 00000075
            | + function block  :  00000000 00000002
  04        HCI_CommandCompleteEvent
            | Stack used (prev) :  00000074 00000006
            | + function block  :  0000002B 00000000
            |  Already listed
  03      HCI_LE_SetRandomAddressCmd
          | Stack used (prev) :  000007E9 00000077
          | + function block  :  00000002 00000004
  03      gapAddAddrAdj
          | Stack used (prev) :  000003F2 0000005A
          | + function block  :  0000000A 00000002
          |  Already listed
  02    gapProcessNewAddr
        | Stack used (prev) :  000007EB 0000007B
        | + function block  :  00000028 00000000
  02    GAP_GetParamValue
        | Stack used (prev) :  000003F2 0000005A
        | + function block  :  00000014 00000002
        |  Already listed
  01  GAP_ProcessEvent
      | Stack used (prev) :  00000899 0000007B
      | + function block  :  00000024 00000000
  <-Sub-tree of type: Function tree
    | Stack used          :  000008BD 0000007B


  ->Sub-tree of type: Function tree
                             XSTACK   ISTACK
    | Stack used (prev) :  000008BD 0000007B
  01  GAP_RegisterForHCIMsgs::?relay
      | Stack used (prev) :  000008BD 0000007B
      | + function block  :  00000000 00000000
  <-Sub-tree of type: Function tree
    | Stack used          :  000008BD 0000007B


  ->Sub-tree of type: Function tree
                             XSTACK   ISTACK
    | Stack used (prev) :  000008BD 0000007B
  01  GAP_Init::?relay
      | Stack used (prev) :  000008BD 0000007B
      | + function block  :  00000000 00000000
  <-Sub-tree of type: Function tree
    | Stack used          :  000008BD 0000007B


  ->Sub-tree of type: Function tree
                             XSTACK   ISTACK
    | Stack used (prev) :  000008BD 0000007B
  01  GAP_ProcessEvent::?relay
      | Stack used (prev) :  000008BD 0000007B
      | + function block  :  00000000 00000000
  <-Sub-tree of type: Function tree
    | Stack used          :  000008BD 0000007B


  ->Sub-tree of type: Function tree
                             XSTACK   ISTACK
    | Stack used (prev) :  000008BD 0000007B
  01  GAP_NumActiveConnections::?relay
      | Stack used (prev) :  000008BD 0000007B
      | + function block  :  00000000 00000000
  <-Sub-tree of type: Function tree
    | Stack used          :  000008BD 0000007B


  ->Sub-tree of type: Function tree
                             XSTACK   ISTACK
    | Stack used (prev) :  000008BD 0000007B
  01  gapProcessOSALMsg::?relay
      | Stack used (prev) :  000008BD 0000007B
      | + function block  :  00000000 00000000
  <-Sub-tree of type: Function tree
    | Stack used          :  000008BD 0000007B


  ->Sub-tree of type: Function tree
                             XSTACK   ISTACK
    | Stack used (prev) :  000008BD 0000007B
  01  gapProcessHCICmdCompleteEvt::?relay
      | Stack used (prev) :  000008BD 0000007B
      | + function block  :  00000000 00000000
  <-Sub-tree of type: Function tree
    | Stack used          :  000008BD 0000007B


  ->Sub-tree of type: Function tree
                             XSTACK   ISTACK
    | Stack used (prev) :  000008BD 0000007B
  01  gapRegisterPeripheral::?relay
      | Stack used (prev) :  000008BD 0000007B
      | + function block  :  00000000 00000000
  <-Sub-tree of type: Function tree
    | Stack used          :  000008BD 0000007B


  ->Sub-tree of type: Function tree
                             XSTACK   ISTACK
    | Stack used (prev) :  000008BD 0000007B
  01  GGS_SetParameter::?relay
      | Stack used (prev) :  000008BD 0000007B
      | + function block  :  00000000 00000000
  <-Sub-tree of type: Function tree
    | Stack used          :  000008BD 0000007B


  ->Sub-tree of type: Function tree
                             XSTACK   ISTACK
    | Stack used (prev) :  000008BD 0000007B
  01  GGS_AddService::?relay
      | Stack used (prev) :  000008BD 0000007B
      | + function block  :  00000000 00000000
  <-Sub-tree of type: Function tree
    | Stack used          :  000008BD 0000007B


  ->Sub-tree of type: Function tree
                             XSTACK   ISTACK
    | Stack used (prev) :  000008BD 0000007B
  01  ggs_SetAttrWPermit::?relay
      | Stack used (prev) :  000008BD 0000007B
      | + function block  :  00000000 00000000
  <-Sub-tree of type: Function tree
    | Stack used          :  000008BD 0000007B


  ->Sub-tree of type: Function tree
                             XSTACK   ISTACK
    | Stack used (prev) :  000008BD 0000007B
  01  ggs_ReadAttrCB::?relay
      | Stack used (prev) :  000008BD 0000007B
      | + function block  :  00000000 00000000
  <-Sub-tree of type: Function tree
    | Stack used          :  000008BD 0000007B


  ->Sub-tree of type: Function tree
                             XSTACK   ISTACK
    | Stack used (prev) :  000008BD 0000007B
  01  ggs_WriteAttrCB::?relay
      | Stack used (prev) :  000008BD 0000007B
      | + function block  :  00000000 00000000
  <-Sub-tree of type: Function tree
    | Stack used          :  000008BD 0000007B


  ->Sub-tree of type: Function tree
                             XSTACK   ISTACK
    | Stack used (prev) :  000008BD 0000007B
  01  GATT_InitServer::?relay
      | Stack used (prev) :  000008BD 0000007B
      | + function block  :  00000000 00000000
  <-Sub-tree of type: Function tree
    | Stack used          :  000008BD 0000007B


  ->Sub-tree of type: Function tree
                             XSTACK   ISTACK
    | Stack used (prev) :  000008BD 0000007B
  01  GATT_RegisterService::?relay
      | Stack used (prev) :  000008BD 0000007B
      | + function block  :  00000000 00000000
  <-Sub-tree of type: Function tree
    | Stack used          :  000008BD 0000007B


  ->Sub-tree of type: Function tree
                             XSTACK   ISTACK
    | Stack used (prev) :  000008BD 0000007B
  01  GATT_RegisterForReq::?relay
      | Stack used (prev) :  000008BD 0000007B
      | + function block  :  00000000 00000000
  <-Sub-tree of type: Function tree
    | Stack used          :  000008BD 0000007B


  ->Sub-tree of type: Function tree
                             XSTACK   ISTACK
    | Stack used (prev) :  000008BD 0000007B
  01  GATT_VerifyReadPermissions::?relay
      | Stack used (prev) :  000008BD 0000007B
      | + function block  :  00000000 00000000
  <-Sub-tree of type: Function tree
    | Stack used          :  000008BD 0000007B


  ->Sub-tree of type: Function tree
                             XSTACK   ISTACK
    | Stack used (prev) :  000008BD 0000007B
  01  GATT_VerifyWritePermissions::?relay
      | Stack used (prev) :  000008BD 0000007B
      | + function block  :  00000000 00000000
  <-Sub-tree of type: Function tree
    | Stack used          :  000008BD 0000007B


  ->Sub-tree of type: Function tree
                             XSTACK   ISTACK
    | Stack used (prev) :  000008BD 0000007B
  01  GATT_ServiceChangedInd::?relay
      | Stack used (prev) :  000008BD 0000007B
      | + function block  :  00000000 00000000
  <-Sub-tree of type: Function tree
    | Stack used          :  000008BD 0000007B


  ->Sub-tree of type: Function tree
                             XSTACK   ISTACK
    | Stack used (prev) :  000008BD 0000007B
  01  GATT_FindHandleUUID::?relay
      | Stack used (prev) :  000008BD 0000007B
      | + function block  :  00000000 00000000
  <-Sub-tree of type: Function tree
    | Stack used          :  000008BD 0000007B


  ->Sub-tree of type: Function tree
                             XSTACK   ISTACK
    | Stack used (prev) :  000008BD 0000007B
  01  GATT_FindHandle::?relay
      | Stack used (prev) :  000008BD 0000007B
      | + function block  :  00000000 00000000
  <-Sub-tree of type: Function tree
    | Stack used          :  000008BD 0000007B


  ->Sub-tree of type: Function tree
                             XSTACK   ISTACK
    | Stack used (prev) :  000008BD 0000007B
  01  GATT_FindNextAttr::?relay
      | Stack used (prev) :  000008BD 0000007B
      | + function block  :  00000000 00000000
  <-Sub-tree of type: Function tree
    | Stack used          :  000008BD 0000007B


  ->Sub-tree of type: Function tree
                             XSTACK   ISTACK
    | Stack used (prev) :  000008BD 0000007B
  01  GATT_ServiceNumAttrs::?relay
      | Stack used (prev) :  000008BD 0000007B
      | + function block  :  00000000 00000000
  <-Sub-tree of type: Function tree
    | Stack used          :  000008BD 0000007B


  ->Sub-tree of type: Function tree
                             XSTACK   ISTACK
    | Stack used (prev) :  000008BD 0000007B
  01  GATT_Indication::?relay
      | Stack used (prev) :  000008BD 0000007B
      | + function block  :  00000000 00000000
  <-Sub-tree of type: Function tree
    | Stack used          :  000008BD 0000007B


  ->Sub-tree of type: Function tree
                             XSTACK   ISTACK
    | Stack used (prev) :  000008BD 0000007B
  01  GATT_Notification::?relay
      | Stack used (prev) :  000008BD 0000007B
      | + function block  :  00000000 00000000
  <-Sub-tree of type: Function tree
    | Stack used          :  000008BD 0000007B


  ->Sub-tree of type: Function tree
                             XSTACK   ISTACK
    | Stack used (prev) :  000008BD 0000007B
  01  gattServiceLastHandle::?relay
      | Stack used (prev) :  000008BD 0000007B
      | + function block  :  00000000 00000000
  <-Sub-tree of type: Function tree
    | Stack used          :  000008BD 0000007B


  ->Sub-tree of type: Function tree
                             XSTACK   ISTACK
    | Stack used (prev) :  000008BD 0000007B
  01  gattServerProcessMsgCB::?relay
      | Stack used (prev) :  000008BD 0000007B
      | + function block  :  00000000 00000000
  <-Sub-tree of type: Function tree
    | Stack used          :  000008BD 0000007B


  ->Sub-tree of type: Function tree
                             XSTACK   ISTACK
    | Stack used (prev) :  000008BD 0000007B
  01  gattProcessExchangeMTUReq::?relay
      | Stack used (prev) :  000008BD 0000007B
      | + function block  :  00000000 00000000
  <-Sub-tree of type: Function tree
    | Stack used          :  000008BD 0000007B


  ->Sub-tree of type: Function tree
                             XSTACK   ISTACK
    | Stack used (prev) :  000008BD 0000007B
  01  gattProcessFindInfoReq::?relay
      | Stack used (prev) :  000008BD 0000007B
      | + function block  :  00000000 00000000
  <-Sub-tree of type: Function tree
    | Stack used          :  000008BD 0000007B


  ->Sub-tree of type: Function tree
                             XSTACK   ISTACK
    | Stack used (prev) :  000008BD 0000007B
  01  gattProcessFindByTypeValueReq::?relay
      | Stack used (prev) :  000008BD 0000007B
      | + function block  :  00000000 00000000
  <-Sub-tree of type: Function tree
    | Stack used          :  000008BD 0000007B


  ->Sub-tree of type: Function tree
                             XSTACK   ISTACK
    | Stack used (prev) :  000008BD 0000007B
  01  gattProcessReadByTypeReq::?relay
      | Stack used (prev) :  000008BD 0000007B
      | + function block  :  00000000 00000000
  <-Sub-tree of type: Function tree
    | Stack used          :  000008BD 0000007B


  ->Sub-tree of type: Function tree
                             XSTACK   ISTACK
    | Stack used (prev) :  000008BD 0000007B
  01  gattProcessReadReq::?relay
      | Stack used (prev) :  000008BD 0000007B
      | + function block  :  00000000 00000000
  <-Sub-tree of type: Function tree
    | Stack used          :  000008BD 0000007B


  ->Sub-tree of type: Function tree
                             XSTACK   ISTACK
    | Stack used (prev) :  000008BD 0000007B
  01  gattProcessReadMultiReq::?relay
      | Stack used (prev) :  000008BD 0000007B
      | + function block  :  00000000 00000000
  <-Sub-tree of type: Function tree
    | Stack used          :  000008BD 0000007B


  ->Sub-tree of type: Function tree
                             XSTACK   ISTACK
    | Stack used (prev) :  000008BD 0000007B
  01  gattProcessReadByGrpTypeReq::?relay
      | Stack used (prev) :  000008BD 0000007B
      | + function block  :  00000000 00000000
  <-Sub-tree of type: Function tree
    | Stack used          :  000008BD 0000007B


  ->Sub-tree of type: Function tree
                             XSTACK   ISTACK
    | Stack used (prev) :  000008BD 0000007B
  01  gattProcessWriteReq::?relay
      | Stack used (prev) :  000008BD 0000007B
      | + function block  :  00000000 00000000
  <-Sub-tree of type: Function tree
    | Stack used          :  000008BD 0000007B


  ->Sub-tree of type: Function tree
                             XSTACK   ISTACK
    | Stack used (prev) :  000008BD 0000007B
  01  gattProcessExecuteWriteReq::?relay
      | Stack used (prev) :  000008BD 0000007B
      | + function block  :  00000000 00000000
  <-Sub-tree of type: Function tree
    | Stack used          :  000008BD 0000007B


  ->Sub-tree of type: Function tree
                             XSTACK   ISTACK
    | Stack used (prev) :  000008BD 0000007B
  01  gattGetServerStatus::?relay
      | Stack used (prev) :  000008BD 0000007B
      | + function block  :  00000000 00000000
  <-Sub-tree of type: Function tree
    | Stack used          :  000008BD 0000007B


  ->Sub-tree of type: Function tree
                             XSTACK   ISTACK
    | Stack used (prev) :  000008BD 0000007B
  01  gattFindServerInfo::?relay
      | Stack used (prev) :  000008BD 0000007B
      | + function block  :  00000000 00000000
  <-Sub-tree of type: Function tree
    | Stack used          :  000008BD 0000007B


  ->Sub-tree of type: Function tree
                             XSTACK   ISTACK
    | Stack used (prev) :  000008BD 0000007B
  01  gattServerHandleTimerCB::?relay
      | Stack used (prev) :  000008BD 0000007B
      | + function block  :  00000000 00000000
  <-Sub-tree of type: Function tree
    | Stack used          :  000008BD 0000007B


  ->Sub-tree of type: Function tree
                             XSTACK   ISTACK
    | Stack used (prev) :  000008BD 0000007B
  01  gattServerHandleConnStatusCB::?relay
      | Stack used (prev) :  000008BD 0000007B
      | + function block  :  00000000 00000000
  <-Sub-tree of type: Function tree
    | Stack used          :  000008BD 0000007B


  ->Sub-tree of type: Function tree
                             XSTACK   ISTACK
    | Stack used (prev) :  000008BD 0000007B
  02    osal_msg_receive
        | Stack used (prev) :  00000806 00000075
        | + function block  :  00000020 00000000
        |  Already listed
  02    osal_msg_deallocate
        | Stack used (prev) :  0000000A 00000002
        | + function block  :  00000009 00000004
        |  Already listed
  03      osal_bm_free
          | Stack used (prev) :  0000000A 00000002
          | + function block  :  00000014 00000000
          |  Already listed
  05          LL_CtrlToHostFlowControl
              | Stack used (prev) :  00000000 00000000
              | + function block  :  00000000 00000002
              |  Already listed
  05          HCI_CommandCompleteEvent
              | Stack used (prev) :  00000074 00000006
              | + function block  :  0000002B 00000000
              |  Already listed
  04        HCI_HostNumCompletedPktCmd
            | Stack used (prev) :  000008BD 0000007B
            | + function block  :  0000000C 00000000
  03      L2CAP_HostNumCompletedPkts
          | Stack used (prev) :  000008C9 0000007B
          | + function block  :  00000008 00000004
  05          osal_mem_free
              | Stack used (prev) :  00000000 00000000
              | + function block  :  0000000A 00000002
              |  Already listed
  05          osal_mem_alloc
              | Stack used (prev) :  00000000 00000000
              | + function block  :  00000018 00000000
              |  Already listed
  05          osal_memset
              | Stack used (prev) :  000003F4 0000005C
              | + function block  :  00000018 00000000
              |  Already listed
  05          osal_memcmp
              | Stack used (prev) :  000003F2 0000005A
              | + function block  :  0000000D 00000000
              |  Already listed
  05          osal_revmemcpy
              | Stack used (prev) :  000003F2 0000005A
              | + function block  :  0000000B 00000001
              |  Already listed
  05          sm_CMAC
              | Stack used (prev) :  0000047E 0000005C
              | + function block  :  00000097 00000000
              |  Already listed
  05          linkDB_Find
              | Stack used (prev) :  000003F2 0000005A
              | + function block  :  00000014 00000002
              |  Already listed
  06            osal_msg_send
                | Stack used (prev) :  00000032 00000006
                | + function block  :  00000012 00000000
                |  Already listed
  06            osal_msg_allocate
                | Stack used (prev) :  00000018 00000000
                | + function block  :  00000014 00000000
                |  Already listed
  06            osal_memcpy
                | Stack used (prev) :  00000000 00000000
                | + function block  :  00000019 00000001
                |  Already listed
  06            linkDB_Find
                | Stack used (prev) :  000003F2 0000005A
                | + function block  :  00000014 00000002
                |  Already listed
  06            GAP_GetParamValue
                | Stack used (prev) :  000003F2 0000005A
                | + function block  :  00000014 00000002
                |  Already listed
  05          gapUpdateConnSignCounter
              | Stack used (prev) :  000008BD 0000007B
              | + function block  :  00000018 00000001
  04        SM_VerifyAuthenSig
            | Stack used (prev) :  000008D5 0000007B
            | + function block  :  00000081 00000001
  03      ATT_ParsePacket
          | Stack used (prev) :  00000956 0000007B
          | + function block  :  00000022 00000001
  03      ATT_ErrorRsp
          | Stack used (prev) :  000005AB 0000005E
          | + function block  :  00000018 00000000
          |  Already listed
  02    gattProcessRxData
        | Stack used (prev) :  00000978 0000007F
        | + function block  :  00000038 00000000
  01  GATT_ProcessEvent
      | Stack used (prev) :  000009B0 0000007F
      | + function block  :  00000018 00000000
  <-Sub-tree of type: Function tree
    | Stack used          :  000009C8 0000007F


  ->Sub-tree of type: Function tree
                             XSTACK   ISTACK
    | Stack used (prev) :  000009C8 0000007F
  01  gattRegisterServer::?relay
      | Stack used (prev) :  000009C8 0000007F
      | + function block  :  00000000 00000000
  <-Sub-tree of type: Function tree
    | Stack used          :  000009C8 0000007F


  ->Sub-tree of type: Function tree
                             XSTACK   ISTACK
    | Stack used (prev) :  000009C8 0000007F
  01  GATT_AppCompletedMsg::?relay
      | Stack used (prev) :  000009C8 0000007F
      | + function block  :  00000000 00000000
  <-Sub-tree of type: Function tree
    | Stack used          :  000009C8 0000007F


  ->Sub-tree of type: Function tree
                             XSTACK   ISTACK
    | Stack used (prev) :  000009C8 0000007F
  01  GATT_Init::?relay
      | Stack used (prev) :  000009C8 0000007F
      | + function block  :  00000000 00000000
  <-Sub-tree of type: Function tree
    | Stack used          :  000009C8 0000007F


  ->Sub-tree of type: Function tree
                             XSTACK   ISTACK
    | Stack used (prev) :  000009C8 0000007F
  01  GATT_ProcessEvent::?relay
      | Stack used (prev) :  000009C8 0000007F
      | + function block  :  00000000 00000000
  <-Sub-tree of type: Function tree
    | Stack used          :  000009C8 0000007F


  ->Sub-tree of type: Function tree
                             XSTACK   ISTACK
    | Stack used (prev) :  000009C8 0000007F
  01  gattProcessRxData::?relay
      | Stack used (prev) :  000009C8 0000007F
      | + function block  :  00000000 00000000
  <-Sub-tree of type: Function tree
    | Stack used          :  000009C8 0000007F


  ->Sub-tree of type: Function tree
                             XSTACK   ISTACK
    | Stack used (prev) :  000009C8 0000007F
  01  gattNotifyEvent::?relay
      | Stack used (prev) :  000009C8 0000007F
      | + function block  :  00000000 00000000
  <-Sub-tree of type: Function tree
    | Stack used          :  000009C8 0000007F


  ->Sub-tree of type: Function tree
                             XSTACK   ISTACK
    | Stack used (prev) :  000009C8 0000007F
  01  gattStartTimer::?relay
      | Stack used (prev) :  000009C8 0000007F
      | + function block  :  00000000 00000000
  <-Sub-tree of type: Function tree
    | Stack used          :  000009C8 0000007F


  ->Sub-tree of type: Function tree
                             XSTACK   ISTACK
    | Stack used (prev) :  000009C8 0000007F
  01  gattStopTimer::?relay
      | Stack used (prev) :  000009C8 0000007F
      | + function block  :  00000000 00000000
  <-Sub-tree of type: Function tree
    | Stack used          :  000009C8 0000007F


  ->Sub-tree of type: Function tree
                             XSTACK   ISTACK
    | Stack used (prev) :  000009C8 0000007F
  02    osal_msg_receive
        | Stack used (prev) :  00000806 00000075
        | + function block  :  00000020 00000000
        |  Already listed
  02    osal_msg_deallocate
        | Stack used (prev) :  0000000A 00000002
        | + function block  :  00000009 00000004
        |  Already listed
  04        osal_memset
            | Stack used (prev) :  000003F4 0000005C
            | + function block  :  00000018 00000000
            |  Already listed
  04        osal_memcpy
            | Stack used (prev) :  00000000 00000000
            | + function block  :  00000019 00000001
            |  Already listed
  04        osal_strlen
            | Stack used (prev) :  000001EA 00000048
            | + function block  :  00000000 00000004
            |  Already listed
  04        GATTServApp_ReadCharCfg
            | Stack used (prev) :  00000400 0000005C
            | + function block  :  00000031 00000000
            |  Already listed
  05          gattServApp_FindServiceCBs
              | Stack used (prev) :  000009C8 0000007F
              | + function block  :  0000001D 00000002
  04        gattServApp_FindAuthorizeAttrCB
            | Stack used (prev) :  000009E5 00000081
            | + function block  :  00000031 00000000
  04        gattServApp_FindServiceCBs
            | Stack used (prev) :  000009C8 0000007F
            | + function block  :  0000001D 00000002
            |  Already listed
  06            GATT_ServiceNumAttrs
                | Stack used (prev) :  000009C8 0000007F
                | + function block  :  0000000A 00000002
  05          gattServiceLastHandle
              | Stack used (prev) :  000009D2 00000081
              | + function block  :  00000026 00000000
  05          gattServiceLastHandle
              | Stack used (prev) :  000009D2 00000081
              | + function block  :  00000026 00000000
              |  Already listed
  05          GATT_FindHandleUUID
              | Stack used (prev) :  00000458 0000005B
              | + function block  :  00000060 00000000
              |  Already listed
  05          ATT_CompareUUID
              | Stack used (prev) :  0000041C 0000005B
              | + function block  :  0000003C 00000000
              |  Already listed
  04        GATT_FindNextAttr
            | Stack used (prev) :  000009F8 00000081
            | + function block  :  00000028 00000000
  04        GATT_FindHandle
            | Stack used (prev) :  000003F2 0000005A
            | + function block  :  00000022 00000000
            |  Already listed
  04        ATT_CompareUUID
            | Stack used (prev) :  0000041C 0000005B
            | + function block  :  0000003C 00000000
            |  Already listed
  03      GATTServApp_ReadAttr
          | Stack used (prev) :  00000A20 00000081
          | + function block  :  0000007B 00000000
  03      GATTServApp_ReadAttr
          | Stack used (prev) :  00000A20 00000081
          | + function block  :  0000007B 00000000
          |  Already listed
  04        osal_memset
            | Stack used (prev) :  000003F4 0000005C
            | + function block  :  00000018 00000000
            |  Already listed
  05          gattServApp_FindServiceCBs
              | Stack used (prev) :  000009C8 0000007F
              | + function block  :  0000001D 00000002
              |  Already listed
  05          GATT_FindHandle
              | Stack used (prev) :  000003F2 0000005A
              | + function block  :  00000022 00000000
              |  Already listed
  04        GATTServApp_WriteAttr
            | Stack used (prev) :  000009E5 00000081
            | + function block  :  00000044 00000000
  04        gattServApp_FindPrepareWriteQ
            | Stack used (prev) :  000003F2 0000005A
            | + function block  :  00000014 00000002
            |  Already listed
  05          attSendMsg
              | Stack used (prev) :  00000579 0000005E
              | + function block  :  00000032 00000000
              |  Already listed
  04        ATT_ExecuteWriteRsp
            | Stack used (prev) :  000009C8 0000007F
            | + function block  :  0000000C 00000000
  03      gattServApp_ProcessExecuteWriteReq
          | Stack used (prev) :  00000A29 00000081
          | + function block  :  0000004A 00000000
  04        osal_memcpy
            | Stack used (prev) :  00000000 00000000
            | + function block  :  00000019 00000001
            |  Already listed
  04        gattServApp_FindAuthorizeAttrCB
            | Stack used (prev) :  000009E5 00000081
            | + function block  :  00000031 00000000
            |  Already listed
  04        gattServApp_FindPrepareWriteQ
            | Stack used (prev) :  000003F2 0000005A
            | + function block  :  00000014 00000002
            |  Already listed
  04        gattServApp_FindPrepareWriteQ
            | Stack used (prev) :  000003F2 0000005A
            | + function block  :  00000014 00000002
            |  Already listed
  04        GATT_FindHandle
            | Stack used (prev) :  000003F2 0000005A
            | + function block  :  00000022 00000000
            |  Already listed
  05          attSendMsg
              | Stack used (prev) :  00000579 0000005E
              | + function block  :  00000032 00000000
              |  Already listed
  04        ATT_PrepareWriteRsp
            | Stack used (prev) :  000009C8 0000007F
            | + function block  :  0000000C 00000000
  03      gattServApp_ProcessPrepareWriteReq
          | Stack used (prev) :  00000A16 00000081
          | + function block  :  0000003E 00000000
  04        GATTServApp_WriteAttr
            | Stack used (prev) :  000009E5 00000081
            | + function block  :  00000044 00000000
            |  Already listed
  04        gattServApp_FindAuthorizeAttrCB
            | Stack used (prev) :  000009E5 00000081
            | + function block  :  00000031 00000000
            |  Already listed
  04        GATT_FindHandle
            | Stack used (prev) :  000003F2 0000005A
            | + function block  :  00000022 00000000
            |  Already listed
  05          attSendMsg
              | Stack used (prev) :  00000579 0000005E
              | + function block  :  00000032 00000000
              |  Already listed
  04        ATT_WriteRsp
            | Stack used (prev) :  000009C8 0000007F
            | + function block  :  0000000C 00000000
  03      gattServApp_ProcessWriteReq
          | Stack used (prev) :  00000A29 00000081
          | + function block  :  0000004E 00000000
  04        osal_memcpy
            | Stack used (prev) :  00000000 00000000
            | + function block  :  00000019 00000001
            |  Already listed
  04        GATTServApp_ReadAttr
            | Stack used (prev) :  00000A20 00000081
            | + function block  :  0000007B 00000000
            |  Already listed
  04        GATT_FindNextAttr
            | Stack used (prev) :  000009F8 00000081
            | + function block  :  00000028 00000000
            |  Already listed
  04        GATT_FindHandleUUID
            | Stack used (prev) :  00000458 0000005B
            | + function block  :  00000060 00000000
            |  Already listed
  04        GATT_VerifyReadPermissions
            | Stack used (prev) :  0000041E 0000005C
            | + function block  :  00000022 00000000
            |  Already listed
  05          attSendMsg
              | Stack used (prev) :  00000579 0000005E
              | + function block  :  00000032 00000000
              |  Already listed
  04        ATT_ReadByGrpTypeRsp
            | Stack used (prev) :  000009C8 0000007F
            | + function block  :  0000000C 00000000
  03      gattServApp_ProcessReadByGrpTypeReq
          | Stack used (prev) :  00000A9B 00000081
          | + function block  :  0000005A 00000000
  04        osal_memcpy
            | Stack used (prev) :  00000000 00000000
            | + function block  :  00000019 00000001
            |  Already listed
  04        GATTServApp_ReadAttr
            | Stack used (prev) :  00000A20 00000081
            | + function block  :  0000007B 00000000
            |  Already listed
  04        GATT_FindHandle
            | Stack used (prev) :  000003F2 0000005A
            | + function block  :  00000022 00000000
            |  Already listed
  05          attSendMsg
              | Stack used (prev) :  00000579 0000005E
              | + function block  :  00000032 00000000
              |  Already listed
  04        ATT_ReadMultiRsp
            | Stack used (prev) :  000009C8 0000007F
            | + function block  :  0000000C 00000000
  03      gattServApp_ProcessReadMultiReq
          | Stack used (prev) :  00000A9B 00000081
          | + function block  :  0000004E 00000000
  04        osal_memcpy
            | Stack used (prev) :  00000000 00000000
            | + function block  :  00000019 00000001
            |  Already listed
  04        GATTServApp_ReadAttr
            | Stack used (prev) :  00000A20 00000081
            | + function block  :  0000007B 00000000
            |  Already listed
  04        GATT_FindHandleUUID
            | Stack used (prev) :  00000458 0000005B
            | + function block  :  00000060 00000000
            |  Already listed
  04        GATT_VerifyReadPermissions
            | Stack used (prev) :  0000041E 0000005C
            | + function block  :  00000022 00000000
            |  Already listed
  05          attSendMsg
              | Stack used (prev) :  00000579 0000005E
              | + function block  :  00000032 00000000
              |  Already listed
  04        ATT_ReadByTypeRsp
            | Stack used (prev) :  000009C8 0000007F
            | + function block  :  0000000C 00000000
  03      gattServApp_ProcessReadByTypeReq
          | Stack used (prev) :  00000A9B 00000081
          | + function block  :  00000056 00000000
  04        osal_memset
            | Stack used (prev) :  000003F4 0000005C
            | + function block  :  00000018 00000000
            |  Already listed
  04        osal_memcmp
            | Stack used (prev) :  000003F2 0000005A
            | + function block  :  0000000D 00000000
            |  Already listed
  04        GATTServApp_ReadAttr
            | Stack used (prev) :  00000A20 00000081
            | + function block  :  0000007B 00000000
            |  Already listed
  04        GATT_FindNextAttr
            | Stack used (prev) :  000009F8 00000081
            | + function block  :  00000028 00000000
            |  Already listed
  04        GATT_FindHandleUUID
            | Stack used (prev) :  00000458 0000005B
            | + function block  :  00000060 00000000
            |  Already listed
  05          attSendMsg
              | Stack used (prev) :  00000579 0000005E
              | + function block  :  00000032 00000000
              |  Already listed
  04        ATT_FindByTypeValueRsp
            | Stack used (prev) :  000009C8 0000007F
            | + function block  :  0000000C 00000000
  03      gattServApp_ProcessFindByTypeValueReq
          | Stack used (prev) :  00000A9B 00000081
          | + function block  :  00000052 00000000
  04        L2CAP_HostNumCompletedPkts
            | Stack used (prev) :  000008C9 0000007B
            | + function block  :  00000008 00000004
            |  Already listed
  03      GATT_AppCompletedMsg
          | Stack used (prev) :  000009C8 0000007F
          | + function block  :  00000000 00000004
  03      GATT_FindHandle
          | Stack used (prev) :  000003F2 0000005A
          | + function block  :  00000022 00000000
          |  Already listed
  04        attSendMsg
            | Stack used (prev) :  00000579 0000005E
            | + function block  :  00000032 00000000
            |  Already listed
  03      ATT_ReadBlobRsp
          | Stack used (prev) :  000009C8 0000007F
          | + function block  :  0000000C 00000000
  04        attSendMsg
            | Stack used (prev) :  00000579 0000005E
            | + function block  :  00000032 00000000
            |  Already listed
  03      ATT_ReadRsp
          | Stack used (prev) :  000009C8 0000007F
          | + function block  :  0000000C 00000000
  04        attSendMsg
            | Stack used (prev) :  00000579 0000005E
            | + function block  :  00000032 00000000
            |  Already listed
  03      ATT_ExchangeMTURsp
          | Stack used (prev) :  000009C8 0000007F
          | + function block  :  0000000C 00000000
  03      ATT_ErrorRsp
          | Stack used (prev) :  000005AB 0000005E
          | + function block  :  00000018 00000000
          |  Already listed
  02    gattServApp_ProcessMsg
        | Stack used (prev) :  00000AF5 00000083
        | + function block  :  00000038 00000000
  01  GATTServApp_ProcessEvent
      | Stack used (prev) :  00000B2D 00000083
      | + function block  :  00000018 00000000
  <-Sub-tree of type: Function tree
    | Stack used          :  00000B45 00000083


  ->Sub-tree of type: Function tree
                             XSTACK   ISTACK
    | Stack used (prev) :  00000B45 00000083
  01  GATTServApp_RegisterForMsg::?relay
      | Stack used (prev) :  00000B45 00000083
      | + function block  :  00000000 00000000
  <-Sub-tree of type: Function tree
    | Stack used          :  00000B45 00000083


  ->Sub-tree of type: Function tree
                             XSTACK   ISTACK
    | Stack used (prev) :  00000B45 00000083
  01  GATTServApp_Init::?relay
      | Stack used (prev) :  00000B45 00000083
      | + function block  :  00000000 00000000
  <-Sub-tree of type: Function tree
    | Stack used          :  00000B45 00000083


  ->Sub-tree of type: Function tree
                             XSTACK   ISTACK
    | Stack used (prev) :  00000B45 00000083
  01  GATTServApp_ProcessEvent::?relay
      | Stack used (prev) :  00000B45 00000083
      | + function block  :  00000000 00000000
  <-Sub-tree of type: Function tree
    | Stack used          :  00000B45 00000083


  ->Sub-tree of type: Function tree
                             XSTACK   ISTACK
    | Stack used (prev) :  00000B45 00000083
  01  GATTServApp_RegisterService::?relay
      | Stack used (prev) :  00000B45 00000083
      | + function block  :  00000000 00000000
  <-Sub-tree of type: Function tree
    | Stack used          :  00000B45 00000083


  ->Sub-tree of type: Function tree
                             XSTACK   ISTACK
    | Stack used (prev) :  00000B45 00000083
  01  gattServApp_SetNumPrepareWrites::?relay
      | Stack used (prev) :  00000B45 00000083
      | + function block  :  00000000 00000000
  <-Sub-tree of type: Function tree
    | Stack used          :  00000B45 00000083


  ->Sub-tree of type: Function tree
                             XSTACK   ISTACK
    | Stack used (prev) :  00000B45 00000083
  01  GATTServApp_FindAttr::?relay
      | Stack used (prev) :  00000B45 00000083
      | + function block  :  00000000 00000000
  <-Sub-tree of type: Function tree
    | Stack used          :  00000B45 00000083


  ->Sub-tree of type: Function tree
                             XSTACK   ISTACK
    | Stack used (prev) :  00000B45 00000083
  01  GATTServApp_AddService::?relay
      | Stack used (prev) :  00000B45 00000083
      | + function block  :  00000000 00000000
  <-Sub-tree of type: Function tree
    | Stack used          :  00000B45 00000083


  ->Sub-tree of type: Function tree
                             XSTACK   ISTACK
    | Stack used (prev) :  00000B45 00000083
  01  gattServApp_FindServiceCBs::?relay
      | Stack used (prev) :  00000B45 00000083
      | + function block  :  00000000 00000000
  <-Sub-tree of type: Function tree
    | Stack used          :  00000B45 00000083


  ->Sub-tree of type: Function tree
                             XSTACK   ISTACK
    | Stack used (prev) :  00000B45 00000083
  01  gattServApp_ProcessMsg::?relay
      | Stack used (prev) :  00000B45 00000083
      | + function block  :  00000000 00000000
  <-Sub-tree of type: Function tree
    | Stack used          :  00000B45 00000083


  ->Sub-tree of type: Function tree
                             XSTACK   ISTACK
    | Stack used (prev) :  00000B45 00000083
  01  gattServApp_ProcessFindByTypeValueReq::?relay
      | Stack used (prev) :  00000B45 00000083
      | + function block  :  00000000 00000000
  <-Sub-tree of type: Function tree
    | Stack used          :  00000B45 00000083


  ->Sub-tree of type: Function tree
                             XSTACK   ISTACK
    | Stack used (prev) :  00000B45 00000083
  01  gattServApp_ProcessReadByTypeReq::?relay
      | Stack used (prev) :  00000B45 00000083
      | + function block  :  00000000 00000000
  <-Sub-tree of type: Function tree
    | Stack used          :  00000B45 00000083


  ->Sub-tree of type: Function tree
                             XSTACK   ISTACK
    | Stack used (prev) :  00000B45 00000083
  01  gattServApp_ProcessReadMultiReq::?relay
      | Stack used (prev) :  00000B45 00000083
      | + function block  :  00000000 00000000
  <-Sub-tree of type: Function tree
    | Stack used          :  00000B45 00000083


  ->Sub-tree of type: Function tree
                             XSTACK   ISTACK
    | Stack used (prev) :  00000B45 00000083
  01  gattServApp_ProcessReadByGrpTypeReq::?relay
      | Stack used (prev) :  00000B45 00000083
      | + function block  :  00000000 00000000
  <-Sub-tree of type: Function tree
    | Stack used          :  00000B45 00000083


  ->Sub-tree of type: Function tree
                             XSTACK   ISTACK
    | Stack used (prev) :  00000B45 00000083
  01  gattServApp_ProcessWriteReq::?relay
      | Stack used (prev) :  00000B45 00000083
      | + function block  :  00000000 00000000
  <-Sub-tree of type: Function tree
    | Stack used          :  00000B45 00000083


  ->Sub-tree of type: Function tree
                             XSTACK   ISTACK
    | Stack used (prev) :  00000B45 00000083
  01  gattServApp_ProcessPrepareWriteReq::?relay
      | Stack used (prev) :  00000B45 00000083
      | + function block  :  00000000 00000000
  <-Sub-tree of type: Function tree
    | Stack used          :  00000B45 00000083


  ->Sub-tree of type: Function tree
                             XSTACK   ISTACK
    | Stack used (prev) :  00000B45 00000083
  01  gattServApp_ProcessExecuteWriteReq::?relay
      | Stack used (prev) :  00000B45 00000083
      | + function block  :  00000000 00000000
  <-Sub-tree of type: Function tree
    | Stack used          :  00000B45 00000083


  ->Sub-tree of type: Function tree
                             XSTACK   ISTACK
    | Stack used (prev) :  00000B45 00000083
  01  gattServApp_FindPrepareWriteQ::?relay
      | Stack used (prev) :  00000B45 00000083
      | + function block  :  00000000 00000000
  <-Sub-tree of type: Function tree
    | Stack used          :  00000B45 00000083


  ->Sub-tree of type: Function tree
                             XSTACK   ISTACK
    | Stack used (prev) :  00000B45 00000083
  01  gattServApp_FindCharCfgItem::?relay
      | Stack used (prev) :  00000B45 00000083
      | + function block  :  00000000 00000000
  <-Sub-tree of type: Function tree
    | Stack used          :  00000B45 00000083


  ->Sub-tree of type: Function tree
                             XSTACK   ISTACK
    | Stack used (prev) :  00000B45 00000083
  01  gattServApp_FindAuthorizeAttrCB::?relay
      | Stack used (prev) :  00000B45 00000083
      | + function block  :  00000000 00000000
  <-Sub-tree of type: Function tree
    | Stack used          :  00000B45 00000083


  ->Sub-tree of type: Function tree
                             XSTACK   ISTACK
    | Stack used (prev) :  00000B45 00000083
  01  gattServApp_WriteAttrCB::?relay
      | Stack used (prev) :  00000B45 00000083
      | + function block  :  00000000 00000000
  <-Sub-tree of type: Function tree
    | Stack used          :  00000B45 00000083


  ->Sub-tree of type: Function tree
                             XSTACK   ISTACK
    | Stack used (prev) :  00000B45 00000083
  01  GATTServApp_ReadAttr::?relay
      | Stack used (prev) :  00000B45 00000083
      | + function block  :  00000000 00000000
  <-Sub-tree of type: Function tree
    | Stack used          :  00000B45 00000083


  ->Sub-tree of type: Function tree
                             XSTACK   ISTACK
    | Stack used (prev) :  00000B45 00000083
  01  GATTServApp_WriteAttr::?relay
      | Stack used (prev) :  00000B45 00000083
      | + function block  :  00000000 00000000
  <-Sub-tree of type: Function tree
    | Stack used          :  00000B45 00000083


  ->Sub-tree of type: Function tree
                             XSTACK   ISTACK
    | Stack used (prev) :  00000B45 00000083
  01  GATTServApp_UpdateCharCfg::?relay
      | Stack used (prev) :  00000B45 00000083
      | + function block  :  00000000 00000000
  <-Sub-tree of type: Function tree
    | Stack used          :  00000B45 00000083


  ->Sub-tree of type: Function tree
                             XSTACK   ISTACK
    | Stack used (prev) :  00000B45 00000083
  01  GATTServApp_SendServiceChangedInd::?relay
      | Stack used (prev) :  00000B45 00000083
      | + function block  :  00000000 00000000
  <-Sub-tree of type: Function tree
    | Stack used          :  00000B45 00000083


  ->Sub-tree of type: Function tree
                             XSTACK   ISTACK
    | Stack used (prev) :  00000B45 00000083
  01  GATTServApp_InitCharCfg::?relay
      | Stack used (prev) :  00000B45 00000083
      | + function block  :  00000000 00000000
  <-Sub-tree of type: Function tree
    | Stack used          :  00000B45 00000083


  ->Sub-tree of type: Function tree
                             XSTACK   ISTACK
    | Stack used (prev) :  00000B45 00000083
  01  GATTServApp_ReadCharCfg::?relay
      | Stack used (prev) :  00000B45 00000083
      | + function block  :  00000000 00000000
  <-Sub-tree of type: Function tree
    | Stack used          :  00000B45 00000083


  ->Sub-tree of type: Function tree
                             XSTACK   ISTACK
    | Stack used (prev) :  00000B45 00000083
  01  GATTServApp_WriteCharCfg::?relay
      | Stack used (prev) :  00000B45 00000083
      | + function block  :  00000000 00000000
  <-Sub-tree of type: Function tree
    | Stack used          :  00000B45 00000083


  ->Sub-tree of type: Function tree
                             XSTACK   ISTACK
    | Stack used (prev) :  00000B45 00000083
  01  GATTServApp_ProcessCCCWriteReq::?relay
      | Stack used (prev) :  00000B45 00000083
      | + function block  :  00000000 00000000
  <-Sub-tree of type: Function tree
    | Stack used          :  00000B45 00000083


  ->Sub-tree of type: Function tree
                             XSTACK   ISTACK
    | Stack used (prev) :  00000B45 00000083
  01  GATTServApp_ProcessCharCfg::?relay
      | Stack used (prev) :  00000B45 00000083
      | + function block  :  00000000 00000000
  <-Sub-tree of type: Function tree
    | Stack used          :  00000B45 00000083


  ->Sub-tree of type: Function tree
                             XSTACK   ISTACK
    | Stack used (prev) :  00000B45 00000083
  01  gattServApp_HandleConnStatusCB::?relay
      | Stack used (prev) :  00000B45 00000083
      | + function block  :  00000000 00000000
  <-Sub-tree of type: Function tree
    | Stack used          :  00000B45 00000083


  ->Sub-tree of type: Function tree
                             XSTACK   ISTACK
    | Stack used (prev) :  00000B45 00000083
  01  GATTServApp_SendCCCUpdatedEvent::?relay
      | Stack used (prev) :  00000B45 00000083
      | + function block  :  00000000 00000000
  <-Sub-tree of type: Function tree
    | Stack used          :  00000B45 00000083


  ->Sub-tree of type: Function tree
                             XSTACK   ISTACK
    | Stack used (prev) :  00000B45 00000083
  01  HCI_bm_alloc::?relay
      | Stack used (prev) :  00000B45 00000083
      | + function block  :  00000000 00000000
  <-Sub-tree of type: Function tree
    | Stack used          :  00000B45 00000083


  ->Sub-tree of type: Function tree
                             XSTACK   ISTACK
    | Stack used (prev) :  00000B45 00000083
  01  HCI_SendDataPkt::?relay
      | Stack used (prev) :  00000B45 00000083
      | + function block  :  00000000 00000000
  <-Sub-tree of type: Function tree
    | Stack used          :  00000B45 00000083


  ->Sub-tree of type: Function tree
                             XSTACK   ISTACK
    | Stack used (prev) :  00000B45 00000083
  01  HCI_DisconnectCmd::?relay
      | Stack used (prev) :  00000B45 00000083
      | + function block  :  00000000 00000000
  <-Sub-tree of type: Function tree
    | Stack used          :  00000B45 00000083


  ->Sub-tree of type: Function tree
                             XSTACK   ISTACK
    | Stack used (prev) :  00000B45 00000083
  01  HCI_HostNumCompletedPktCmd::?relay
      | Stack used (prev) :  00000B45 00000083
      | + function block  :  00000000 00000000
  <-Sub-tree of type: Function tree
    | Stack used          :  00000B45 00000083


  ->Sub-tree of type: Function tree
                             XSTACK   ISTACK
    | Stack used (prev) :  00000B45 00000083
  01  HCI_ReadBDADDRCmd::?relay
      | Stack used (prev) :  00000B45 00000083
      | + function block  :  00000000 00000000
  <-Sub-tree of type: Function tree
    | Stack used          :  00000B45 00000083


  ->Sub-tree of type: Function tree
                             XSTACK   ISTACK
    | Stack used (prev) :  00000B45 00000083
  01  HCI_ReadRssiCmd::?relay
      | Stack used (prev) :  00000B45 00000083
      | + function block  :  00000000 00000000
  <-Sub-tree of type: Function tree
    | Stack used          :  00000B45 00000083


  ->Sub-tree of type: Function tree
                             XSTACK   ISTACK
    | Stack used (prev) :  00000B45 00000083
  01  HCI_LE_ReadBufSizeCmd::?relay
      | Stack used (prev) :  00000B45 00000083
      | + function block  :  00000000 00000000
  <-Sub-tree of type: Function tree
    | Stack used          :  00000B45 00000083


  ->Sub-tree of type: Function tree
                             XSTACK   ISTACK
    | Stack used (prev) :  00000B45 00000083
  01  HCI_LE_SetRandomAddressCmd::?relay
      | Stack used (prev) :  00000B45 00000083
      | + function block  :  00000000 00000000
  <-Sub-tree of type: Function tree
    | Stack used          :  00000B45 00000083


  ->Sub-tree of type: Function tree
                             XSTACK   ISTACK
    | Stack used (prev) :  00000B45 00000083
  01  HCI_LE_SetAdvParamCmd::?relay
      | Stack used (prev) :  00000B45 00000083
      | + function block  :  00000000 00000000
  <-Sub-tree of type: Function tree
    | Stack used          :  00000B45 00000083


  ->Sub-tree of type: Function tree
                             XSTACK   ISTACK
    | Stack used (prev) :  00000B45 00000083
  01  HCI_LE_SetAdvDataCmd::?relay
      | Stack used (prev) :  00000B45 00000083
      | + function block  :  00000000 00000000
  <-Sub-tree of type: Function tree
    | Stack used          :  00000B45 00000083


  ->Sub-tree of type: Function tree
                             XSTACK   ISTACK
    | Stack used (prev) :  00000B45 00000083
  01  HCI_LE_SetScanRspDataCmd::?relay
      | Stack used (prev) :  00000B45 00000083
      | + function block  :  00000000 00000000
  <-Sub-tree of type: Function tree
    | Stack used          :  00000B45 00000083


  ->Sub-tree of type: Function tree
                             XSTACK   ISTACK
    | Stack used (prev) :  00000B45 00000083
  01  HCI_LE_SetAdvEnableCmd::?relay
      | Stack used (prev) :  00000B45 00000083
      | + function block  :  00000000 00000000
  <-Sub-tree of type: Function tree
    | Stack used          :  00000B45 00000083


  ->Sub-tree of type: Function tree
                             XSTACK   ISTACK
    | Stack used (prev) :  00000B45 00000083
  01  HCI_LE_ClearWhiteListCmd::?relay
      | Stack used (prev) :  00000B45 00000083
      | + function block  :  00000000 00000000
  <-Sub-tree of type: Function tree
    | Stack used          :  00000B45 00000083


  ->Sub-tree of type: Function tree
                             XSTACK   ISTACK
    | Stack used (prev) :  00000B45 00000083
  01  HCI_LE_AddWhiteListCmd::?relay
      | Stack used (prev) :  00000B45 00000083
      | + function block  :  00000000 00000000
  <-Sub-tree of type: Function tree
    | Stack used          :  00000B45 00000083


  ->Sub-tree of type: Function tree
                             XSTACK   ISTACK
    | Stack used (prev) :  00000B45 00000083
  01  HCI_LE_RandCmd::?relay
      | Stack used (prev) :  00000B45 00000083
      | + function block  :  00000000 00000000
  <-Sub-tree of type: Function tree
    | Stack used          :  00000B45 00000083


  ->Sub-tree of type: Function tree
                             XSTACK   ISTACK
    | Stack used (prev) :  00000B45 00000083
  01  HCI_LE_LtkReqReplyCmd::?relay
      | Stack used (prev) :  00000B45 00000083
      | + function block  :  00000000 00000000
  <-Sub-tree of type: Function tree
    | Stack used          :  00000B45 00000083


  ->Sub-tree of type: Function tree
                             XSTACK   ISTACK
    | Stack used (prev) :  00000B45 00000083
  01  HCI_LE_LtkReqNegReplyCmd::?relay
      | Stack used (prev) :  00000B45 00000083
      | + function block  :  00000000 00000000
  <-Sub-tree of type: Function tree
    | Stack used          :  00000B45 00000083


  ->Sub-tree of type: Function tree
                             XSTACK   ISTACK
    | Stack used (prev) :  00000B45 00000083
  01  LL_RandCback::?relay
      | Stack used (prev) :  00000B45 00000083
      | + function block  :  00000000 00000000
  <-Sub-tree of type: Function tree
    | Stack used          :  00000B45 00000083


  ->Sub-tree of type: Function tree
                             XSTACK   ISTACK
    | Stack used (prev) :  00000B45 00000083
  01  LL_EXT_SetRxGainCback::?relay
      | Stack used (prev) :  00000B45 00000083
      | + function block  :  00000000 00000000
  <-Sub-tree of type: Function tree
    | Stack used          :  00000B45 00000083


  ->Sub-tree of type: Function tree
                             XSTACK   ISTACK
    | Stack used (prev) :  00000B45 00000083
  01  LL_EXT_SetTxPowerCback::?relay
      | Stack used (prev) :  00000B45 00000083
      | + function block  :  00000000 00000000
  <-Sub-tree of type: Function tree
    | Stack used          :  00000B45 00000083


  ->Sub-tree of type: Function tree
                             XSTACK   ISTACK
    | Stack used (prev) :  00000B45 00000083
  01  LL_EXT_ExtendRfRangeCback::?relay
      | Stack used (prev) :  00000B45 00000083
      | + function block  :  00000000 00000000
  <-Sub-tree of type: Function tree
    | Stack used          :  00000B45 00000083


  ->Sub-tree of type: Function tree
                             XSTACK   ISTACK
    | Stack used (prev) :  00000B45 00000083
  01  LL_RxDataCompleteCback::?relay
      | Stack used (prev) :  00000B45 00000083
      | + function block  :  00000000 00000000
  <-Sub-tree of type: Function tree
    | Stack used          :  00000B45 00000083


  ->Sub-tree of type: Function tree
                             XSTACK   ISTACK
    | Stack used (prev) :  00000B45 00000083
  01  hciInitEventMasks::?relay
      | Stack used (prev) :  00000B45 00000083
      | + function block  :  00000000 00000000
  <-Sub-tree of type: Function tree
    | Stack used          :  00000B45 00000083


  ->Sub-tree of type: Function tree
                             XSTACK   ISTACK
    | Stack used (prev) :  00000B45 00000083
  01  HCI_NumOfCompletedPacketsEvent::?relay
      | Stack used (prev) :  00000B45 00000083
      | + function block  :  00000000 00000000
  <-Sub-tree of type: Function tree
    | Stack used          :  00000B45 00000083


  ->Sub-tree of type: Function tree
                             XSTACK   ISTACK
    | Stack used (prev) :  00000B45 00000083
  01  HCI_CommandCompleteEvent::?relay
      | Stack used (prev) :  00000B45 00000083
      | + function block  :  00000000 00000000
  <-Sub-tree of type: Function tree
    | Stack used          :  00000B45 00000083


  ->Sub-tree of type: Function tree
                             XSTACK   ISTACK
    | Stack used (prev) :  00000B45 00000083
  01  HCI_VendorSpecifcCommandCompleteEvent::?relay
      | Stack used (prev) :  00000B45 00000083
      | + function block  :  00000000 00000000
  <-Sub-tree of type: Function tree
    | Stack used          :  00000B45 00000083


  ->Sub-tree of type: Function tree
                             XSTACK   ISTACK
    | Stack used (prev) :  00000B45 00000083
  01  HCI_CommandStatusEvent::?relay
      | Stack used (prev) :  00000B45 00000083
      | + function block  :  00000000 00000000
  <-Sub-tree of type: Function tree
    | Stack used          :  00000B45 00000083


  ->Sub-tree of type: Function tree
                             XSTACK   ISTACK
    | Stack used (prev) :  00000B45 00000083
  01  HCI_SendCommandStatusEvent::?relay
      | Stack used (prev) :  00000B45 00000083
      | + function block  :  00000000 00000000
  <-Sub-tree of type: Function tree
    | Stack used          :  00000B45 00000083


  ->Sub-tree of type: Function tree
                             XSTACK   ISTACK
    | Stack used (prev) :  00000B45 00000083
  01  HCI_SendCommandCompleteEvent::?relay
      | Stack used (prev) :  00000B45 00000083
      | + function block  :  00000000 00000000
  <-Sub-tree of type: Function tree
    | Stack used          :  00000B45 00000083


  ->Sub-tree of type: Function tree
                             XSTACK   ISTACK
    | Stack used (prev) :  00000B45 00000083
  01  HCI_SendControllerToHostEvent::?relay
      | Stack used (prev) :  00000B45 00000083
      | + function block  :  00000000 00000000
  <-Sub-tree of type: Function tree
    | Stack used          :  00000B45 00000083


  ->Sub-tree of type: Function tree
                             XSTACK   ISTACK
    | Stack used (prev) :  00000B45 00000083
  01  LL_ConnectionCompleteCback::?relay
      | Stack used (prev) :  00000B45 00000083
      | + function block  :  00000000 00000000
  <-Sub-tree of type: Function tree
    | Stack used          :  00000B45 00000083


  ->Sub-tree of type: Function tree
                             XSTACK   ISTACK
    | Stack used (prev) :  00000B45 00000083
  01  LL_DisconnectCback::?relay
      | Stack used (prev) :  00000B45 00000083
      | + function block  :  00000000 00000000
  <-Sub-tree of type: Function tree
    | Stack used          :  00000B45 00000083


  ->Sub-tree of type: Function tree
                             XSTACK   ISTACK
    | Stack used (prev) :  00000B45 00000083
  01  LL_ConnParamUpdateCback::?relay
      | Stack used (prev) :  00000B45 00000083
      | + function block  :  00000000 00000000
  <-Sub-tree of type: Function tree
    | Stack used          :  00000B45 00000083


  ->Sub-tree of type: Function tree
                             XSTACK   ISTACK
    | Stack used (prev) :  00000B45 00000083
  01  LL_ReadRemoteVersionInfoCback::?relay
      | Stack used (prev) :  00000B45 00000083
      | + function block  :  00000000 00000000
  <-Sub-tree of type: Function tree
    | Stack used          :  00000B45 00000083


  ->Sub-tree of type: Function tree
                             XSTACK   ISTACK
    | Stack used (prev) :  00000B45 00000083
  01  LL_EncLtkReqCback::?relay
      | Stack used (prev) :  00000B45 00000083
      | + function block  :  00000000 00000000
  <-Sub-tree of type: Function tree
    | Stack used          :  00000B45 00000083


  ->Sub-tree of type: Function tree
                             XSTACK   ISTACK
    | Stack used (prev) :  00000B45 00000083
  01  LL_EncChangeCback::?relay
      | Stack used (prev) :  00000B45 00000083
      | + function block  :  00000000 00000000
  <-Sub-tree of type: Function tree
    | Stack used          :  00000B45 00000083


  ->Sub-tree of type: Function tree
                             XSTACK   ISTACK
    | Stack used (prev) :  00000B45 00000083
  01  LL_EncKeyRefreshCback::?relay
      | Stack used (prev) :  00000B45 00000083
      | + function block  :  00000000 00000000
  <-Sub-tree of type: Function tree
    | Stack used          :  00000B45 00000083


  ->Sub-tree of type: Function tree
                             XSTACK   ISTACK
    | Stack used (prev) :  00000B45 00000083
  01  L2CAP_RegisterApp::?relay
      | Stack used (prev) :  00000B45 00000083
      | + function block  :  00000000 00000000
  <-Sub-tree of type: Function tree
    | Stack used          :  00000B45 00000083


  ->Sub-tree of type: Function tree
                             XSTACK   ISTACK
    | Stack used (prev) :  00000B45 00000083
  01  L2CAP_SendData::?relay
      | Stack used (prev) :  00000B45 00000083
      | + function block  :  00000000 00000000
  <-Sub-tree of type: Function tree
    | Stack used          :  00000B45 00000083


  ->Sub-tree of type: Function tree
                             XSTACK   ISTACK
    | Stack used (prev) :  00000B45 00000083
  01  L2CAP_CmdReject::?relay
      | Stack used (prev) :  00000B45 00000083
      | + function block  :  00000000 00000000
  <-Sub-tree of type: Function tree
    | Stack used          :  00000B45 00000083


  ->Sub-tree of type: Function tree
                             XSTACK   ISTACK
    | Stack used (prev) :  00000B45 00000083
  01  L2CAP_ConnParamUpdateReq::?relay
      | Stack used (prev) :  00000B45 00000083
      | + function block  :  00000000 00000000
  <-Sub-tree of type: Function tree
    | Stack used          :  00000B45 00000083


  ->Sub-tree of type: Function tree
                             XSTACK   ISTACK
    | Stack used (prev) :  00000B45 00000083
  01  L2CAP_HostNumCompletedPkts::?relay
      | Stack used (prev) :  00000B45 00000083
      | + function block  :  00000000 00000000
  <-Sub-tree of type: Function tree
    | Stack used          :  00000B45 00000083


  ->Sub-tree of type: Function tree
                             XSTACK   ISTACK
    | Stack used (prev) :  00000B45 00000083
  02    osal_msg_receive
        | Stack used (prev) :  00000806 00000075
        | + function block  :  00000020 00000000
        |  Already listed
  02    osal_msg_deallocate
        | Stack used (prev) :  0000000A 00000002
        | + function block  :  00000009 00000004
        |  Already listed
  03      osal_bm_free
          | Stack used (prev) :  0000000A 00000002
          | + function block  :  00000014 00000000
          |  Already listed
  04        osal_msg_send
            | Stack used (prev) :  00000032 00000006
            | + function block  :  00000012 00000000
            |  Already listed
  04        osal_msg_allocate
            | Stack used (prev) :  00000018 00000000
            | + function block  :  00000014 00000000
            |  Already listed
  04        osal_memset
            | Stack used (prev) :  000003F4 0000005C
            | + function block  :  00000018 00000000
            |  Already listed
  04        osal_memcpy
            | Stack used (prev) :  00000000 00000000
            | + function block  :  00000019 00000001
            |  Already listed
  03      l2capNotifyData
          | Stack used (prev) :  00000B45 00000083
          | + function block  :  00000012 00000000
  04        osal_bm_adjust_header
            | Stack used (prev) :  000003FE 0000005C
            | + function block  :  00000018 00000000
            |  Already listed
  03      l2capParsePacket
          | Stack used (prev) :  00000B45 00000083
          | + function block  :  0000000E 00000000
  04        l2capHandleRxError
            | Stack used (prev) :  00000B45 00000083
            | + function block  :  00000000 00000000
  04        l2capParseSignalHdr
            | Stack used (prev) :  00000B45 00000083
            | + function block  :  00000009 00000001
  05          l2capNotifySignal
              | Stack used (prev) :  0000040C 0000005C
              | + function block  :  0000002D 00000000
              |  Already listed
  05          L2CAP_ParseParamUpdateReq
              | Stack used (prev) :  00000B45 00000083
              | + function block  :  0000000B 00000000
  05          L2CAP_CmdReject
              | Stack used (prev) :  00000815 00000076
              | + function block  :  0000001C 00000000
              |  Already listed
  04        l2capProcessReq
            | Stack used (prev) :  00000B50 00000083
            | + function block  :  0000005E 00000000
  06            osal_CbTimerStop
                | Stack used (prev) :  000003F2 0000005A
                | + function block  :  0000000B 00000000
                |  Already listed
  05          l2capStopTimer
              | Stack used (prev) :  00000B45 00000083
              | + function block  :  00000009 00000000
  05          l2capFindLocalId
              | Stack used (prev) :  00000B45 00000083
              | + function block  :  0000000A 00000000
  05          l2capFreeChannel
              | Stack used (prev) :  000003F2 0000005A
              | + function block  :  00000012 00000002
              |  Already listed
  05          l2capNotifySignal
              | Stack used (prev) :  0000040C 0000005C
              | + function block  :  0000002D 00000000
              |  Already listed
  05          l2capParseParamUpdateRsp
              | Stack used (prev) :  00000B45 00000083
              | + function block  :  0000000B 00000000
  05          l2capParseCmdReject
              | Stack used (prev) :  00000B45 00000083
              | + function block  :  0000000C 00000000
  04        l2capProcessRsp
            | Stack used (prev) :  00000B51 00000083
            | + function block  :  00000054 00000000
  04        L2CAP_CmdReject
            | Stack used (prev) :  00000815 00000076
            | + function block  :  0000001C 00000000
            |  Already listed
  03      l2capProcessSignal
          | Stack used (prev) :  00000BAE 00000084
          | + function block  :  00000040 00000000
  03      L2CAP_HostNumCompletedPkts
          | Stack used (prev) :  000008C9 0000007B
          | + function block  :  00000008 00000004
          |  Already listed
  02    l2capProcessRxData
        | Stack used (prev) :  00000BEE 00000084
        | + function block  :  0000002C 00000000
  01  L2CAP_ProcessEvent
      | Stack used (prev) :  00000C1A 00000084
      | + function block  :  00000018 00000000
  <-Sub-tree of type: Function tree
    | Stack used          :  00000C32 00000084


  ->Sub-tree of type: Function tree
                             XSTACK   ISTACK
    | Stack used (prev) :  00000C32 00000084
  01  L2CAP_Init::?relay
      | Stack used (prev) :  00000C32 00000084
      | + function block  :  00000000 00000000
  <-Sub-tree of type: Function tree
    | Stack used          :  00000C32 00000084


  ->Sub-tree of type: Function tree
                             XSTACK   ISTACK
    | Stack used (prev) :  00000C32 00000084
  01  L2CAP_ProcessEvent::?relay
      | Stack used (prev) :  00000C32 00000084
      | + function block  :  00000000 00000000
  <-Sub-tree of type: Function tree
    | Stack used          :  00000C32 00000084


  ->Sub-tree of type: Function tree
                             XSTACK   ISTACK
    | Stack used (prev) :  00000C32 00000084
  01  l2capProcessRxData::?relay
      | Stack used (prev) :  00000C32 00000084
      | + function block  :  00000000 00000000
  <-Sub-tree of type: Function tree
    | Stack used          :  00000C32 00000084


  ->Sub-tree of type: Function tree
                             XSTACK   ISTACK
    | Stack used (prev) :  00000C32 00000084
  01  l2capProcessSignal::?relay
      | Stack used (prev) :  00000C32 00000084
      | + function block  :  00000000 00000000
  <-Sub-tree of type: Function tree
    | Stack used          :  00000C32 00000084


  ->Sub-tree of type: Function tree
                             XSTACK   ISTACK
    | Stack used (prev) :  00000C32 00000084
  01  l2capProcessRsp::?relay
      | Stack used (prev) :  00000C32 00000084
      | + function block  :  00000000 00000000
  <-Sub-tree of type: Function tree
    | Stack used          :  00000C32 00000084


  ->Sub-tree of type: Function tree
                             XSTACK   ISTACK
    | Stack used (prev) :  00000C32 00000084
  01  l2capProcessReq::?relay
      | Stack used (prev) :  00000C32 00000084
      | + function block  :  00000000 00000000
  <-Sub-tree of type: Function tree
    | Stack used          :  00000C32 00000084


  ->Sub-tree of type: Function tree
                             XSTACK   ISTACK
    | Stack used (prev) :  00000C32 00000084
  01  L2CAP_BuildCmdReject
      | Stack used (prev) :  00000C32 00000084
      | + function block  :  0000000C 00000001
  <-Sub-tree of type: Function tree
    | Stack used          :  00000C3E 00000085


  ->Sub-tree of type: Function tree
                             XSTACK   ISTACK
    | Stack used (prev) :  00000C3E 00000085
  01  l2capBuildParamUpdateReq
      | Stack used (prev) :  00000C3E 00000085
      | + function block  :  00000009 00000001
  <-Sub-tree of type: Function tree
    | Stack used          :  00000C47 00000086


  ->Sub-tree of type: Function tree
                             XSTACK   ISTACK
    | Stack used (prev) :  00000C47 00000086
  01  l2capParseSignalHdr::?relay
      | Stack used (prev) :  00000C47 00000086
      | + function block  :  00000000 00000000
  <-Sub-tree of type: Function tree
    | Stack used          :  00000C47 00000086


  ->Sub-tree of type: Function tree
                             XSTACK   ISTACK
    | Stack used (prev) :  00000C47 00000086
  01  l2capSendReq::?relay
      | Stack used (prev) :  00000C47 00000086
      | + function block  :  00000000 00000000
  <-Sub-tree of type: Function tree
    | Stack used          :  00000C47 00000086


  ->Sub-tree of type: Function tree
                             XSTACK   ISTACK
    | Stack used (prev) :  00000C47 00000086
  01  l2capSendCmd::?relay
      | Stack used (prev) :  00000C47 00000086
      | + function block  :  00000000 00000000
  <-Sub-tree of type: Function tree
    | Stack used          :  00000C47 00000086


  ->Sub-tree of type: Function tree
                             XSTACK   ISTACK
    | Stack used (prev) :  00000C47 00000086
  01  l2capEncapSendData::?relay
      | Stack used (prev) :  00000C47 00000086
      | + function block  :  00000000 00000000
  <-Sub-tree of type: Function tree
    | Stack used          :  00000C47 00000086


  ->Sub-tree of type: Function tree
                             XSTACK   ISTACK
    | Stack used (prev) :  00000C47 00000086
  01  l2capParsePacket::?relay
      | Stack used (prev) :  00000C47 00000086
      | + function block  :  00000000 00000000
  <-Sub-tree of type: Function tree
    | Stack used          :  00000C47 00000086


  ->Sub-tree of type: Function tree
                             XSTACK   ISTACK
    | Stack used (prev) :  00000C47 00000086
  01  L2CAP_BuildCmdReject::?relay
      | Stack used (prev) :  00000C47 00000086
      | + function block  :  00000000 00000000
  <-Sub-tree of type: Function tree
    | Stack used          :  00000C47 00000086


  ->Sub-tree of type: Function tree
                             XSTACK   ISTACK
    | Stack used (prev) :  00000C47 00000086
  01  l2capParseCmdReject::?relay
      | Stack used (prev) :  00000C47 00000086
      | + function block  :  00000000 00000000
  <-Sub-tree of type: Function tree
    | Stack used          :  00000C47 00000086


  ->Sub-tree of type: Function tree
                             XSTACK   ISTACK
    | Stack used (prev) :  00000C47 00000086
  01  l2capBuildParamUpdateReq::?relay
      | Stack used (prev) :  00000C47 00000086
      | + function block  :  00000000 00000000
  <-Sub-tree of type: Function tree
    | Stack used          :  00000C47 00000086


  ->Sub-tree of type: Function tree
                             XSTACK   ISTACK
    | Stack used (prev) :  00000C47 00000086
  01  L2CAP_ParseParamUpdateReq::?relay
      | Stack used (prev) :  00000C47 00000086
      | + function block  :  00000000 00000000
  <-Sub-tree of type: Function tree
    | Stack used          :  00000C47 00000086


  ->Sub-tree of type: Function tree
                             XSTACK   ISTACK
    | Stack used (prev) :  00000C47 00000086
  01  l2capParseParamUpdateRsp::?relay
      | Stack used (prev) :  00000C47 00000086
      | + function block  :  00000000 00000000
  <-Sub-tree of type: Function tree
    | Stack used          :  00000C47 00000086


  ->Sub-tree of type: Function tree
                             XSTACK   ISTACK
    | Stack used (prev) :  00000C47 00000086
  01  l2capNotifyData::?relay
      | Stack used (prev) :  00000C47 00000086
      | + function block  :  00000000 00000000
  <-Sub-tree of type: Function tree
    | Stack used          :  00000C47 00000086


  ->Sub-tree of type: Function tree
                             XSTACK   ISTACK
    | Stack used (prev) :  00000C47 00000086
  01  l2capNotifySignal::?relay
      | Stack used (prev) :  00000C47 00000086
      | + function block  :  00000000 00000000
  <-Sub-tree of type: Function tree
    | Stack used          :  00000C47 00000086


  ->Sub-tree of type: Function tree
                             XSTACK   ISTACK
    | Stack used (prev) :  00000C47 00000086
  01  l2capAllocChannel::?relay
      | Stack used (prev) :  00000C47 00000086
      | + function block  :  00000000 00000000
  <-Sub-tree of type: Function tree
    | Stack used          :  00000C47 00000086


  ->Sub-tree of type: Function tree
                             XSTACK   ISTACK
    | Stack used (prev) :  00000C47 00000086
  01  l2capFreeChannel::?relay
      | Stack used (prev) :  00000C47 00000086
      | + function block  :  00000000 00000000
  <-Sub-tree of type: Function tree
    | Stack used          :  00000C47 00000086


  ->Sub-tree of type: Function tree
                             XSTACK   ISTACK
    | Stack used (prev) :  00000C47 00000086
  01  l2capFindLocalId::?relay
      | Stack used (prev) :  00000C47 00000086
      | + function block  :  00000000 00000000
  <-Sub-tree of type: Function tree
    | Stack used          :  00000C47 00000086


  ->Sub-tree of type: Function tree
                             XSTACK   ISTACK
    | Stack used (prev) :  00000C47 00000086
  01  l2capStopTimer::?relay
      | Stack used (prev) :  00000C47 00000086
      | + function block  :  00000000 00000000
  <-Sub-tree of type: Function tree
    | Stack used          :  00000C47 00000086


  ->Sub-tree of type: Function tree
                             XSTACK   ISTACK
    | Stack used (prev) :  00000C47 00000086
  01  l2capHandleTimerCB::?relay
      | Stack used (prev) :  00000C47 00000086
      | + function block  :  00000000 00000000
  <-Sub-tree of type: Function tree
    | Stack used          :  00000C47 00000086


  ->Sub-tree of type: Function tree
                             XSTACK   ISTACK
    | Stack used (prev) :  00000C47 00000086
  01  l2capHandleRxError::?relay
      | Stack used (prev) :  00000C47 00000086
      | + function block  :  00000000 00000000
  <-Sub-tree of type: Function tree
    | Stack used          :  00000C47 00000086


  ->Sub-tree of type: Function tree
                             XSTACK   ISTACK
    | Stack used (prev) :  00000C47 00000086
  01  L2CAP_bm_alloc::?relay
      | Stack used (prev) :  00000C47 00000086
      | + function block  :  00000000 00000000
  <-Sub-tree of type: Function tree
    | Stack used          :  00000C47 00000086


  ->Sub-tree of type: Function tree
                             XSTACK   ISTACK
    | Stack used (prev) :  00000C47 00000086
  01  linkDB_Init::?relay
      | Stack used (prev) :  00000C47 00000086
      | + function block  :  00000000 00000000
  <-Sub-tree of type: Function tree
    | Stack used          :  00000C47 00000086


  ->Sub-tree of type: Function tree
                             XSTACK   ISTACK
    | Stack used (prev) :  00000C47 00000086
  01  linkDB_Register::?relay
      | Stack used (prev) :  00000C47 00000086
      | + function block  :  00000000 00000000
  <-Sub-tree of type: Function tree
    | Stack used          :  00000C47 00000086


  ->Sub-tree of type: Function tree
                             XSTACK   ISTACK
    | Stack used (prev) :  00000C47 00000086
  01  linkDB_Add::?relay
      | Stack used (prev) :  00000C47 00000086
      | + function block  :  00000000 00000000
  <-Sub-tree of type: Function tree
    | Stack used          :  00000C47 00000086


  ->Sub-tree of type: Function tree
                             XSTACK   ISTACK
    | Stack used (prev) :  00000C47 00000086
  01  linkDB_Remove::?relay
      | Stack used (prev) :  00000C47 00000086
      | + function block  :  00000000 00000000
  <-Sub-tree of type: Function tree
    | Stack used          :  00000C47 00000086


  ->Sub-tree of type: Function tree
                             XSTACK   ISTACK
    | Stack used (prev) :  00000C47 00000086
  01  linkDB_Find::?relay
      | Stack used (prev) :  00000C47 00000086
      | + function block  :  00000000 00000000
  <-Sub-tree of type: Function tree
    | Stack used          :  00000C47 00000086


  ->Sub-tree of type: Function tree
                             XSTACK   ISTACK
    | Stack used (prev) :  00000C47 00000086
  01  linkDB_FindFirst::?relay
      | Stack used (prev) :  00000C47 00000086
      | + function block  :  00000000 00000000
  <-Sub-tree of type: Function tree
    | Stack used          :  00000C47 00000086


  ->Sub-tree of type: Function tree
                             XSTACK   ISTACK
    | Stack used (prev) :  00000C47 00000086
  01  linkDB_State::?relay
      | Stack used (prev) :  00000C47 00000086
      | + function block  :  00000000 00000000
  <-Sub-tree of type: Function tree
    | Stack used          :  00000C47 00000086


  ->Sub-tree of type: Function tree
                             XSTACK   ISTACK
    | Stack used (prev) :  00000C47 00000086
  01  linkDB_NumActive::?relay
      | Stack used (prev) :  00000C47 00000086
      | + function block  :  00000000 00000000
  <-Sub-tree of type: Function tree
    | Stack used          :  00000C47 00000086


  ->Sub-tree of type: Function tree
                             XSTACK   ISTACK
    | Stack used (prev) :  00000C47 00000086
  01  linkDB_Authen::?relay
      | Stack used (prev) :  00000C47 00000086
      | + function block  :  00000000 00000000
  <-Sub-tree of type: Function tree
    | Stack used          :  00000C47 00000086


  ->Sub-tree of type: Function tree
                             XSTACK   ISTACK
    | Stack used (prev) :  00000C47 00000086
  01  linkDB_PerformFunc::?relay
      | Stack used (prev) :  00000C47 00000086
      | + function block  :  00000000 00000000
  <-Sub-tree of type: Function tree
    | Stack used          :  00000C47 00000086


  ->Sub-tree of type: Function tree
                             XSTACK   ISTACK
    | Stack used (prev) :  00000C47 00000086
  01  reportStatusChange::?relay
      | Stack used (prev) :  00000C47 00000086
      | + function block  :  00000000 00000000
  <-Sub-tree of type: Function tree
    | Stack used          :  00000C47 00000086


  ->Sub-tree of type: Function tree
                             XSTACK   ISTACK
    | Stack used (prev) :  00000C47 00000086
  02    Onboard_soft_reset
        | Stack used (prev) :  00000C47 00000086
        | + function block  :  00000000 00000000
  02    osal_start_timerEx
        | Stack used (prev) :  0000004A 00000002
        | + function block  :  00000024 00000000
        |  Already listed
  02    osal_pwrmgr_task_state
        | Stack used (prev) :  000003CC 00000052
        | + function block  :  0000000A 00000000
        |  Already listed
  02    osal_pwrmgr_device
        | Stack used (prev) :  00000C47 00000086
        | + function block  :  00000000 00000002
  02    llConnTerminate
        | Stack used (prev) :  0000015A 0000000E
        | + function block  :  00000012 00000000
        |  Already listed
  03      osal_msg_send
          | Stack used (prev) :  00000032 00000006
          | + function block  :  00000012 00000000
          |  Already listed
  03      osal_msg_allocate
          | Stack used (prev) :  00000018 00000000
          | + function block  :  00000014 00000000
          |  Already listed
  03      osal_memset
          | Stack used (prev) :  000003F4 0000005C
          | + function block  :  00000018 00000000
          |  Already listed
  03      osal_memcpy
          | Stack used (prev) :  00000000 00000000
          | + function block  :  00000019 00000001
          |  Already listed
  02    LL_ConnectionCompleteCback
        | Stack used (prev) :  00000C47 00000086
        | + function block  :  00000023 00000001
  01  LL_ProcessEvent
      | Stack used (prev) :  00000C6A 00000088
      | + function block  :  0000002A 00000000
  <-Sub-tree of type: Function tree
    | Stack used          :  00000C94 00000088


  ->Sub-tree of type: Function tree
                             XSTACK   ISTACK
    | Stack used (prev) :  00000C94 00000088
  01  LL_Init::?relay
      | Stack used (prev) :  00000C94 00000088
      | + function block  :  00000000 00000000
  <-Sub-tree of type: Function tree
    | Stack used          :  00000C94 00000088


  ->Sub-tree of type: Function tree
                             XSTACK   ISTACK
    | Stack used (prev) :  00000C94 00000088
  01  LL_ProcessEvent::?relay
      | Stack used (prev) :  00000C94 00000088
      | + function block  :  00000000 00000000
  <-Sub-tree of type: Function tree
    | Stack used          :  00000C94 00000088


  ->Sub-tree of type: Function tree
                             XSTACK   ISTACK
    | Stack used (prev) :  00000C94 00000088
  01  LL_TX_bm_alloc::?relay
      | Stack used (prev) :  00000C94 00000088
      | + function block  :  00000000 00000000
  <-Sub-tree of type: Function tree
    | Stack used          :  00000C94 00000088


  ->Sub-tree of type: Function tree
                             XSTACK   ISTACK
    | Stack used (prev) :  00000C94 00000088
  01  LL_RX_bm_alloc::?relay
      | Stack used (prev) :  00000C94 00000088
      | + function block  :  00000000 00000000
  <-Sub-tree of type: Function tree
    | Stack used          :  00000C94 00000088


  ->Sub-tree of type: Function tree
                             XSTACK   ISTACK
    | Stack used (prev) :  00000C94 00000088
  01  LL_Reset::?relay
      | Stack used (prev) :  00000C94 00000088
      | + function block  :  00000000 00000000
  <-Sub-tree of type: Function tree
    | Stack used          :  00000C94 00000088


  ->Sub-tree of type: Function tree
                             XSTACK   ISTACK
    | Stack used (prev) :  00000C94 00000088
  01  LL_ReadBDADDR::?relay
      | Stack used (prev) :  00000C94 00000088
      | + function block  :  00000000 00000000
  <-Sub-tree of type: Function tree
    | Stack used          :  00000C94 00000088


  ->Sub-tree of type: Function tree
                             XSTACK   ISTACK
    | Stack used (prev) :  00000C94 00000088
  01  LL_SetRandomAddress::?relay
      | Stack used (prev) :  00000C94 00000088
      | + function block  :  00000000 00000000
  <-Sub-tree of type: Function tree
    | Stack used          :  00000C94 00000088


  ->Sub-tree of type: Function tree
                             XSTACK   ISTACK
    | Stack used (prev) :  00000C94 00000088
  01  LL_ClearWhiteList::?relay
      | Stack used (prev) :  00000C94 00000088
      | + function block  :  00000000 00000000
  <-Sub-tree of type: Function tree
    | Stack used          :  00000C94 00000088


  ->Sub-tree of type: Function tree
                             XSTACK   ISTACK
    | Stack used (prev) :  00000C94 00000088
  01  LL_AddWhiteListDevice::?relay
      | Stack used (prev) :  00000C94 00000088
      | + function block  :  00000000 00000000
  <-Sub-tree of type: Function tree
    | Stack used          :  00000C94 00000088


  ->Sub-tree of type: Function tree
                             XSTACK   ISTACK
    | Stack used (prev) :  00000C94 00000088
  01  LL_Encrypt::?relay
      | Stack used (prev) :  00000C94 00000088
      | + function block  :  00000000 00000000
  <-Sub-tree of type: Function tree
    | Stack used          :  00000C94 00000088


  ->Sub-tree of type: Function tree
                             XSTACK   ISTACK
    | Stack used (prev) :  00000C94 00000088
  01  LL_Rand::?relay
      | Stack used (prev) :  00000C94 00000088
      | + function block  :  00000000 00000000
  <-Sub-tree of type: Function tree
    | Stack used          :  00000C94 00000088


  ->Sub-tree of type: Function tree
                             XSTACK   ISTACK
    | Stack used (prev) :  00000C94 00000088
  01  LL_PseudoRand::?relay
      | Stack used (prev) :  00000C94 00000088
      | + function block  :  00000000 00000000
  <-Sub-tree of type: Function tree
    | Stack used          :  00000C94 00000088


  ->Sub-tree of type: Function tree
                             XSTACK   ISTACK
    | Stack used (prev) :  00000C94 00000088
  01  LL_CtrlToHostFlowControl::?relay
      | Stack used (prev) :  00000C94 00000088
      | + function block  :  00000000 00000000
  <-Sub-tree of type: Function tree
    | Stack used          :  00000C94 00000088


  ->Sub-tree of type: Function tree
                             XSTACK   ISTACK
    | Stack used (prev) :  00000C94 00000088
  01  LL_ReadRssi::?relay
      | Stack used (prev) :  00000C94 00000088
      | + function block  :  00000000 00000000
  <-Sub-tree of type: Function tree
    | Stack used          :  00000C94 00000088


  ->Sub-tree of type: Function tree
                             XSTACK   ISTACK
    | Stack used (prev) :  00000C94 00000088
  01  LL_Disconnect::?relay
      | Stack used (prev) :  00000C94 00000088
      | + function block  :  00000000 00000000
  <-Sub-tree of type: Function tree
    | Stack used          :  00000C94 00000088


  ->Sub-tree of type: Function tree
                             XSTACK   ISTACK
    | Stack used (prev) :  00000C94 00000088
  01  LL_TxData::?relay
      | Stack used (prev) :  00000C94 00000088
      | + function block  :  00000000 00000000
  <-Sub-tree of type: Function tree
    | Stack used          :  00000C94 00000088


  ->Sub-tree of type: Function tree
                             XSTACK   ISTACK
    | Stack used (prev) :  00000C94 00000088
  01  LL_SetAdvParam::?relay
      | Stack used (prev) :  00000C94 00000088
      | + function block  :  00000000 00000000
  <-Sub-tree of type: Function tree
    | Stack used          :  00000C94 00000088


  ->Sub-tree of type: Function tree
                             XSTACK   ISTACK
    | Stack used (prev) :  00000C94 00000088
  01  LL_SetAdvData::?relay
      | Stack used (prev) :  00000C94 00000088
      | + function block  :  00000000 00000000
  <-Sub-tree of type: Function tree
    | Stack used          :  00000C94 00000088


  ->Sub-tree of type: Function tree
                             XSTACK   ISTACK
    | Stack used (prev) :  00000C94 00000088
  01  LL_SetAdvControl::?relay
      | Stack used (prev) :  00000C94 00000088
      | + function block  :  00000000 00000000
  <-Sub-tree of type: Function tree
    | Stack used          :  00000C94 00000088


  ->Sub-tree of type: Function tree
                             XSTACK   ISTACK
    | Stack used (prev) :  00000C94 00000088
  01  LL_SetScanRspData::?relay
      | Stack used (prev) :  00000C94 00000088
      | + function block  :  00000000 00000000
  <-Sub-tree of type: Function tree
    | Stack used          :  00000C94 00000088


  ->Sub-tree of type: Function tree
                             XSTACK   ISTACK
    | Stack used (prev) :  00000C94 00000088
  01  LL_EncLtkReply::?relay
      | Stack used (prev) :  00000C94 00000088
      | + function block  :  00000000 00000000
  <-Sub-tree of type: Function tree
    | Stack used          :  00000C94 00000088


  ->Sub-tree of type: Function tree
                             XSTACK   ISTACK
    | Stack used (prev) :  00000C94 00000088
  01  LL_EncLtkNegReply::?relay
      | Stack used (prev) :  00000C94 00000088
      | + function block  :  00000000 00000000
  <-Sub-tree of type: Function tree
    | Stack used          :  00000C94 00000088


  ->Sub-tree of type: Function tree
                             XSTACK   ISTACK
    | Stack used (prev) :  00000C94 00000088
  02    osal_set_event
        | Stack used (prev) :  00000000 00000000
        | + function block  :  00000017 00000000
        |  Already listed
  02    llDisableT2IntsEvts
        | Stack used (prev) :  00000000 00000000
        | + function block  :  00000000 00000000
        |  Already listed
  02    llGetTaskState
        | Stack used (prev) :  00000C94 00000088
        | + function block  :  00000000 00000002
  02    llFreeTask
        | Stack used (prev) :  00000000 00000000
        | + function block  :  00000000 00000002
        |  Already listed
  02    llScheduler
        | Stack used (prev) :  00000126 0000000E
        | + function block  :  00000034 00000000
        |  Already listed
  02    LL_ENC_GeneratePseudoRandNum
        | Stack used (prev) :  000003F2 0000005A
        | + function block  :  00000000 00000002
        |  Already listed
  01  llDirectedAdvEvt_TaskEndOk
      | Stack used (prev) :  00000C94 0000008A
      | + function block  :  00000020 00000000
  <-Sub-tree of type: Function tree
    | Stack used          :  00000CB4 0000008A


  ->Sub-tree of type: Function tree
                             XSTACK   ISTACK
    | Stack used (prev) :  00000CB4 0000008A
  02    osal_set_event
        | Stack used (prev) :  00000000 00000000
        | + function block  :  00000017 00000000
        |  Already listed
  02    PHY_DeallocateRxFifo
        | Stack used (prev) :  00000000 00000000
        | + function block  :  00000000 00000000
        |  Already listed
  02    PHY_ConfigureAppendRfStatus
        | Stack used (prev) :  00000000 00000000
        | + function block  :  00000000 00000002
        |  Already listed
  02    PHY_SetMaxNack
        | Stack used (prev) :  00000CB4 0000008A
        | + function block  :  00000000 00000002
  02    PHY_SetSyncWord
        | Stack used (prev) :  00000000 00000000
        | + function block  :  00000010 00000000
        |  Already listed
  02    PHY_InitSeqStat
        | Stack used (prev) :  00000CB4 0000008A
        | + function block  :  00000000 00000002
  02    PHY_SetDataChan
        | Stack used (prev) :  000003F2 0000005A
        | + function block  :  00000000 00000002
        |  Already listed
  02    PHY_SetCRCInit
        | Stack used (prev) :  00000000 00000000
        | + function block  :  00000010 00000000
        |  Already listed
  03      llDivide31By16To16
          | Stack used (prev) :  000003F2 0000005A
          | + function block  :  00000000 00000000
          |  Already listed
  02    llCalcTimerDrift
        | Stack used (prev) :  00000CB4 0000008A
        | + function block  :  00000017 00000000
  03      llDivide31By16To16
          | Stack used (prev) :  000003F2 0000005A
          | + function block  :  00000000 00000000
          |  Already listed
  02    llCalcScaFactor
        | Stack used (prev) :  00000CB4 0000008A
        | + function block  :  0000000D 00000000
  02    llAdjustTimeBackward
        | Stack used (prev) :  00000CB4 0000008A
        | + function block  :  0000000B 00000000
  02    llGetTimer2Capture
        | Stack used (prev) :  00000CB4 0000008A
        | + function block  :  00000000 00000003
  02    llGetTaskState
        | Stack used (prev) :  00000C94 00000088
        | + function block  :  00000000 00000002
        |  Already listed
  02    llFreeTask
        | Stack used (prev) :  00000000 00000000
        | + function block  :  00000000 00000002
        |  Already listed
  02    llAllocTask
        | Stack used (prev) :  000003F2 0000005A
        | + function block  :  0000000A 00000001
        |  Already listed
  02    llScheduler
        | Stack used (prev) :  00000126 0000000E
        | + function block  :  00000034 00000000
        |  Already listed
  02    llConvertCtrlProcTimeoutToEvent
        | Stack used (prev) :  00000CB4 0000008A
        | + function block  :  0000000A 00000000
  02    llConvertLstoToEvent
        | Stack used (prev) :  00000CB4 0000008A
        | + function block  :  0000000A 00000000
  02    llConnCleanup
        | Stack used (prev) :  0000001E 00000002
        | + function block  :  00000025 00000000
        |  Already listed
  02    llAllocConnId
        | Stack used (prev) :  00000CB4 0000008A
        | + function block  :  00000009 00000001
  02    llProcessChanMap
        | Stack used (prev) :  000003F2 0000005A
        | + function block  :  00000018 00000001
        |  Already listed
  02    llGetNextDataChan
        | Stack used (prev) :  00000CB4 0000008A
        | + function block  :  0000000B 00000001
  01  llAdvEvt_TaskConnect
      | Stack used (prev) :  00000CCB 0000008D
      | + function block  :  00000034 00000000
  <-Sub-tree of type: Function tree
    | Stack used          :  00000CFF 0000008D


  ->Sub-tree of type: Function tree
                             XSTACK   ISTACK
    | Stack used (prev) :  00000CFF 0000008D
  02    osal_set_event
        | Stack used (prev) :  00000000 00000000
        | + function block  :  00000017 00000000
        |  Already listed
  02    PHY_SetAdvChans
        | Stack used (prev) :  00000000 00000000
        | + function block  :  00000000 00000002
        |  Already listed
  02    PHY_GetAdvChans
        | Stack used (prev) :  00000CFF 0000008D
        | + function block  :  00000000 00000002
  02    llGetTaskState
        | Stack used (prev) :  00000C94 00000088
        | + function block  :  00000000 00000002
        |  Already listed
  02    llScheduler
        | Stack used (prev) :  00000126 0000000E
        | + function block  :  00000034 00000000
        |  Already listed
  02    LL_ENC_GeneratePseudoRandNum
        | Stack used (prev) :  000003F2 0000005A
        | + function block  :  00000000 00000002
        |  Already listed
  01  llUndirectedAdvEvt_TaskEndOk
      | Stack used (prev) :  00000CFF 0000008F
      | + function block  :  00000020 00000000
  <-Sub-tree of type: Function tree
    | Stack used          :  00000D1F 0000008F


  ->Sub-tree of type: Function tree
                             XSTACK   ISTACK
    | Stack used (prev) :  00000D1F 0000008F
  02    osal_set_event
        | Stack used (prev) :  00000000 00000000
        | + function block  :  00000017 00000000
        |  Already listed
  02    PHY_SetAdvChans
        | Stack used (prev) :  00000000 00000000
        | + function block  :  00000000 00000002
        |  Already listed
  02    PHY_GetAdvChans
        | Stack used (prev) :  00000CFF 0000008D
        | + function block  :  00000000 00000002
        |  Already listed
  02    llGetTaskState
        | Stack used (prev) :  00000C94 00000088
        | + function block  :  00000000 00000002
        |  Already listed
  02    llScheduler
        | Stack used (prev) :  00000126 0000000E
        | + function block  :  00000034 00000000
        |  Already listed
  02    LL_ENC_GeneratePseudoRandNum
        | Stack used (prev) :  000003F2 0000005A
        | + function block  :  00000000 00000002
        |  Already listed
  01  llDiscoverableAdvEvt_TaskEndOk
      | Stack used (prev) :  00000D1F 0000008F
      | + function block  :  00000010 00000000
  <-Sub-tree of type: Function tree
    | Stack used          :  00000D2F 0000008F


  ->Sub-tree of type: Function tree
                             XSTACK   ISTACK
    | Stack used (prev) :  00000D2F 0000008F
  02    osal_set_event
        | Stack used (prev) :  00000000 00000000
        | + function block  :  00000017 00000000
        |  Already listed
  02    PHY_SetAdvChans
        | Stack used (prev) :  00000000 00000000
        | + function block  :  00000000 00000002
        |  Already listed
  02    PHY_GetAdvChans
        | Stack used (prev) :  00000CFF 0000008D
        | + function block  :  00000000 00000002
        |  Already listed
  02    llGetTaskState
        | Stack used (prev) :  00000C94 00000088
        | + function block  :  00000000 00000002
        |  Already listed
  02    llScheduler
        | Stack used (prev) :  00000126 0000000E
        | + function block  :  00000034 00000000
        |  Already listed
  02    LL_ENC_GeneratePseudoRandNum
        | Stack used (prev) :  000003F2 0000005A
        | + function block  :  00000000 00000002
        |  Already listed
  01  llNonConnAdvEvt_TaskEndOk
      | Stack used (prev) :  00000D2F 0000008F
      | + function block  :  00000010 00000000
  <-Sub-tree of type: Function tree
    | Stack used          :  00000D3F 0000008F


  ->Sub-tree of type: Function tree
                             XSTACK   ISTACK
    | Stack used (prev) :  00000D3F 0000008F
  02    llGetTaskState
        | Stack used (prev) :  00000C94 00000088
        | + function block  :  00000000 00000002
        |  Already listed
  02    llFreeTask
        | Stack used (prev) :  00000000 00000000
        | + function block  :  00000000 00000002
        |  Already listed
  02    llScheduler
        | Stack used (prev) :  00000126 0000000E
        | + function block  :  00000034 00000000
        |  Already listed
  01  llAdvEvt_TaskAbort
      | Stack used (prev) :  00000D3F 0000008F
      | + function block  :  00000000 00000002
  <-Sub-tree of type: Function tree
    | Stack used          :  00000D3F 00000091


  ->Sub-tree of type: Function tree
                             XSTACK   ISTACK
    | Stack used (prev) :  00000D3F 00000091
  01  llDirectedAdvEvt_TaskEndOk::?relay
      | Stack used (prev) :  00000D3F 00000091
      | + function block  :  00000000 00000000
  <-Sub-tree of type: Function tree
    | Stack used          :  00000D3F 00000091


  ->Sub-tree of type: Function tree
                             XSTACK   ISTACK
    | Stack used (prev) :  00000D3F 00000091
  01  llAdvEvt_TaskConnect::?relay
      | Stack used (prev) :  00000D3F 00000091
      | + function block  :  00000000 00000000
  <-Sub-tree of type: Function tree
    | Stack used          :  00000D3F 00000091


  ->Sub-tree of type: Function tree
                             XSTACK   ISTACK
    | Stack used (prev) :  00000D3F 00000091
  01  llUndirectedAdvEvt_TaskEndOk::?relay
      | Stack used (prev) :  00000D3F 00000091
      | + function block  :  00000000 00000000
  <-Sub-tree of type: Function tree
    | Stack used          :  00000D3F 00000091


  ->Sub-tree of type: Function tree
                             XSTACK   ISTACK
    | Stack used (prev) :  00000D3F 00000091
  01  llDiscoverableAdvEvt_TaskEndOk::?relay
      | Stack used (prev) :  00000D3F 00000091
      | + function block  :  00000000 00000000
  <-Sub-tree of type: Function tree
    | Stack used          :  00000D3F 00000091


  ->Sub-tree of type: Function tree
                             XSTACK   ISTACK
    | Stack used (prev) :  00000D3F 00000091
  01  llNonConnAdvEvt_TaskEndOk::?relay
      | Stack used (prev) :  00000D3F 00000091
      | + function block  :  00000000 00000000
  <-Sub-tree of type: Function tree
    | Stack used          :  00000D3F 00000091


  ->Sub-tree of type: Function tree
                             XSTACK   ISTACK
    | Stack used (prev) :  00000D3F 00000091
  01  llAdvEvt_TaskAbort::?relay
      | Stack used (prev) :  00000D3F 00000091
      | + function block  :  00000000 00000000
  <-Sub-tree of type: Function tree
    | Stack used          :  00000D3F 00000091


  ->Sub-tree of type: Function tree
                             XSTACK   ISTACK
    | Stack used (prev) :  00000D3F 00000091
  01  llStartSlaveSetup
      | Stack used (prev) :  00000D3F 00000091
      | + function block  :  00000009 00000000
  <-Sub-tree of type: Function tree
    | Stack used          :  00000D48 00000091


  ->Sub-tree of type: Function tree
                             XSTACK   ISTACK
    | Stack used (prev) :  00000D48 00000091
  01  llRfInit::?relay
      | Stack used (prev) :  00000D48 00000091
      | + function block  :  00000000 00000000
  <-Sub-tree of type: Function tree
    | Stack used          :  00000D48 00000091


  ->Sub-tree of type: Function tree
                             XSTACK   ISTACK
    | Stack used (prev) :  00000D48 00000091
  01  llSetFreqTune::?relay
      | Stack used (prev) :  00000D48 00000091
      | + function block  :  00000000 00000000
  <-Sub-tree of type: Function tree
    | Stack used          :  00000D48 00000091


  ->Sub-tree of type: Function tree
                             XSTACK   ISTACK
    | Stack used (prev) :  00000D48 00000091
  01  llClearSetInts::?relay
      | Stack used (prev) :  00000D48 00000091
      | + function block  :  00000000 00000000
  <-Sub-tree of type: Function tree
    | Stack used          :  00000D48 00000091


  ->Sub-tree of type: Function tree
                             XSTACK   ISTACK
    | Stack used (prev) :  00000D48 00000091
  01  llProcessPostRfOps::?relay
      | Stack used (prev) :  00000D48 00000091
      | + function block  :  00000000 00000000
  <-Sub-tree of type: Function tree
    | Stack used          :  00000D48 00000091


  ->Sub-tree of type: Function tree
                             XSTACK   ISTACK
    | Stack used (prev) :  00000D48 00000091
  01  llFindTxPowerSettings::?relay
      | Stack used (prev) :  00000D48 00000091
      | + function block  :  00000000 00000000
  <-Sub-tree of type: Function tree
    | Stack used          :  00000D48 00000091


  ->Sub-tree of type: Function tree
                             XSTACK   ISTACK
    | Stack used (prev) :  00000D48 00000091
  01  llExtendRfRange::?relay
      | Stack used (prev) :  00000D48 00000091
      | + function block  :  00000000 00000000
  <-Sub-tree of type: Function tree
    | Stack used          :  00000D48 00000091


  ->Sub-tree of type: Function tree
                             XSTACK   ISTACK
    | Stack used (prev) :  00000D48 00000091
  01  llCheckWhiteListUsage::?relay
      | Stack used (prev) :  00000D48 00000091
      | + function block  :  00000000 00000000
  <-Sub-tree of type: Function tree
    | Stack used          :  00000D48 00000091


  ->Sub-tree of type: Function tree
                             XSTACK   ISTACK
    | Stack used (prev) :  00000D48 00000091
  01  llSetupAdv::?relay
      | Stack used (prev) :  00000D48 00000091
      | + function block  :  00000000 00000000
  <-Sub-tree of type: Function tree
    | Stack used          :  00000D48 00000091


  ->Sub-tree of type: Function tree
                             XSTACK   ISTACK
    | Stack used (prev) :  00000D48 00000091
  01  llSetupDirectedAdvEvt::?relay
      | Stack used (prev) :  00000D48 00000091
      | + function block  :  00000000 00000000
  <-Sub-tree of type: Function tree
    | Stack used          :  00000D48 00000091


  ->Sub-tree of type: Function tree
                             XSTACK   ISTACK
    | Stack used (prev) :  00000D48 00000091
  01  llSetupUndirectedAdvEvt::?relay
      | Stack used (prev) :  00000D48 00000091
      | + function block  :  00000000 00000000
  <-Sub-tree of type: Function tree
    | Stack used          :  00000D48 00000091


  ->Sub-tree of type: Function tree
                             XSTACK   ISTACK
    | Stack used (prev) :  00000D48 00000091
  01  llSetupNonConnectableAdvEvt::?relay
      | Stack used (prev) :  00000D48 00000091
      | + function block  :  00000000 00000000
  <-Sub-tree of type: Function tree
    | Stack used          :  00000D48 00000091


  ->Sub-tree of type: Function tree
                             XSTACK   ISTACK
    | Stack used (prev) :  00000D48 00000091
  01  llSetupScannableAdvEvt::?relay
      | Stack used (prev) :  00000D48 00000091
      | + function block  :  00000000 00000000
  <-Sub-tree of type: Function tree
    | Stack used          :  00000D48 00000091


  ->Sub-tree of type: Function tree
                             XSTACK   ISTACK
    | Stack used (prev) :  00000D48 00000091
  01  llStartAdvSetup::?relay
      | Stack used (prev) :  00000D48 00000091
      | + function block  :  00000000 00000000
  <-Sub-tree of type: Function tree
    | Stack used          :  00000D48 00000091


  ->Sub-tree of type: Function tree
                             XSTACK   ISTACK
    | Stack used (prev) :  00000D48 00000091
  01  llStartSlaveSetup::?relay
      | Stack used (prev) :  00000D48 00000091
      | + function block  :  00000000 00000000
  <-Sub-tree of type: Function tree
    | Stack used          :  00000D48 00000091


  ->Sub-tree of type: Function tree
                             XSTACK   ISTACK
    | Stack used (prev) :  00000D48 00000091
  01  llSetupEncRsp::?relay
      | Stack used (prev) :  00000D48 00000091
      | + function block  :  00000000 00000000
  <-Sub-tree of type: Function tree
    | Stack used          :  00000D48 00000091


  ->Sub-tree of type: Function tree
                             XSTACK   ISTACK
    | Stack used (prev) :  00000D48 00000091
  01  llSetupStartEncReq::?relay
      | Stack used (prev) :  00000D48 00000091
      | + function block  :  00000000 00000000
  <-Sub-tree of type: Function tree
    | Stack used          :  00000D48 00000091


  ->Sub-tree of type: Function tree
                             XSTACK   ISTACK
    | Stack used (prev) :  00000D48 00000091
  01  llSetupStartEncRsp::?relay
      | Stack used (prev) :  00000D48 00000091
      | + function block  :  00000000 00000000
  <-Sub-tree of type: Function tree
    | Stack used          :  00000D48 00000091


  ->Sub-tree of type: Function tree
                             XSTACK   ISTACK
    | Stack used (prev) :  00000D48 00000091
  01  llSetupPauseEncRsp::?relay
      | Stack used (prev) :  00000D48 00000091
      | + function block  :  00000000 00000000
  <-Sub-tree of type: Function tree
    | Stack used          :  00000D48 00000091


  ->Sub-tree of type: Function tree
                             XSTACK   ISTACK
    | Stack used (prev) :  00000D48 00000091
  01  llSetupRejectInd::?relay
      | Stack used (prev) :  00000D48 00000091
      | + function block  :  00000000 00000000
  <-Sub-tree of type: Function tree
    | Stack used          :  00000D48 00000091


  ->Sub-tree of type: Function tree
                             XSTACK   ISTACK
    | Stack used (prev) :  00000D48 00000091
  01  llSetupFeatureSetRsp::?relay
      | Stack used (prev) :  00000D48 00000091
      | + function block  :  00000000 00000000
  <-Sub-tree of type: Function tree
    | Stack used          :  00000D48 00000091


  ->Sub-tree of type: Function tree
                             XSTACK   ISTACK
    | Stack used (prev) :  00000D48 00000091
  01  llSetupVersionIndReq::?relay
      | Stack used (prev) :  00000D48 00000091
      | + function block  :  00000000 00000000
  <-Sub-tree of type: Function tree
    | Stack used          :  00000D48 00000091


  ->Sub-tree of type: Function tree
                             XSTACK   ISTACK
    | Stack used (prev) :  00000D48 00000091
  01  llSetupTermInd::?relay
      | Stack used (prev) :  00000D48 00000091
      | + function block  :  00000000 00000000
  <-Sub-tree of type: Function tree
    | Stack used          :  00000D48 00000091


  ->Sub-tree of type: Function tree
                             XSTACK   ISTACK
    | Stack used (prev) :  00000D48 00000091
  01  llSetupUnknownRsp::?relay
      | Stack used (prev) :  00000D48 00000091
      | + function block  :  00000000 00000000
  <-Sub-tree of type: Function tree
    | Stack used          :  00000D48 00000091


  ->Sub-tree of type: Function tree
                             XSTACK   ISTACK
    | Stack used (prev) :  00000D48 00000091
  01  llEnqueueCtrlPkt::?relay
      | Stack used (prev) :  00000D48 00000091
      | + function block  :  00000000 00000000
  <-Sub-tree of type: Function tree
    | Stack used          :  00000D48 00000091


  ->Sub-tree of type: Function tree
                             XSTACK   ISTACK
    | Stack used (prev) :  00000D48 00000091
  01  llDequeueCtrlPkt::?relay
      | Stack used (prev) :  00000D48 00000091
      | + function block  :  00000000 00000000
  <-Sub-tree of type: Function tree
    | Stack used          :  00000D48 00000091


  ->Sub-tree of type: Function tree
                             XSTACK   ISTACK
    | Stack used (prev) :  00000D48 00000091
  01  llReplaceCtrlPkt::?relay
      | Stack used (prev) :  00000D48 00000091
      | + function block  :  00000000 00000000
  <-Sub-tree of type: Function tree
    | Stack used          :  00000D48 00000091


  ->Sub-tree of type: Function tree
                             XSTACK   ISTACK
    | Stack used (prev) :  00000D48 00000091
  01  llProcessChanMap::?relay
      | Stack used (prev) :  00000D48 00000091
      | + function block  :  00000000 00000000
  <-Sub-tree of type: Function tree
    | Stack used          :  00000D48 00000091


  ->Sub-tree of type: Function tree
                             XSTACK   ISTACK
    | Stack used (prev) :  00000D48 00000091
  01  llAllocConnId::?relay
      | Stack used (prev) :  00000D48 00000091
      | + function block  :  00000000 00000000
  <-Sub-tree of type: Function tree
    | Stack used          :  00000D48 00000091


  ->Sub-tree of type: Function tree
                             XSTACK   ISTACK
    | Stack used (prev) :  00000D48 00000091
  01  llReleaseAllConnId::?relay
      | Stack used (prev) :  00000D48 00000091
      | + function block  :  00000000 00000000
  <-Sub-tree of type: Function tree
    | Stack used          :  00000D48 00000091


  ->Sub-tree of type: Function tree
                             XSTACK   ISTACK
    | Stack used (prev) :  00000D48 00000091
  01  llGetNextConn::?relay
      | Stack used (prev) :  00000D48 00000091
      | + function block  :  00000000 00000000
  <-Sub-tree of type: Function tree
    | Stack used          :  00000D48 00000091


  ->Sub-tree of type: Function tree
                             XSTACK   ISTACK
    | Stack used (prev) :  00000D48 00000091
  01  llConnCleanup::?relay
      | Stack used (prev) :  00000D48 00000091
      | + function block  :  00000000 00000000
  <-Sub-tree of type: Function tree
    | Stack used          :  00000D48 00000091


  ->Sub-tree of type: Function tree
                             XSTACK   ISTACK
    | Stack used (prev) :  00000D48 00000091
  01  llConnTerminate::?relay
      | Stack used (prev) :  00000D48 00000091
      | + function block  :  00000000 00000000
  <-Sub-tree of type: Function tree
    | Stack used          :  00000D48 00000091


  ->Sub-tree of type: Function tree
                             XSTACK   ISTACK
    | Stack used (prev) :  00000D48 00000091
  01  llInitFeatureSet::?relay
      | Stack used (prev) :  00000D48 00000091
      | + function block  :  00000000 00000000
  <-Sub-tree of type: Function tree
    | Stack used          :  00000D48 00000091


  ->Sub-tree of type: Function tree
                             XSTACK   ISTACK
    | Stack used (prev) :  00000D48 00000091
  01  llConvertLstoToEvent::?relay
      | Stack used (prev) :  00000D48 00000091
      | + function block  :  00000000 00000000
  <-Sub-tree of type: Function tree
    | Stack used          :  00000D48 00000091


  ->Sub-tree of type: Function tree
                             XSTACK   ISTACK
    | Stack used (prev) :  00000D48 00000091
  01  llConvertCtrlProcTimeoutToEvent::?relay
      | Stack used (prev) :  00000D48 00000091
      | + function block  :  00000000 00000000
  <-Sub-tree of type: Function tree
    | Stack used          :  00000D48 00000091


  ->Sub-tree of type: Function tree
                             XSTACK   ISTACK
    | Stack used (prev) :  00000D48 00000091
  01  llAdjustForMissedEvent::?relay
      | Stack used (prev) :  00000D48 00000091
      | + function block  :  00000000 00000000
  <-Sub-tree of type: Function tree
    | Stack used          :  00000D48 00000091


  ->Sub-tree of type: Function tree
                             XSTACK   ISTACK
    | Stack used (prev) :  00000D48 00000091
  01  llWriteTxData::?relay
      | Stack used (prev) :  00000D48 00000091
      | + function block  :  00000000 00000000
  <-Sub-tree of type: Function tree
    | Stack used          :  00000D48 00000091


  ->Sub-tree of type: Function tree
                             XSTACK   ISTACK
    | Stack used (prev) :  00000D48 00000091
  01  llEnqueueDataQ::?relay
      | Stack used (prev) :  00000D48 00000091
      | + function block  :  00000000 00000000
  <-Sub-tree of type: Function tree
    | Stack used          :  00000D48 00000091


  ->Sub-tree of type: Function tree
                             XSTACK   ISTACK
    | Stack used (prev) :  00000D48 00000091
  01  llMemCopySrc::?relay
      | Stack used (prev) :  00000D48 00000091
      | + function block  :  00000000 00000000
  <-Sub-tree of type: Function tree
    | Stack used          :  00000D48 00000091


  ->Sub-tree of type: Function tree
                             XSTACK   ISTACK
    | Stack used (prev) :  00000D48 00000091
  01  LL_ENC_ReverseBytes::?relay
      | Stack used (prev) :  00000D48 00000091
      | + function block  :  00000000 00000000
  <-Sub-tree of type: Function tree
    | Stack used          :  00000D48 00000091


  ->Sub-tree of type: Function tree
                             XSTACK   ISTACK
    | Stack used (prev) :  00000D48 00000091
  01  LL_ENC_GeneratePseudoRandNum::?relay
      | Stack used (prev) :  00000D48 00000091
      | + function block  :  00000000 00000000
  <-Sub-tree of type: Function tree
    | Stack used          :  00000D48 00000091


  ->Sub-tree of type: Function tree
                             XSTACK   ISTACK
    | Stack used (prev) :  00000D48 00000091
  01  LL_ENC_GenerateTrueRandNum::?relay
      | Stack used (prev) :  00000D48 00000091
      | + function block  :  00000000 00000000
  <-Sub-tree of type: Function tree
    | Stack used          :  00000D48 00000091


  ->Sub-tree of type: Function tree
                             XSTACK   ISTACK
    | Stack used (prev) :  00000D48 00000091
  01  LL_ENC_GenDeviceSKD::?relay
      | Stack used (prev) :  00000D48 00000091
      | + function block  :  00000000 00000000
  <-Sub-tree of type: Function tree
    | Stack used          :  00000D48 00000091


  ->Sub-tree of type: Function tree
                             XSTACK   ISTACK
    | Stack used (prev) :  00000D48 00000091
  01  LL_ENC_GenDeviceIV::?relay
      | Stack used (prev) :  00000D48 00000091
      | + function block  :  00000000 00000000
  <-Sub-tree of type: Function tree
    | Stack used          :  00000D48 00000091


  ->Sub-tree of type: Function tree
                             XSTACK   ISTACK
    | Stack used (prev) :  00000D48 00000091
  01  LL_ENC_AES128_Encrypt::?relay
      | Stack used (prev) :  00000D48 00000091
      | + function block  :  00000000 00000000
  <-Sub-tree of type: Function tree
    | Stack used          :  00000D48 00000091


  ->Sub-tree of type: Function tree
                             XSTACK   ISTACK
    | Stack used (prev) :  00000D48 00000091
  01  LL_ENC_InitAesDMA::?relay
      | Stack used (prev) :  00000D48 00000091
      | + function block  :  00000000 00000000
  <-Sub-tree of type: Function tree
    | Stack used          :  00000D48 00000091


  ->Sub-tree of type: Function tree
                             XSTACK   ISTACK
    | Stack used (prev) :  00000D48 00000091
  01  LL_ENC_MoveData::?relay
      | Stack used (prev) :  00000D48 00000091
      | + function block  :  00000000 00000000
  <-Sub-tree of type: Function tree
    | Stack used          :  00000D48 00000091


  ->Sub-tree of type: Function tree
                             XSTACK   ISTACK
    | Stack used (prev) :  00000D48 00000091
  01  LL_ENC_LoadEmptyIV::?relay
      | Stack used (prev) :  00000D48 00000091
      | + function block  :  00000000 00000000
  <-Sub-tree of type: Function tree
    | Stack used          :  00000D48 00000091


  ->Sub-tree of type: Function tree
                             XSTACK   ISTACK
    | Stack used (prev) :  00000D48 00000091
  01  LL_ENC_EncryptMsg::?relay
      | Stack used (prev) :  00000D48 00000091
      | + function block  :  00000000 00000000
  <-Sub-tree of type: Function tree
    | Stack used          :  00000D48 00000091


  ->Sub-tree of type: Function tree
                             XSTACK   ISTACK
    | Stack used (prev) :  00000D48 00000091
  01  LL_ENC_DecryptMsg::?relay
      | Stack used (prev) :  00000D48 00000091
      | + function block  :  00000000 00000000
  <-Sub-tree of type: Function tree
    | Stack used          :  00000D48 00000091


  ->Sub-tree of type: Function tree
                             XSTACK   ISTACK
    | Stack used (prev) :  00000D48 00000091
  01  LL_ENC_GenerateMIC::?relay
      | Stack used (prev) :  00000D48 00000091
      | + function block  :  00000000 00000000
  <-Sub-tree of type: Function tree
    | Stack used          :  00000D48 00000091


  ->Sub-tree of type: Function tree
                             XSTACK   ISTACK
    | Stack used (prev) :  00000D48 00000091
  01  LL_ENC_Encrypt::?relay
      | Stack used (prev) :  00000D48 00000091
      | + function block  :  00000000 00000000
  <-Sub-tree of type: Function tree
    | Stack used          :  00000D48 00000091


  ->Sub-tree of type: Function tree
                             XSTACK   ISTACK
    | Stack used (prev) :  00000D48 00000091
  01  LL_ENC_Decrypt::?relay
      | Stack used (prev) :  00000D48 00000091
      | + function block  :  00000000 00000000
  <-Sub-tree of type: Function tree
    | Stack used          :  00000D48 00000091


  ->Sub-tree of type: Function tree
                             XSTACK   ISTACK
    | Stack used (prev) :  00000D48 00000091
  01  llUnexpectedEndCauseHandler
      | Stack used (prev) :  00000D48 00000091
      | + function block  :  00000000 00000000
  <-Sub-tree of type: Function tree
    | Stack used          :  00000D48 00000091


  ->Sub-tree of type: Function tree
                             XSTACK   ISTACK
    | Stack used (prev) :  00000D48 00000091
  01  llUnexpectedEndCauseHandler::?relay
      | Stack used (prev) :  00000D48 00000091
      | + function block  :  00000000 00000000
  <-Sub-tree of type: Function tree
    | Stack used          :  00000D48 00000091


  ->Sub-tree of type: Function tree
                             XSTACK   ISTACK
    | Stack used (prev) :  00000D48 00000091
  01  llSchedulerInit::?relay
      | Stack used (prev) :  00000D48 00000091
      | + function block  :  00000000 00000000
  <-Sub-tree of type: Function tree
    | Stack used          :  00000D48 00000091


  ->Sub-tree of type: Function tree
                             XSTACK   ISTACK
    | Stack used (prev) :  00000D48 00000091
  01  llScheduler::?relay
      | Stack used (prev) :  00000D48 00000091
      | + function block  :  00000000 00000000
  <-Sub-tree of type: Function tree
    | Stack used          :  00000D48 00000091


  ->Sub-tree of type: Function tree
                             XSTACK   ISTACK
    | Stack used (prev) :  00000D48 00000091
  01  llScheduleTask::?relay
      | Stack used (prev) :  00000D48 00000091
      | + function block  :  00000000 00000000
  <-Sub-tree of type: Function tree
    | Stack used          :  00000D48 00000091


  ->Sub-tree of type: Function tree
                             XSTACK   ISTACK
    | Stack used (prev) :  00000D48 00000091
  01  llFindNextSecTask::?relay
      | Stack used (prev) :  00000D48 00000091
      | + function block  :  00000000 00000000
  <-Sub-tree of type: Function tree
    | Stack used          :  00000D48 00000091


  ->Sub-tree of type: Function tree
                             XSTACK   ISTACK
    | Stack used (prev) :  00000D48 00000091
  01  llAllocTask::?relay
      | Stack used (prev) :  00000D48 00000091
      | + function block  :  00000000 00000000
  <-Sub-tree of type: Function tree
    | Stack used          :  00000D48 00000091


  ->Sub-tree of type: Function tree
                             XSTACK   ISTACK
    | Stack used (prev) :  00000D48 00000091
  01  llFreeTask::?relay
      | Stack used (prev) :  00000D48 00000091
      | + function block  :  00000000 00000000
  <-Sub-tree of type: Function tree
    | Stack used          :  00000D48 00000091


  ->Sub-tree of type: Function tree
                             XSTACK   ISTACK
    | Stack used (prev) :  00000D48 00000091
  01  llGetCurrentTask::?relay
      | Stack used (prev) :  00000D48 00000091
      | + function block  :  00000000 00000000
  <-Sub-tree of type: Function tree
    | Stack used          :  00000D48 00000091


  ->Sub-tree of type: Function tree
                             XSTACK   ISTACK
    | Stack used (prev) :  00000D48 00000091
  01  llGetTaskState::?relay
      | Stack used (prev) :  00000D48 00000091
      | + function block  :  00000000 00000000
  <-Sub-tree of type: Function tree
    | Stack used          :  00000D48 00000091


  ->Sub-tree of type: Function tree
                             XSTACK   ISTACK
    | Stack used (prev) :  00000D48 00000091
  01  llGetActiveTasks::?relay
      | Stack used (prev) :  00000D48 00000091
      | + function block  :  00000000 00000000
  <-Sub-tree of type: Function tree
    | Stack used          :  00000D48 00000091


  ->Sub-tree of type: Function tree
                             XSTACK   ISTACK
    | Stack used (prev) :  00000D48 00000091
  01  llGetNumTasks::?relay
      | Stack used (prev) :  00000D48 00000091
      | + function block  :  00000000 00000000
  <-Sub-tree of type: Function tree
    | Stack used          :  00000D48 00000091


  ->Sub-tree of type: Function tree
                             XSTACK   ISTACK
    | Stack used (prev) :  00000D48 00000091
  01  llSave_txFIFO::?relay
      | Stack used (prev) :  00000D48 00000091
      | + function block  :  00000000 00000000
  <-Sub-tree of type: Function tree
    | Stack used          :  00000D48 00000091


  ->Sub-tree of type: Function tree
                             XSTACK   ISTACK
    | Stack used (prev) :  00000D48 00000091
  01  llSave_rxFIFO::?relay
      | Stack used (prev) :  00000D48 00000091
      | + function block  :  00000000 00000000
  <-Sub-tree of type: Function tree
    | Stack used          :  00000D48 00000091


  ->Sub-tree of type: Function tree
                             XSTACK   ISTACK
    | Stack used (prev) :  00000D48 00000091
  01  llRestoreConnState::?relay
      | Stack used (prev) :  00000D48 00000091
      | + function block  :  00000000 00000000
  <-Sub-tree of type: Function tree
    | Stack used          :  00000D48 00000091


  ->Sub-tree of type: Function tree
                             XSTACK   ISTACK
    | Stack used (prev) :  00000D48 00000091
  02    osal_set_event
        | Stack used (prev) :  00000000 00000000
        | + function block  :  00000017 00000000
        |  Already listed
  02    llGetTimer2Capture
        | Stack used (prev) :  00000CB4 0000008A
        | + function block  :  00000000 00000003
        |  Already listed
  03      LL_ENC_AES128_Encrypt
          | Stack used (prev) :  000003F2 0000005A
          | + function block  :  00000002 00000002
          |  Already listed
  03      llConnTerminate
          | Stack used (prev) :  0000015A 0000000E
          | + function block  :  00000012 00000000
          |  Already listed
  03      llReplaceCtrlPkt
          | Stack used (prev) :  000003F2 0000005A
          | + function block  :  00000000 00000003
          |  Already listed
  03      llDequeueCtrlPkt
          | Stack used (prev) :  00000D48 00000091
          | + function block  :  0000000A 00000001
  04        LL_ENC_Encrypt
            | Stack used (prev) :  000000A1 00000002
            | + function block  :  0000003A 00000000
            |  Already listed
  03      llSetupUnknownRsp
          | Stack used (prev) :  00000D48 00000091
          | + function block  :  0000000C 00000000
  04        PHY_SetMaxNack
            | Stack used (prev) :  00000CB4 0000008A
            | + function block  :  00000000 00000002
            |  Already listed
  04        LL_ENC_Encrypt
            | Stack used (prev) :  000000A1 00000002
            | + function block  :  0000003A 00000000
            |  Already listed
  03      llSetupTermInd
          | Stack used (prev) :  00000D48 00000091
          | + function block  :  0000000C 00000000
  04        PHY_SetMaxNack
            | Stack used (prev) :  00000CB4 0000008A
            | + function block  :  00000000 00000002
            |  Already listed
  04        LL_ENC_Encrypt
            | Stack used (prev) :  000000A1 00000002
            | + function block  :  0000003A 00000000
            |  Already listed
  03      llSetupVersionIndReq
          | Stack used (prev) :  00000D48 00000091
          | + function block  :  0000000C 00000000
  04        PHY_SetMaxNack
            | Stack used (prev) :  00000CB4 0000008A
            | + function block  :  00000000 00000002
            |  Already listed
  04        LL_ENC_Encrypt
            | Stack used (prev) :  000000A1 00000002
            | + function block  :  0000003A 00000000
            |  Already listed
  03      llSetupFeatureSetRsp
          | Stack used (prev) :  00000D48 00000091
          | + function block  :  0000000C 00000001
  04        PHY_SetMaxNack
            | Stack used (prev) :  00000CB4 0000008A
            | + function block  :  00000000 00000002
            |  Already listed
  03      llSetupRejectInd
          | Stack used (prev) :  00000D48 00000091
          | + function block  :  00000009 00000000
  04        LL_ENC_Encrypt
            | Stack used (prev) :  000000A1 00000002
            | + function block  :  0000003A 00000000
            |  Already listed
  03      llSetupPauseEncRsp
          | Stack used (prev) :  00000D48 00000091
          | + function block  :  0000000C 00000000
  04        LL_ENC_Encrypt
            | Stack used (prev) :  000000A1 00000002
            | + function block  :  0000003A 00000000
            |  Already listed
  03      llSetupStartEncRsp
          | Stack used (prev) :  00000D48 00000091
          | + function block  :  0000000C 00000000
  03      llSetupStartEncReq
          | Stack used (prev) :  00000D48 00000091
          | + function block  :  00000000 00000002
  04        LL_ENC_ReverseBytes
            | Stack used (prev) :  00000000 00000000
            | + function block  :  0000000A 00000001
            |  Already listed
  03      llSetupEncRsp
          | Stack used (prev) :  00000D48 00000091
          | + function block  :  00000009 00000001
  04        osal_msg_send
            | Stack used (prev) :  00000032 00000006
            | + function block  :  00000012 00000000
            |  Already listed
  04        osal_msg_allocate
            | Stack used (prev) :  00000018 00000000
            | + function block  :  00000014 00000000
            |  Already listed
  03      LL_EncKeyRefreshCback
          | Stack used (prev) :  00000D48 00000091
          | + function block  :  0000000C 00000001
  04        osal_msg_send
            | Stack used (prev) :  00000032 00000006
            | + function block  :  00000012 00000000
            |  Already listed
  04        osal_msg_allocate
            | Stack used (prev) :  00000018 00000000
            | + function block  :  00000014 00000000
            |  Already listed
  03      LL_EncChangeCback
          | Stack used (prev) :  00000D48 00000091
          | + function block  :  0000000C 00000001
  04        osal_msg_send
            | Stack used (prev) :  00000032 00000006
            | + function block  :  00000012 00000000
            |  Already listed
  04        osal_msg_allocate
            | Stack used (prev) :  00000018 00000000
            | + function block  :  00000014 00000000
            |  Already listed
  04        osal_memcpy
            | Stack used (prev) :  00000000 00000000
            | + function block  :  00000019 00000001
            |  Already listed
  04        LL_EncLtkNegReply
            | Stack used (prev) :  000003F2 0000005A
            | + function block  :  00000000 00000002
            |  Already listed
  03      LL_EncLtkReqCback
          | Stack used (prev) :  00000D48 00000091
          | + function block  :  00000018 00000001
  04        osal_msg_send
            | Stack used (prev) :  00000032 00000006
            | + function block  :  00000012 00000000
            |  Already listed
  04        osal_msg_allocate
            | Stack used (prev) :  00000018 00000000
            | + function block  :  00000014 00000000
            |  Already listed
  03      LL_ReadRemoteVersionInfoCback
          | Stack used (prev) :  00000D48 00000091
          | + function block  :  00000010 00000001
  02    llProcessSlaveControlProcedures
        | Stack used (prev) :  00000D60 00000093
        | + function block  :  00000024 00000000
  03      PHY_SetEndConnection
          | Stack used (prev) :  00000000 00000000
          | + function block  :  00000000 00000002
          |  Already listed
  03      llCalcTimerDrift
          | Stack used (prev) :  00000CB4 0000008A
          | + function block  :  00000017 00000000
          |  Already listed
  03      llAdjustTimeBackward
          | Stack used (prev) :  00000CB4 0000008A
          | + function block  :  0000000B 00000000
          |  Already listed
  04        ll24BitTimeCompare
            | Stack used (prev) :  00000000 00000000
            | + function block  :  00000017 00000000
            |  Already listed
  04        llGetCurrentTime
            | Stack used (prev) :  00000000 00000000
            | + function block  :  00000004 00000003
            |  Already listed
  03      llAdjustForMissedEvent
          | Stack used (prev) :  00000D48 00000091
          | + function block  :  0000001C 00000002
  03      llConvertCtrlProcTimeoutToEvent
          | Stack used (prev) :  00000CB4 0000008A
          | + function block  :  0000000A 00000000
          |  Already listed
  03      llConvertLstoToEvent
          | Stack used (prev) :  00000CB4 0000008A
          | + function block  :  0000000A 00000000
          |  Already listed
  03      llConnTerminate
          | Stack used (prev) :  0000015A 0000000E
          | + function block  :  00000012 00000000
          |  Already listed
  03      llEventDelta
          | Stack used (prev) :  00000D48 00000091
          | + function block  :  00000000 00000000
  03      llEventInRange
          | Stack used (prev) :  00000D48 00000091
          | + function block  :  00000002 00000002
  03      llSetNextDataChan
          | Stack used (prev) :  0000040A 0000005A
          | + function block  :  00000016 00000002
          |  Already listed
  04        osal_msg_send
            | Stack used (prev) :  00000032 00000006
            | + function block  :  00000012 00000000
            |  Already listed
  04        osal_msg_allocate
            | Stack used (prev) :  00000018 00000000
            | + function block  :  00000014 00000000
            |  Already listed
  03      LL_ConnParamUpdateCback
          | Stack used (prev) :  00000D48 00000091
          | + function block  :  00000014 00000001
  02    llSetupNextSlaveEvent
        | Stack used (prev) :  00000D64 00000091
        | + function block  :  0000003C 00000002
  02    llScheduler
        | Stack used (prev) :  00000126 0000000E
        | + function block  :  00000034 00000000
        |  Already listed
  02    llConnTerminate
        | Stack used (prev) :  0000015A 0000000E
        | + function block  :  00000012 00000000
        |  Already listed
  02    llProcessTxData
        | Stack used (prev) :  00000104 00000006
        | + function block  :  00000022 00000000
        |  Already listed
  02    llProcessRxData
        | Stack used (prev) :  00000194 0000000E
        | + function block  :  00000022 00000000
        |  Already listed
  01  llSlaveEvt_TaskEndOk
      | Stack used (prev) :  00000DA0 00000093
      | + function block  :  00000018 00000000
  <-Sub-tree of type: Function tree
    | Stack used          :  00000DB8 00000093


  ->Sub-tree of type: Function tree
                             XSTACK   ISTACK
    | Stack used (prev) :  00000DB8 00000093
  01  llSlaveEvt_TaskAbort
      | Stack used (prev) :  00000DB8 00000093
      | + function block  :  00000000 00000000
  <-Sub-tree of type: Function tree
    | Stack used          :  00000DB8 00000093


  ->Sub-tree of type: Function tree
                             XSTACK   ISTACK
    | Stack used (prev) :  00000DB8 00000093
  01  llSlaveEvt_TaskEndOk::?relay
      | Stack used (prev) :  00000DB8 00000093
      | + function block  :  00000000 00000000
  <-Sub-tree of type: Function tree
    | Stack used          :  00000DB8 00000093


  ->Sub-tree of type: Function tree
                             XSTACK   ISTACK
    | Stack used (prev) :  00000DB8 00000093
  01  llSlaveEvt_TaskAbort::?relay
      | Stack used (prev) :  00000DB8 00000093
      | + function block  :  00000000 00000000
  <-Sub-tree of type: Function tree
    | Stack used          :  00000DB8 00000093


  ->Sub-tree of type: Function tree
                             XSTACK   ISTACK
    | Stack used (prev) :  00000DB8 00000093
  01  llSetupNextSlaveEvent::?relay
      | Stack used (prev) :  00000DB8 00000093
      | + function block  :  00000000 00000000
  <-Sub-tree of type: Function tree
    | Stack used          :  00000DB8 00000093


  ->Sub-tree of type: Function tree
                             XSTACK   ISTACK
    | Stack used (prev) :  00000DB8 00000093
  01  llProcessSlaveControlPacket::?relay
      | Stack used (prev) :  00000DB8 00000093
      | + function block  :  00000000 00000000
  <-Sub-tree of type: Function tree
    | Stack used          :  00000DB8 00000093


  ->Sub-tree of type: Function tree
                             XSTACK   ISTACK
    | Stack used (prev) :  00000DB8 00000093
  01  llProcessSlaveControlProcedures::?relay
      | Stack used (prev) :  00000DB8 00000093
      | + function block  :  00000000 00000000
  <-Sub-tree of type: Function tree
    | Stack used          :  00000DB8 00000093


  ->Sub-tree of type: Function tree
                             XSTACK   ISTACK
    | Stack used (prev) :  00000DB8 00000093
  01  llInitTimer2::?relay
      | Stack used (prev) :  00000DB8 00000093
      | + function block  :  00000000 00000000
  <-Sub-tree of type: Function tree
    | Stack used          :  00000DB8 00000093


  ->Sub-tree of type: Function tree
                             XSTACK   ISTACK
    | Stack used (prev) :  00000DB8 00000093
  01  llStopTimer2::?relay
      | Stack used (prev) :  00000DB8 00000093
      | + function block  :  00000000 00000000
  <-Sub-tree of type: Function tree
    | Stack used          :  00000DB8 00000093


  ->Sub-tree of type: Function tree
                             XSTACK   ISTACK
    | Stack used (prev) :  00000DB8 00000093
  01  llStartTimer2::?relay
      | Stack used (prev) :  00000DB8 00000093
      | + function block  :  00000000 00000000
  <-Sub-tree of type: Function tree
    | Stack used          :  00000DB8 00000093


  ->Sub-tree of type: Function tree
                             XSTACK   ISTACK
    | Stack used (prev) :  00000DB8 00000093
  01  llSetT2LongC1Timeout::?relay
      | Stack used (prev) :  00000DB8 00000093
      | + function block  :  00000000 00000000
  <-Sub-tree of type: Function tree
    | Stack used          :  00000DB8 00000093


  ->Sub-tree of type: Function tree
                             XSTACK   ISTACK
    | Stack used (prev) :  00000DB8 00000093
  01  llSetT2C1Event1::?relay
      | Stack used (prev) :  00000DB8 00000093
      | + function block  :  00000000 00000000
  <-Sub-tree of type: Function tree
    | Stack used          :  00000DB8 00000093


  ->Sub-tree of type: Function tree
                             XSTACK   ISTACK
    | Stack used (prev) :  00000DB8 00000093
  01  llSetT2LongC1Event1::?relay
      | Stack used (prev) :  00000DB8 00000093
      | + function block  :  00000000 00000000
  <-Sub-tree of type: Function tree
    | Stack used          :  00000DB8 00000093


  ->Sub-tree of type: Function tree
                             XSTACK   ISTACK
    | Stack used (prev) :  00000DB8 00000093
  01  llSetT2OVFC2Event2::?relay
      | Stack used (prev) :  00000DB8 00000093
      | + function block  :  00000000 00000000
  <-Sub-tree of type: Function tree
    | Stack used          :  00000DB8 00000093


  ->Sub-tree of type: Function tree
                             XSTACK   ISTACK
    | Stack used (prev) :  00000DB8 00000093
  01  llDisableT2Ints::?relay
      | Stack used (prev) :  00000DB8 00000093
      | + function block  :  00000000 00000000
  <-Sub-tree of type: Function tree
    | Stack used          :  00000DB8 00000093


  ->Sub-tree of type: Function tree
                             XSTACK   ISTACK
    | Stack used (prev) :  00000DB8 00000093
  01  llDisableT2IntsEvts::?relay
      | Stack used (prev) :  00000DB8 00000093
      | + function block  :  00000000 00000000
  <-Sub-tree of type: Function tree
    | Stack used          :  00000DB8 00000093


  ->Sub-tree of type: Function tree
                             XSTACK   ISTACK
    | Stack used (prev) :  00000DB8 00000093
  01  llDisableT2E1::?relay
      | Stack used (prev) :  00000DB8 00000093
      | + function block  :  00000000 00000000
  <-Sub-tree of type: Function tree
    | Stack used          :  00000DB8 00000093


  ->Sub-tree of type: Function tree
                             XSTACK   ISTACK
    | Stack used (prev) :  00000DB8 00000093
  01  llGetTimer2Capture::?relay
      | Stack used (prev) :  00000DB8 00000093
      | + function block  :  00000000 00000000
  <-Sub-tree of type: Function tree
    | Stack used          :  00000DB8 00000093


  ->Sub-tree of type: Function tree
                             XSTACK   ISTACK
    | Stack used (prev) :  00000DB8 00000093
  01  llGetCurrentTime::?relay
      | Stack used (prev) :  00000DB8 00000093
      | + function block  :  00000000 00000000
  <-Sub-tree of type: Function tree
    | Stack used          :  00000DB8 00000093


  ->Sub-tree of type: Function tree
                             XSTACK   ISTACK
    | Stack used (prev) :  00000DB8 00000093
  01  llGetFullCTandST::?relay
      | Stack used (prev) :  00000DB8 00000093
      | + function block  :  00000000 00000000
  <-Sub-tree of type: Function tree
    | Stack used          :  00000DB8 00000093


  ->Sub-tree of type: Function tree
                             XSTACK   ISTACK
    | Stack used (prev) :  00000DB8 00000093
  01  ll_McuPrecisionCount::?relay
      | Stack used (prev) :  00000DB8 00000093
      | + function block  :  00000000 00000000
  <-Sub-tree of type: Function tree
    | Stack used          :  00000DB8 00000093


  ->Sub-tree of type: Function tree
                             XSTACK   ISTACK
    | Stack used (prev) :  00000DB8 00000093
  01  PHY_Init::?relay
      | Stack used (prev) :  00000DB8 00000093
      | + function block  :  00000000 00000000
  <-Sub-tree of type: Function tree
    | Stack used          :  00000DB8 00000093


  ->Sub-tree of type: Function tree
                             XSTACK   ISTACK
    | Stack used (prev) :  00000DB8 00000093
  01  PHY_Reset::?relay
      | Stack used (prev) :  00000DB8 00000093
      | + function block  :  00000000 00000000
  <-Sub-tree of type: Function tree
    | Stack used          :  00000DB8 00000093


  ->Sub-tree of type: Function tree
                             XSTACK   ISTACK
    | Stack used (prev) :  00000DB8 00000093
  01  PHY_ClearAllRegsAndFifos::?relay
      | Stack used (prev) :  00000DB8 00000093
      | + function block  :  00000000 00000000
  <-Sub-tree of type: Function tree
    | Stack used          :  00000DB8 00000093


  ->Sub-tree of type: Function tree
                             XSTACK   ISTACK
    | Stack used (prev) :  00000DB8 00000093
  01  PHY_SetOwnAddr::?relay
      | Stack used (prev) :  00000DB8 00000093
      | + function block  :  00000000 00000000
  <-Sub-tree of type: Function tree
    | Stack used          :  00000DB8 00000093


  ->Sub-tree of type: Function tree
                             XSTACK   ISTACK
    | Stack used (prev) :  00000DB8 00000093
  01  PHY_SetPeerAddr::?relay
      | Stack used (prev) :  00000DB8 00000093
      | + function block  :  00000000 00000000
  <-Sub-tree of type: Function tree
    | Stack used          :  00000DB8 00000093


  ->Sub-tree of type: Function tree
                             XSTACK   ISTACK
    | Stack used (prev) :  00000DB8 00000093
  01  PHY_SetCRCInit::?relay
      | Stack used (prev) :  00000DB8 00000093
      | + function block  :  00000000 00000000
  <-Sub-tree of type: Function tree
    | Stack used          :  00000DB8 00000093


  ->Sub-tree of type: Function tree
                             XSTACK   ISTACK
    | Stack used (prev) :  00000DB8 00000093
  01  PHY_GetAdvChans::?relay
      | Stack used (prev) :  00000DB8 00000093
      | + function block  :  00000000 00000000
  <-Sub-tree of type: Function tree
    | Stack used          :  00000DB8 00000093


  ->Sub-tree of type: Function tree
                             XSTACK   ISTACK
    | Stack used (prev) :  00000DB8 00000093
  01  PHY_SetAdvChans::?relay
      | Stack used (prev) :  00000DB8 00000093
      | + function block  :  00000000 00000000
  <-Sub-tree of type: Function tree
    | Stack used          :  00000DB8 00000093


  ->Sub-tree of type: Function tree
                             XSTACK   ISTACK
    | Stack used (prev) :  00000DB8 00000093
  01  PHY_SetEndConnection::?relay
      | Stack used (prev) :  00000DB8 00000093
      | + function block  :  00000000 00000000
  <-Sub-tree of type: Function tree
    | Stack used          :  00000DB8 00000093


  ->Sub-tree of type: Function tree
                             XSTACK   ISTACK
    | Stack used (prev) :  00000DB8 00000093
  01  PHY_ConfigureMD::?relay
      | Stack used (prev) :  00000DB8 00000093
      | + function block  :  00000000 00000000
  <-Sub-tree of type: Function tree
    | Stack used          :  00000DB8 00000093


  ->Sub-tree of type: Function tree
                             XSTACK   ISTACK
    | Stack used (prev) :  00000DB8 00000093
  01  PHY_GetEndCause::?relay
      | Stack used (prev) :  00000DB8 00000093
      | + function block  :  00000000 00000000
  <-Sub-tree of type: Function tree
    | Stack used          :  00000DB8 00000093


  ->Sub-tree of type: Function tree
                             XSTACK   ISTACK
    | Stack used (prev) :  00000DB8 00000093
  01  PHY_InitSeqStat::?relay
      | Stack used (prev) :  00000DB8 00000093
      | + function block  :  00000000 00000000
  <-Sub-tree of type: Function tree
    | Stack used          :  00000DB8 00000093


  ->Sub-tree of type: Function tree
                             XSTACK   ISTACK
    | Stack used (prev) :  00000DB8 00000093
  01  PHY_SetSyncWord::?relay
      | Stack used (prev) :  00000DB8 00000093
      | + function block  :  00000000 00000000
  <-Sub-tree of type: Function tree
    | Stack used          :  00000DB8 00000093


  ->Sub-tree of type: Function tree
                             XSTACK   ISTACK
    | Stack used (prev) :  00000DB8 00000093
  01  PHY_SetMaxNack::?relay
      | Stack used (prev) :  00000DB8 00000093
      | + function block  :  00000000 00000000
  <-Sub-tree of type: Function tree
    | Stack used          :  00000DB8 00000093


  ->Sub-tree of type: Function tree
                             XSTACK   ISTACK
    | Stack used (prev) :  00000DB8 00000093
  01  PHY_ClearWhitelist::?relay
      | Stack used (prev) :  00000DB8 00000093
      | + function block  :  00000000 00000000
  <-Sub-tree of type: Function tree
    | Stack used          :  00000DB8 00000093


  ->Sub-tree of type: Function tree
                             XSTACK   ISTACK
    | Stack used (prev) :  00000DB8 00000093
  01  PHY_AddWlEntry::?relay
      | Stack used (prev) :  00000DB8 00000093
      | + function block  :  00000000 00000000
  <-Sub-tree of type: Function tree
    | Stack used          :  00000DB8 00000093


  ->Sub-tree of type: Function tree
                             XSTACK   ISTACK
    | Stack used (prev) :  00000DB8 00000093
  01  PHY_SetAdvWlPolicy::?relay
      | Stack used (prev) :  00000DB8 00000093
      | + function block  :  00000000 00000000
  <-Sub-tree of type: Function tree
    | Stack used          :  00000DB8 00000093


  ->Sub-tree of type: Function tree
                             XSTACK   ISTACK
    | Stack used (prev) :  00000DB8 00000093
  01  PHY_SetBlacklistIndex::?relay
      | Stack used (prev) :  00000DB8 00000093
      | + function block  :  00000000 00000000
  <-Sub-tree of type: Function tree
    | Stack used          :  00000DB8 00000093


  ->Sub-tree of type: Function tree
                             XSTACK   ISTACK
    | Stack used (prev) :  00000DB8 00000093
  01  PHY_ClearBlacklistIndex::?relay
      | Stack used (prev) :  00000DB8 00000093
      | + function block  :  00000000 00000000
  <-Sub-tree of type: Function tree
    | Stack used          :  00000DB8 00000093


  ->Sub-tree of type: Function tree
                             XSTACK   ISTACK
    | Stack used (prev) :  00000DB8 00000093
  01  PHY_ClearBlacklist::?relay
      | Stack used (prev) :  00000DB8 00000093
      | + function block  :  00000000 00000000
  <-Sub-tree of type: Function tree
    | Stack used          :  00000DB8 00000093


  ->Sub-tree of type: Function tree
                             XSTACK   ISTACK
    | Stack used (prev) :  00000DB8 00000093
  01  PHY_ClearSavedWhiteList::?relay
      | Stack used (prev) :  00000DB8 00000093
      | + function block  :  00000000 00000000
  <-Sub-tree of type: Function tree
    | Stack used          :  00000DB8 00000093


  ->Sub-tree of type: Function tree
                             XSTACK   ISTACK
    | Stack used (prev) :  00000DB8 00000093
  01  PHY_ConfigureFifoDataProcessing::?relay
      | Stack used (prev) :  00000DB8 00000093
      | + function block  :  00000000 00000000
  <-Sub-tree of type: Function tree
    | Stack used          :  00000DB8 00000093


  ->Sub-tree of type: Function tree
                             XSTACK   ISTACK
    | Stack used (prev) :  00000DB8 00000093
  01  PHY_ConfigureAppendRfStatus::?relay
      | Stack used (prev) :  00000DB8 00000093
      | + function block  :  00000000 00000000
  <-Sub-tree of type: Function tree
    | Stack used          :  00000DB8 00000093


  ->Sub-tree of type: Function tree
                             XSTACK   ISTACK
    | Stack used (prev) :  00000DB8 00000093
  01  PHY_SetFifoConfig::?relay
      | Stack used (prev) :  00000DB8 00000093
      | + function block  :  00000000 00000000
  <-Sub-tree of type: Function tree
    | Stack used          :  00000DB8 00000093


  ->Sub-tree of type: Function tree
                             XSTACK   ISTACK
    | Stack used (prev) :  00000DB8 00000093
  01  PHY_ConfigWhitener::?relay
      | Stack used (prev) :  00000DB8 00000093
      | + function block  :  00000000 00000000
  <-Sub-tree of type: Function tree
    | Stack used          :  00000DB8 00000093


  ->Sub-tree of type: Function tree
                             XSTACK   ISTACK
    | Stack used (prev) :  00000DB8 00000093
  01  PHY_RetryTxFifo::?relay
      | Stack used (prev) :  00000DB8 00000093
      | + function block  :  00000000 00000000
  <-Sub-tree of type: Function tree
    | Stack used          :  00000DB8 00000093


  ->Sub-tree of type: Function tree
                             XSTACK   ISTACK
    | Stack used (prev) :  00000DB8 00000093
  01  PHY_RetryRxFifo::?relay
      | Stack used (prev) :  00000DB8 00000093
      | + function block  :  00000000 00000000
  <-Sub-tree of type: Function tree
    | Stack used          :  00000DB8 00000093


  ->Sub-tree of type: Function tree
                             XSTACK   ISTACK
    | Stack used (prev) :  00000DB8 00000093
  01  PHY_CommitRxFifo::?relay
      | Stack used (prev) :  00000DB8 00000093
      | + function block  :  00000000 00000000
  <-Sub-tree of type: Function tree
    | Stack used          :  00000DB8 00000093


  ->Sub-tree of type: Function tree
                             XSTACK   ISTACK
    | Stack used (prev) :  00000DB8 00000093
  01  PHY_DeallocateRxFifo::?relay
      | Stack used (prev) :  00000DB8 00000093
      | + function block  :  00000000 00000000
  <-Sub-tree of type: Function tree
    | Stack used          :  00000DB8 00000093


  ->Sub-tree of type: Function tree
                             XSTACK   ISTACK
    | Stack used (prev) :  00000DB8 00000093
  01  PHY_SetRfFreq::?relay
      | Stack used (prev) :  00000DB8 00000093
      | + function block  :  00000000 00000000
  <-Sub-tree of type: Function tree
    | Stack used          :  00000DB8 00000093


  ->Sub-tree of type: Function tree
                             XSTACK   ISTACK
    | Stack used (prev) :  00000DB8 00000093
  01  phyFindWlEntry::?relay
      | Stack used (prev) :  00000DB8 00000093
      | + function block  :  00000000 00000000
  <-Sub-tree of type: Function tree
    | Stack used          :  00000DB8 00000093


  ->Sub-tree of type: Function tree
                             XSTACK   ISTACK
    | Stack used (prev) :  00000DB8 00000093
  01  SM_CalcRandomAddr::?relay
      | Stack used (prev) :  00000DB8 00000093
      | + function block  :  00000000 00000000
  <-Sub-tree of type: Function tree
    | Stack used          :  00000DB8 00000093


  ->Sub-tree of type: Function tree
                             XSTACK   ISTACK
    | Stack used (prev) :  00000DB8 00000093
  01  SM_ResolveRandomAddrs::?relay
      | Stack used (prev) :  00000DB8 00000093
      | + function block  :  00000000 00000000
  <-Sub-tree of type: Function tree
    | Stack used          :  00000DB8 00000093


  ->Sub-tree of type: Function tree
                             XSTACK   ISTACK
    | Stack used (prev) :  00000DB8 00000093
  01  SM_GenerateAuthenSig::?relay
      | Stack used (prev) :  00000DB8 00000093
      | + function block  :  00000000 00000000
  <-Sub-tree of type: Function tree
    | Stack used          :  00000DB8 00000093


  ->Sub-tree of type: Function tree
                             XSTACK   ISTACK
    | Stack used (prev) :  00000DB8 00000093
  01  SM_VerifyAuthenSig::?relay
      | Stack used (prev) :  00000DB8 00000093
      | + function block  :  00000000 00000000
  <-Sub-tree of type: Function tree
    | Stack used          :  00000DB8 00000093


  ->Sub-tree of type: Function tree
                             XSTACK   ISTACK
    | Stack used (prev) :  00000DB8 00000093
  01  smProcessRandComplete::?relay
      | Stack used (prev) :  00000DB8 00000093
      | + function block  :  00000000 00000000
  <-Sub-tree of type: Function tree
    | Stack used          :  00000DB8 00000093


  ->Sub-tree of type: Function tree
                             XSTACK   ISTACK
    | Stack used (prev) :  00000DB8 00000093
  01  smStartRspTimer::?relay
      | Stack used (prev) :  00000DB8 00000093
      | + function block  :  00000000 00000000
  <-Sub-tree of type: Function tree
    | Stack used          :  00000DB8 00000093


  ->Sub-tree of type: Function tree
                             XSTACK   ISTACK
    | Stack used (prev) :  00000DB8 00000093
  01  smStopRspTimer::?relay
      | Stack used (prev) :  00000DB8 00000093
      | + function block  :  00000000 00000000
  <-Sub-tree of type: Function tree
    | Stack used          :  00000DB8 00000093


  ->Sub-tree of type: Function tree
                             XSTACK   ISTACK
    | Stack used (prev) :  00000DB8 00000093
  01  sm_ah::?relay
      | Stack used (prev) :  00000DB8 00000093
      | + function block  :  00000000 00000000
  <-Sub-tree of type: Function tree
    | Stack used          :  00000DB8 00000093


  ->Sub-tree of type: Function tree
                             XSTACK   ISTACK
    | Stack used (prev) :  00000DB8 00000093
  01  sm_c1new::?relay
      | Stack used (prev) :  00000DB8 00000093
      | + function block  :  00000000 00000000
  <-Sub-tree of type: Function tree
    | Stack used          :  00000DB8 00000093


  ->Sub-tree of type: Function tree
                             XSTACK   ISTACK
    | Stack used (prev) :  00000DB8 00000093
  01  sm_xor::?relay
      | Stack used (prev) :  00000DB8 00000093
      | + function block  :  00000000 00000000
  <-Sub-tree of type: Function tree
    | Stack used          :  00000DB8 00000093


  ->Sub-tree of type: Function tree
                             XSTACK   ISTACK
    | Stack used (prev) :  00000DB8 00000093
  01  sm_s1::?relay
      | Stack used (prev) :  00000DB8 00000093
      | + function block  :  00000000 00000000
  <-Sub-tree of type: Function tree
    | Stack used          :  00000DB8 00000093


  ->Sub-tree of type: Function tree
                             XSTACK   ISTACK
    | Stack used (prev) :  00000DB8 00000093
  01  smGenerateRandBuf::?relay
      | Stack used (prev) :  00000DB8 00000093
      | + function block  :  00000000 00000000
  <-Sub-tree of type: Function tree
    | Stack used          :  00000DB8 00000093


  ->Sub-tree of type: Function tree
                             XSTACK   ISTACK
    | Stack used (prev) :  00000DB8 00000093
  01  smAuthReqToUint8::?relay
      | Stack used (prev) :  00000DB8 00000093
      | + function block  :  00000000 00000000
  <-Sub-tree of type: Function tree
    | Stack used          :  00000DB8 00000093


  ->Sub-tree of type: Function tree
                             XSTACK   ISTACK
    | Stack used (prev) :  00000DB8 00000093
  01  smUint8ToAuthReq::?relay
      | Stack used (prev) :  00000DB8 00000093
      | + function block  :  00000000 00000000
  <-Sub-tree of type: Function tree
    | Stack used          :  00000DB8 00000093


  ->Sub-tree of type: Function tree
                             XSTACK   ISTACK
    | Stack used (prev) :  00000DB8 00000093
  01  smEncrypt::?relay
      | Stack used (prev) :  00000DB8 00000093
      | + function block  :  00000000 00000000
  <-Sub-tree of type: Function tree
    | Stack used          :  00000DB8 00000093


  ->Sub-tree of type: Function tree
                             XSTACK   ISTACK
    | Stack used (prev) :  00000DB8 00000093
  01  sm_CMAC::?relay
      | Stack used (prev) :  00000DB8 00000093
      | + function block  :  00000000 00000000
  <-Sub-tree of type: Function tree
    | Stack used          :  00000DB8 00000093


  ->Sub-tree of type: Function tree
                             XSTACK   ISTACK
    | Stack used (prev) :  00000DB8 00000093
  01  generate_subkey::?relay
      | Stack used (prev) :  00000DB8 00000093
      | + function block  :  00000000 00000000
  <-Sub-tree of type: Function tree
    | Stack used          :  00000DB8 00000093


  ->Sub-tree of type: Function tree
                             XSTACK   ISTACK
    | Stack used (prev) :  00000DB8 00000093
  01  xor_128::?relay
      | Stack used (prev) :  00000DB8 00000093
      | + function block  :  00000000 00000000
  <-Sub-tree of type: Function tree
    | Stack used          :  00000DB8 00000093


  ->Sub-tree of type: Function tree
                             XSTACK   ISTACK
    | Stack used (prev) :  00000DB8 00000093
  01  leftshift_onebit::?relay
      | Stack used (prev) :  00000DB8 00000093
      | + function block  :  00000000 00000000
  <-Sub-tree of type: Function tree
    | Stack used          :  00000DB8 00000093


  ->Sub-tree of type: Function tree
                             XSTACK   ISTACK
    | Stack used (prev) :  00000DB8 00000093
  02    smFreePairingParams
        | Stack used (prev) :  000003F2 0000005C
        | + function block  :  00000012 00000004
        |  Already listed
  01  smLinkCheck
      | Stack used (prev) :  00000DB8 00000093
      | + function block  :  00000009 00000000
  <-Sub-tree of type: Function tree
    | Stack used          :  00000DC1 00000093


  ->Sub-tree of type: Function tree
                             XSTACK   ISTACK
    | Stack used (prev) :  00000DC1 00000093
  01  SM_StartPairing::?relay
      | Stack used (prev) :  00000DC1 00000093
      | + function block  :  00000000 00000000
  <-Sub-tree of type: Function tree
    | Stack used          :  00000DC1 00000093


  ->Sub-tree of type: Function tree
                             XSTACK   ISTACK
    | Stack used (prev) :  00000DC1 00000093
  01  SM_PasskeyUpdate::?relay
      | Stack used (prev) :  00000DC1 00000093
      | + function block  :  00000000 00000000
  <-Sub-tree of type: Function tree
    | Stack used          :  00000DC1 00000093


  ->Sub-tree of type: Function tree
                             XSTACK   ISTACK
    | Stack used (prev) :  00000DC1 00000093
  01  smRegisterResponder::?relay
      | Stack used (prev) :  00000DC1 00000093
      | + function block  :  00000000 00000000
  <-Sub-tree of type: Function tree
    | Stack used          :  00000DC1 00000093


  ->Sub-tree of type: Function tree
                             XSTACK   ISTACK
    | Stack used (prev) :  00000DC1 00000093
  01  smLinkCheck::?relay
      | Stack used (prev) :  00000DC1 00000093
      | + function block  :  00000000 00000000
  <-Sub-tree of type: Function tree
    | Stack used          :  00000DC1 00000093


  ->Sub-tree of type: Function tree
                             XSTACK   ISTACK
    | Stack used (prev) :  00000DC1 00000093
  01  smTimedOut::?relay
      | Stack used (prev) :  00000DC1 00000093
      | + function block  :  00000000 00000000
  <-Sub-tree of type: Function tree
    | Stack used          :  00000DC1 00000093


  ->Sub-tree of type: Function tree
                             XSTACK   ISTACK
    | Stack used (prev) :  00000DC1 00000093
  01  smProcessDataMsg::?relay
      | Stack used (prev) :  00000DC1 00000093
      | + function block  :  00000000 00000000
  <-Sub-tree of type: Function tree
    | Stack used          :  00000DC1 00000093


  ->Sub-tree of type: Function tree
                             XSTACK   ISTACK
    | Stack used (prev) :  00000DC1 00000093
  01  smSendFailAndEnd::?relay
      | Stack used (prev) :  00000DC1 00000093
      | + function block  :  00000000 00000000
  <-Sub-tree of type: Function tree
    | Stack used          :  00000DC1 00000093


  ->Sub-tree of type: Function tree
                             XSTACK   ISTACK
    | Stack used (prev) :  00000DC1 00000093
  01  smProcessEncryptChange::?relay
      | Stack used (prev) :  00000DC1 00000093
      | + function block  :  00000000 00000000
  <-Sub-tree of type: Function tree
    | Stack used          :  00000DC1 00000093


  ->Sub-tree of type: Function tree
                             XSTACK   ISTACK
    | Stack used (prev) :  00000DC1 00000093
  01  smNextPairingState::?relay
      | Stack used (prev) :  00000DC1 00000093
      | + function block  :  00000000 00000000
  <-Sub-tree of type: Function tree
    | Stack used          :  00000DC1 00000093


  ->Sub-tree of type: Function tree
                             XSTACK   ISTACK
    | Stack used (prev) :  00000DC1 00000093
  01  sm_c1::?relay
      | Stack used (prev) :  00000DC1 00000093
      | + function block  :  00000000 00000000
  <-Sub-tree of type: Function tree
    | Stack used          :  00000DC1 00000093


  ->Sub-tree of type: Function tree
                             XSTACK   ISTACK
    | Stack used (prev) :  00000DC1 00000093
  01  smProcessPairingReq::?relay
      | Stack used (prev) :  00000DC1 00000093
      | + function block  :  00000000 00000000
  <-Sub-tree of type: Function tree
    | Stack used          :  00000DC1 00000093


  ->Sub-tree of type: Function tree
                             XSTACK   ISTACK
    | Stack used (prev) :  00000DC1 00000093
  01  smStartEncryption::?relay
      | Stack used (prev) :  00000DC1 00000093
      | + function block  :  00000000 00000000
  <-Sub-tree of type: Function tree
    | Stack used          :  00000DC1 00000093


  ->Sub-tree of type: Function tree
                             XSTACK   ISTACK
    | Stack used (prev) :  00000DC1 00000093
  01  smGeneratePairingReqRsp::?relay
      | Stack used (prev) :  00000DC1 00000093
      | + function block  :  00000000 00000000
  <-Sub-tree of type: Function tree
    | Stack used          :  00000DC1 00000093


  ->Sub-tree of type: Function tree
                             XSTACK   ISTACK
    | Stack used (prev) :  00000DC1 00000093
  01  smGenerateConfirm::?relay
      | Stack used (prev) :  00000DC1 00000093
      | + function block  :  00000000 00000000
  <-Sub-tree of type: Function tree
    | Stack used          :  00000DC1 00000093


  ->Sub-tree of type: Function tree
                             XSTACK   ISTACK
    | Stack used (prev) :  00000DC1 00000093
  01  smGenerateRandMsg::?relay
      | Stack used (prev) :  00000DC1 00000093
      | + function block  :  00000000 00000000
  <-Sub-tree of type: Function tree
    | Stack used          :  00000DC1 00000093


  ->Sub-tree of type: Function tree
                             XSTACK   ISTACK
    | Stack used (prev) :  00000DC1 00000093
  01  smSavePairInfo::?relay
      | Stack used (prev) :  00000DC1 00000093
      | + function block  :  00000000 00000000
  <-Sub-tree of type: Function tree
    | Stack used          :  00000DC1 00000093


  ->Sub-tree of type: Function tree
                             XSTACK   ISTACK
    | Stack used (prev) :  00000DC1 00000093
  01  smPairingSendEncInfo::?relay
      | Stack used (prev) :  00000DC1 00000093
      | + function block  :  00000000 00000000
  <-Sub-tree of type: Function tree
    | Stack used          :  00000DC1 00000093


  ->Sub-tree of type: Function tree
                             XSTACK   ISTACK
    | Stack used (prev) :  00000DC1 00000093
  01  smPairingSendMasterID::?relay
      | Stack used (prev) :  00000DC1 00000093
      | + function block  :  00000000 00000000
  <-Sub-tree of type: Function tree
    | Stack used          :  00000DC1 00000093


  ->Sub-tree of type: Function tree
                             XSTACK   ISTACK
    | Stack used (prev) :  00000DC1 00000093
  01  smPairingSendIdentityInfo::?relay
      | Stack used (prev) :  00000DC1 00000093
      | + function block  :  00000000 00000000
  <-Sub-tree of type: Function tree
    | Stack used          :  00000DC1 00000093


  ->Sub-tree of type: Function tree
                             XSTACK   ISTACK
    | Stack used (prev) :  00000DC1 00000093
  01  smPairingSendIdentityAddrInfo::?relay
      | Stack used (prev) :  00000DC1 00000093
      | + function block  :  00000000 00000000
  <-Sub-tree of type: Function tree
    | Stack used          :  00000DC1 00000093


  ->Sub-tree of type: Function tree
                             XSTACK   ISTACK
    | Stack used (prev) :  00000DC1 00000093
  01  smPairingSendSingingInfo::?relay
      | Stack used (prev) :  00000DC1 00000093
      | + function block  :  00000000 00000000
  <-Sub-tree of type: Function tree
    | Stack used          :  00000DC1 00000093


  ->Sub-tree of type: Function tree
                             XSTACK   ISTACK
    | Stack used (prev) :  00000DC1 00000093
  01  smFreePairingParams::?relay
      | Stack used (prev) :  00000DC1 00000093
      | + function block  :  00000000 00000000
  <-Sub-tree of type: Function tree
    | Stack used          :  00000DC1 00000093


  ->Sub-tree of type: Function tree
                             XSTACK   ISTACK
    | Stack used (prev) :  00000DC1 00000093
  01  smEndPairing::?relay
      | Stack used (prev) :  00000DC1 00000093
      | + function block  :  00000000 00000000
  <-Sub-tree of type: Function tree
    | Stack used          :  00000DC1 00000093


  ->Sub-tree of type: Function tree
                             XSTACK   ISTACK
    | Stack used (prev) :  00000DC1 00000093
  01  smDetermineKeySize::?relay
      | Stack used (prev) :  00000DC1 00000093
      | + function block  :  00000000 00000000
  <-Sub-tree of type: Function tree
    | Stack used          :  00000DC1 00000093


  ->Sub-tree of type: Function tree
                             XSTACK   ISTACK
    | Stack used (prev) :  00000DC1 00000093
  01  smSetPairingReqRsp::?relay
      | Stack used (prev) :  00000DC1 00000093
      | + function block  :  00000000 00000000
  <-Sub-tree of type: Function tree
    | Stack used          :  00000DC1 00000093


  ->Sub-tree of type: Function tree
                             XSTACK   ISTACK
    | Stack used (prev) :  00000DC1 00000093
  01  SM_ResponderInit::?relay
      | Stack used (prev) :  00000DC1 00000093
      | + function block  :  00000000 00000000
  <-Sub-tree of type: Function tree
    | Stack used          :  00000DC1 00000093


  ->Sub-tree of type: Function tree
                             XSTACK   ISTACK
    | Stack used (prev) :  00000DC1 00000093
  01  smResponderProcessLTKReq::?relay
      | Stack used (prev) :  00000DC1 00000093
      | + function block  :  00000000 00000000
  <-Sub-tree of type: Function tree
    | Stack used          :  00000DC1 00000093


  ->Sub-tree of type: Function tree
                             XSTACK   ISTACK
    | Stack used (prev) :  00000DC1 00000093
  01  smpResponderProcessIncoming::?relay
      | Stack used (prev) :  00000DC1 00000093
      | + function block  :  00000000 00000000
  <-Sub-tree of type: Function tree
    | Stack used          :  00000DC1 00000093


  ->Sub-tree of type: Function tree
                             XSTACK   ISTACK
    | Stack used (prev) :  00000DC1 00000093
  01  smpResponderProcessPairingReq::?relay
      | Stack used (prev) :  00000DC1 00000093
      | + function block  :  00000000 00000000
  <-Sub-tree of type: Function tree
    | Stack used          :  00000DC1 00000093


  ->Sub-tree of type: Function tree
                             XSTACK   ISTACK
    | Stack used (prev) :  00000DC1 00000093
  01  smpResponderProcessPairingRandom::?relay
      | Stack used (prev) :  00000DC1 00000093
      | + function block  :  00000000 00000000
  <-Sub-tree of type: Function tree
    | Stack used          :  00000DC1 00000093


  ->Sub-tree of type: Function tree
                             XSTACK   ISTACK
    | Stack used (prev) :  00000DC1 00000093
  01  smpResponderProcessMasterID::?relay
      | Stack used (prev) :  00000DC1 00000093
      | + function block  :  00000000 00000000
  <-Sub-tree of type: Function tree
    | Stack used          :  00000DC1 00000093


  ->Sub-tree of type: Function tree
                             XSTACK   ISTACK
    | Stack used (prev) :  00000DC1 00000093
  01  smResponderSendNextKeyInfo::?relay
      | Stack used (prev) :  00000DC1 00000093
      | + function block  :  00000000 00000000
  <-Sub-tree of type: Function tree
    | Stack used          :  00000DC1 00000093


  ->Sub-tree of type: Function tree
                             XSTACK   ISTACK
    | Stack used (prev) :  00000DC1 00000093
  02    osal_msg_receive
        | Stack used (prev) :  00000806 00000075
        | + function block  :  00000020 00000000
        |  Already listed
  02    osal_msg_send
        | Stack used (prev) :  00000032 00000006
        | + function block  :  00000012 00000000
        |  Already listed
  02    osal_msg_deallocate
        | Stack used (prev) :  0000000A 00000002
        | + function block  :  00000009 00000004
        |  Already listed
  03      osal_bm_free
          | Stack used (prev) :  0000000A 00000002
          | + function block  :  00000014 00000000
          |  Already listed
  04        smEndPairing
            | Stack used (prev) :  0000048A 00000060
            | + function block  :  0000002E 00000000
            |  Already listed
  04        smEndPairing
            | Stack used (prev) :  0000048A 00000060
            | + function block  :  0000002E 00000000
            |  Already listed
  04        linkDB_Find
            | Stack used (prev) :  000003F2 0000005A
            | + function block  :  00000014 00000002
            |  Already listed
  05          osal_msg_send
              | Stack used (prev) :  00000032 00000006
              | + function block  :  00000012 00000000
              |  Already listed
  05          osal_msg_allocate
              | Stack used (prev) :  00000018 00000000
              | + function block  :  00000014 00000000
              |  Already listed
  05          osal_memset
              | Stack used (prev) :  000003F4 0000005C
              | + function block  :  00000018 00000000
              |  Already listed
  05          linkDB_Find
              | Stack used (prev) :  000003F2 0000005A
              | + function block  :  00000014 00000002
              |  Already listed
  05          GAP_GetParamValue
              | Stack used (prev) :  000003F2 0000005A
              | + function block  :  00000014 00000002
              |  Already listed
  04        gapSendBondCompleteEvent
            | Stack used (prev) :  00000DC1 00000093
            | + function block  :  00000010 00000001
  03      smProcessEncryptChange
          | Stack used (prev) :  00000DD1 00000094
          | + function block  :  00000018 00000000
  05          smUint8ToAuthReq
              | Stack used (prev) :  000003F2 0000005A
              | + function block  :  0000000A 00000000
              |  Already listed
  04        smpParseSecurityReq
            | Stack used (prev) :  00000DC1 00000093
            | + function block  :  00000000 00000002
  05          osal_memcpy
              | Stack used (prev) :  00000000 00000000
              | + function block  :  00000019 00000001
              |  Already listed
  04        smpParseSigningInfo
            | Stack used (prev) :  00000DC1 00000093
            | + function block  :  0000000C 00000000
  05          osal_memcpy
              | Stack used (prev) :  00000000 00000000
              | + function block  :  00000019 00000001
              |  Already listed
  04        smpParseIdentityAddrInfo
            | Stack used (prev) :  00000DC1 00000093
            | + function block  :  0000000C 00000001
  05          osal_memcpy
              | Stack used (prev) :  00000000 00000000
              | + function block  :  00000019 00000001
              |  Already listed
  04        smpParseIdentityInfo
            | Stack used (prev) :  00000DC1 00000093
            | + function block  :  0000000C 00000000
  05          osal_memcpy
              | Stack used (prev) :  00000000 00000000
              | + function block  :  00000019 00000001
              |  Already listed
  04        smpParseMasterID
            | Stack used (prev) :  00000DC1 00000093
            | + function block  :  0000000C 00000000
  05          osal_memcpy
              | Stack used (prev) :  00000000 00000000
              | + function block  :  00000019 00000001
              |  Already listed
  04        smpParseEncInfo
            | Stack used (prev) :  00000DC1 00000093
            | + function block  :  0000000C 00000000
  04        smpParsePairingFailed
            | Stack used (prev) :  00000DC1 00000093
            | + function block  :  00000000 00000003
  05          osal_memcpy
              | Stack used (prev) :  00000000 00000000
              | + function block  :  00000019 00000001
              |  Already listed
  04        smpParsePairingRandom
            | Stack used (prev) :  00000DC1 00000093
            | + function block  :  0000000C 00000000
  05          osal_memcpy
              | Stack used (prev) :  00000000 00000000
              | + function block  :  00000019 00000001
              |  Already listed
  04        smpParsePairingConfirm
            | Stack used (prev) :  00000DC1 00000093
            | + function block  :  0000000C 00000000
  05          smUint8ToAuthReq
              | Stack used (prev) :  000003F2 0000005A
              | + function block  :  0000000A 00000000
              |  Already listed
  05          GAP_GetParamValue
              | Stack used (prev) :  000003F2 0000005A
              | + function block  :  00000014 00000002
              |  Already listed
  04        smpParsePairingReq
            | Stack used (prev) :  00000DC1 00000093
            | + function block  :  00000013 00000001
  05          smSendSMMsg
              | Stack used (prev) :  000004AF 0000005E
              | + function block  :  00000028 00000000
              |  Already listed
  05          smEndPairing
              | Stack used (prev) :  0000048A 00000060
              | + function block  :  0000002E 00000000
              |  Already listed
  04        smSendFailAndEnd
            | Stack used (prev) :  00000DC1 00000093
            | + function block  :  0000002B 00000000
  04        smStartRspTimer
            | Stack used (prev) :  00000406 0000005C
            | + function block  :  0000001C 00000000
            |  Already listed
  04        linkDB_Find
            | Stack used (prev) :  000003F2 0000005A
            | + function block  :  00000014 00000002
            |  Already listed
  03      smProcessDataMsg
          | Stack used (prev) :  00000DEC 00000096
          | + function block  :  0000003E 00000000
  04        osal_mem_free
            | Stack used (prev) :  00000000 00000000
            | + function block  :  0000000A 00000002
            |  Already listed
  04        osal_msg_send
            | Stack used (prev) :  00000032 00000006
            | + function block  :  00000012 00000000
            |  Already listed
  04        osal_msg_allocate
            | Stack used (prev) :  00000018 00000000
            | + function block  :  00000014 00000000
            |  Already listed
  04        osal_memcpy
            | Stack used (prev) :  00000000 00000000
            | + function block  :  00000019 00000001
            |  Already listed
  06            llGetCurrentTask
                | Stack used (prev) :  000001B6 00000032
                | + function block  :  00000000 00000002
                |  Already listed
  06            LL_ENC_GenerateTrueRandNum
                | Stack used (prev) :  00000000 00000006
                | + function block  :  00000016 00000000
                |  Already listed
  05          LL_Rand
              | Stack used (prev) :  00000DC1 00000093
              | + function block  :  0000000C 00000000
  05          HCI_CommandCompleteEvent
              | Stack used (prev) :  00000074 00000006
              | + function block  :  0000002B 00000000
              |  Already listed
  04        HCI_LE_RandCmd
            | Stack used (prev) :  00000DCD 00000093
            | + function block  :  00000012 00000004
  03      smProcessRandComplete
          | Stack used (prev) :  00000DDF 00000097
          | + function block  :  00000018 00000000
  02    smProcessOSALMsg
        | Stack used (prev) :  00000E2A 00000097
        | + function block  :  0000001E 00000000
  03      smEndPairing
          | Stack used (prev) :  0000048A 00000060
          | + function block  :  0000002E 00000000
          |  Already listed
  02    smNextPairingState
        | Stack used (prev) :  00000DC1 00000093
        | + function block  :  00000000 00000002
  03      smEndPairing
          | Stack used (prev) :  0000048A 00000060
          | + function block  :  0000002E 00000000
          |  Already listed
  02    smTimedOut
        | Stack used (prev) :  00000DC1 00000093
        | + function block  :  00000000 00000002
  01  SM_ProcessEvent
      | Stack used (prev) :  00000E48 00000097
      | + function block  :  00000018 00000000
  <-Sub-tree of type: Function tree
    | Stack used          :  00000E60 00000097


  ->Sub-tree of type: Function tree
                             XSTACK   ISTACK
    | Stack used (prev) :  00000E60 00000097
  01  SM_Init::?relay
      | Stack used (prev) :  00000E60 00000097
      | + function block  :  00000000 00000000
  <-Sub-tree of type: Function tree
    | Stack used          :  00000E60 00000097


  ->Sub-tree of type: Function tree
                             XSTACK   ISTACK
    | Stack used (prev) :  00000E60 00000097
  01  SM_ProcessEvent::?relay
      | Stack used (prev) :  00000E60 00000097
      | + function block  :  00000000 00000000
  <-Sub-tree of type: Function tree
    | Stack used          :  00000E60 00000097


  ->Sub-tree of type: Function tree
                             XSTACK   ISTACK
    | Stack used (prev) :  00000E60 00000097
  01  smProcessOSALMsg::?relay
      | Stack used (prev) :  00000E60 00000097
      | + function block  :  00000000 00000000
  <-Sub-tree of type: Function tree
    | Stack used          :  00000E60 00000097


  ->Sub-tree of type: Function tree
                             XSTACK   ISTACK
    | Stack used (prev) :  00000E60 00000097
  02    osal_memcpy
        | Stack used (prev) :  00000000 00000000
        | + function block  :  00000019 00000001
        |  Already listed
  01  smpBuildPairingConfirm
      | Stack used (prev) :  00000E60 00000097
      | + function block  :  0000000C 00000000
  <-Sub-tree of type: Function tree
    | Stack used          :  00000E6C 00000097


  ->Sub-tree of type: Function tree
                             XSTACK   ISTACK
    | Stack used (prev) :  00000E6C 00000097
  02    osal_memcpy
        | Stack used (prev) :  00000000 00000000
        | + function block  :  00000019 00000001
        |  Already listed
  01  smpBuildPairingRandom
      | Stack used (prev) :  00000E6C 00000097
      | + function block  :  0000000C 00000000
  <-Sub-tree of type: Function tree
    | Stack used          :  00000E78 00000097


  ->Sub-tree of type: Function tree
                             XSTACK   ISTACK
    | Stack used (prev) :  00000E78 00000097
  01  smpBuildPairingFailed
      | Stack used (prev) :  00000E78 00000097
      | + function block  :  00000000 00000003
  <-Sub-tree of type: Function tree
    | Stack used          :  00000E78 0000009A


  ->Sub-tree of type: Function tree
                             XSTACK   ISTACK
    | Stack used (prev) :  00000E78 0000009A
  02    osal_memcpy
        | Stack used (prev) :  00000000 00000000
        | + function block  :  00000019 00000001
        |  Already listed
  01  smpBuildEncInfo
      | Stack used (prev) :  00000E78 0000009A
      | + function block  :  0000000C 00000000
  <-Sub-tree of type: Function tree
    | Stack used          :  00000E84 0000009A


  ->Sub-tree of type: Function tree
                             XSTACK   ISTACK
    | Stack used (prev) :  00000E84 0000009A
  02    osal_memcpy
        | Stack used (prev) :  00000000 00000000
        | + function block  :  00000019 00000001
        |  Already listed
  01  smpBuildMasterID
      | Stack used (prev) :  00000E84 0000009A
      | + function block  :  0000000C 00000001
  <-Sub-tree of type: Function tree
    | Stack used          :  00000E90 0000009B


  ->Sub-tree of type: Function tree
                             XSTACK   ISTACK
    | Stack used (prev) :  00000E90 0000009B
  02    osal_memcpy
        | Stack used (prev) :  00000000 00000000
        | + function block  :  00000019 00000001
        |  Already listed
  01  smpBuildIdentityInfo
      | Stack used (prev) :  00000E90 0000009B
      | + function block  :  0000000C 00000000
  <-Sub-tree of type: Function tree
    | Stack used          :  00000E9C 0000009B


  ->Sub-tree of type: Function tree
                             XSTACK   ISTACK
    | Stack used (prev) :  00000E9C 0000009B
  02    osal_memcpy
        | Stack used (prev) :  00000000 00000000
        | + function block  :  00000019 00000001
        |  Already listed
  01  smpBuildIdentityAddrInfo
      | Stack used (prev) :  00000E9C 0000009B
      | + function block  :  0000000C 00000001
  <-Sub-tree of type: Function tree
    | Stack used          :  00000EA8 0000009C


  ->Sub-tree of type: Function tree
                             XSTACK   ISTACK
    | Stack used (prev) :  00000EA8 0000009C
  02    osal_memcpy
        | Stack used (prev) :  00000000 00000000
        | + function block  :  00000019 00000001
        |  Already listed
  01  smpBuildSigningInfo
      | Stack used (prev) :  00000EA8 0000009C
      | + function block  :  0000000C 00000000
  <-Sub-tree of type: Function tree
    | Stack used          :  00000EB4 0000009C


  ->Sub-tree of type: Function tree
                             XSTACK   ISTACK
    | Stack used (prev) :  00000EB4 0000009C
  02    smAuthReqToUint8
        | Stack used (prev) :  000003F2 0000005A
        | + function block  :  00000000 00000002
        |  Already listed
  01  smpBuildSecurityReq
      | Stack used (prev) :  00000EB4 0000009C
      | + function block  :  00000009 00000001
  <-Sub-tree of type: Function tree
    | Stack used          :  00000EBD 0000009D


  ->Sub-tree of type: Function tree
                             XSTACK   ISTACK
    | Stack used (prev) :  00000EBD 0000009D
  01  smpBuildPairingReq::?relay
      | Stack used (prev) :  00000EBD 0000009D
      | + function block  :  00000000 00000000
  <-Sub-tree of type: Function tree
    | Stack used          :  00000EBD 0000009D


  ->Sub-tree of type: Function tree
                             XSTACK   ISTACK
    | Stack used (prev) :  00000EBD 0000009D
  01  smpBuildPairingRsp::?relay
      | Stack used (prev) :  00000EBD 0000009D
      | + function block  :  00000000 00000000
  <-Sub-tree of type: Function tree
    | Stack used          :  00000EBD 0000009D


  ->Sub-tree of type: Function tree
                             XSTACK   ISTACK
    | Stack used (prev) :  00000EBD 0000009D
  01  smpBuildPairingReqRsp::?relay
      | Stack used (prev) :  00000EBD 0000009D
      | + function block  :  00000000 00000000
  <-Sub-tree of type: Function tree
    | Stack used          :  00000EBD 0000009D


  ->Sub-tree of type: Function tree
                             XSTACK   ISTACK
    | Stack used (prev) :  00000EBD 0000009D
  01  smpParsePairingReq::?relay
      | Stack used (prev) :  00000EBD 0000009D
      | + function block  :  00000000 00000000
  <-Sub-tree of type: Function tree
    | Stack used          :  00000EBD 0000009D


  ->Sub-tree of type: Function tree
                             XSTACK   ISTACK
    | Stack used (prev) :  00000EBD 0000009D
  01  smpBuildPairingConfirm::?relay
      | Stack used (prev) :  00000EBD 0000009D
      | + function block  :  00000000 00000000
  <-Sub-tree of type: Function tree
    | Stack used          :  00000EBD 0000009D


  ->Sub-tree of type: Function tree
                             XSTACK   ISTACK
    | Stack used (prev) :  00000EBD 0000009D
  01  smpParsePairingConfirm::?relay
      | Stack used (prev) :  00000EBD 0000009D
      | + function block  :  00000000 00000000
  <-Sub-tree of type: Function tree
    | Stack used          :  00000EBD 0000009D


  ->Sub-tree of type: Function tree
                             XSTACK   ISTACK
    | Stack used (prev) :  00000EBD 0000009D
  01  smpBuildPairingRandom::?relay
      | Stack used (prev) :  00000EBD 0000009D
      | + function block  :  00000000 00000000
  <-Sub-tree of type: Function tree
    | Stack used          :  00000EBD 0000009D


  ->Sub-tree of type: Function tree
                             XSTACK   ISTACK
    | Stack used (prev) :  00000EBD 0000009D
  01  smpParsePairingRandom::?relay
      | Stack used (prev) :  00000EBD 0000009D
      | + function block  :  00000000 00000000
  <-Sub-tree of type: Function tree
    | Stack used          :  00000EBD 0000009D


  ->Sub-tree of type: Function tree
                             XSTACK   ISTACK
    | Stack used (prev) :  00000EBD 0000009D
  01  smpBuildPairingFailed::?relay
      | Stack used (prev) :  00000EBD 0000009D
      | + function block  :  00000000 00000000
  <-Sub-tree of type: Function tree
    | Stack used          :  00000EBD 0000009D


  ->Sub-tree of type: Function tree
                             XSTACK   ISTACK
    | Stack used (prev) :  00000EBD 0000009D
  01  smpParsePairingFailed::?relay
      | Stack used (prev) :  00000EBD 0000009D
      | + function block  :  00000000 00000000
  <-Sub-tree of type: Function tree
    | Stack used          :  00000EBD 0000009D


  ->Sub-tree of type: Function tree
                             XSTACK   ISTACK
    | Stack used (prev) :  00000EBD 0000009D
  01  smpBuildEncInfo::?relay
      | Stack used (prev) :  00000EBD 0000009D
      | + function block  :  00000000 00000000
  <-Sub-tree of type: Function tree
    | Stack used          :  00000EBD 0000009D


  ->Sub-tree of type: Function tree
                             XSTACK   ISTACK
    | Stack used (prev) :  00000EBD 0000009D
  01  smpParseEncInfo::?relay
      | Stack used (prev) :  00000EBD 0000009D
      | + function block  :  00000000 00000000
  <-Sub-tree of type: Function tree
    | Stack used          :  00000EBD 0000009D


  ->Sub-tree of type: Function tree
                             XSTACK   ISTACK
    | Stack used (prev) :  00000EBD 0000009D
  01  smpBuildMasterID::?relay
      | Stack used (prev) :  00000EBD 0000009D
      | + function block  :  00000000 00000000
  <-Sub-tree of type: Function tree
    | Stack used          :  00000EBD 0000009D


  ->Sub-tree of type: Function tree
                             XSTACK   ISTACK
    | Stack used (prev) :  00000EBD 0000009D
  01  smpParseMasterID::?relay
      | Stack used (prev) :  00000EBD 0000009D
      | + function block  :  00000000 00000000
  <-Sub-tree of type: Function tree
    | Stack used          :  00000EBD 0000009D


  ->Sub-tree of type: Function tree
                             XSTACK   ISTACK
    | Stack used (prev) :  00000EBD 0000009D
  01  smpBuildIdentityInfo::?relay
      | Stack used (prev) :  00000EBD 0000009D
      | + function block  :  00000000 00000000
  <-Sub-tree of type: Function tree
    | Stack used          :  00000EBD 0000009D


  ->Sub-tree of type: Function tree
                             XSTACK   ISTACK
    | Stack used (prev) :  00000EBD 0000009D
  01  smpBuildIdentityAddrInfo::?relay
      | Stack used (prev) :  00000EBD 0000009D
      | + function block  :  00000000 00000000
  <-Sub-tree of type: Function tree
    | Stack used          :  00000EBD 0000009D


  ->Sub-tree of type: Function tree
                             XSTACK   ISTACK
    | Stack used (prev) :  00000EBD 0000009D
  01  smpParseIdentityInfo::?relay
      | Stack used (prev) :  00000EBD 0000009D
      | + function block  :  00000000 00000000
  <-Sub-tree of type: Function tree
    | Stack used          :  00000EBD 0000009D


  ->Sub-tree of type: Function tree
                             XSTACK   ISTACK
    | Stack used (prev) :  00000EBD 0000009D
  01  smpParseIdentityAddrInfo::?relay
      | Stack used (prev) :  00000EBD 0000009D
      | + function block  :  00000000 00000000
  <-Sub-tree of type: Function tree
    | Stack used          :  00000EBD 0000009D


  ->Sub-tree of type: Function tree
                             XSTACK   ISTACK
    | Stack used (prev) :  00000EBD 0000009D
  01  smpBuildSigningInfo::?relay
      | Stack used (prev) :  00000EBD 0000009D
      | + function block  :  00000000 00000000
  <-Sub-tree of type: Function tree
    | Stack used          :  00000EBD 0000009D


  ->Sub-tree of type: Function tree
                             XSTACK   ISTACK
    | Stack used (prev) :  00000EBD 0000009D
  01  smpParseSigningInfo::?relay
      | Stack used (prev) :  00000EBD 0000009D
      | + function block  :  00000000 00000000
  <-Sub-tree of type: Function tree
    | Stack used          :  00000EBD 0000009D


  ->Sub-tree of type: Function tree
                             XSTACK   ISTACK
    | Stack used (prev) :  00000EBD 0000009D
  01  smpBuildSecurityReq::?relay
      | Stack used (prev) :  00000EBD 0000009D
      | + function block  :  00000000 00000000
  <-Sub-tree of type: Function tree
    | Stack used          :  00000EBD 0000009D


  ->Sub-tree of type: Function tree
                             XSTACK   ISTACK
    | Stack used (prev) :  00000EBD 0000009D
  01  smpParseSecurityReq::?relay
      | Stack used (prev) :  00000EBD 0000009D
      | + function block  :  00000000 00000000
  <-Sub-tree of type: Function tree
    | Stack used          :  00000EBD 0000009D


  ->Sub-tree of type: Function tree
                             XSTACK   ISTACK
    | Stack used (prev) :  00000EBD 0000009D
  01  smSendSMMsg::?relay
      | Stack used (prev) :  00000EBD 0000009D
      | + function block  :  00000000 00000000
  <-Sub-tree of type: Function tree
    | Stack used          :  00000EBD 0000009D


  ->Sub-tree of type: Function tree
                             XSTACK   ISTACK
    | Stack used (prev) :  00000EBD 0000009D
  02    osal_bm_free
        | Stack used (prev) :  0000000A 00000002
        | + function block  :  00000014 00000000
        |  Already listed
  02    osal_msg_receive
        | Stack used (prev) :  00000806 00000075
        | + function block  :  00000020 00000000
        |  Already listed
  02    osal_msg_deallocate
        | Stack used (prev) :  0000000A 00000002
        | + function block  :  00000009 00000004
        |  Already listed
  01  HCI_ProcessEvent
      | Stack used (prev) :  00000EBD 0000009D
      | + function block  :  0000000C 00000000
  <-Sub-tree of type: Function tree
    | Stack used          :  00000EC9 0000009D


  ->Sub-tree of type: Function tree
                             XSTACK   ISTACK
    | Stack used (prev) :  00000EC9 0000009D
  01  HCI_Init::?relay
      | Stack used (prev) :  00000EC9 0000009D
      | + function block  :  00000000 00000000
  <-Sub-tree of type: Function tree
    | Stack used          :  00000EC9 0000009D


  ->Sub-tree of type: Function tree
                             XSTACK   ISTACK
    | Stack used (prev) :  00000EC9 0000009D
  01  HCI_ProcessEvent::?relay
      | Stack used (prev) :  00000EC9 0000009D
      | + function block  :  00000000 00000000
  <-Sub-tree of type: Function tree
    | Stack used          :  00000EC9 0000009D


  ->Sub-tree of type: Function tree
                             XSTACK   ISTACK
    | Stack used (prev) :  00000EC9 0000009D
  01  HCI_GAPTaskRegister::?relay
      | Stack used (prev) :  00000EC9 0000009D
      | + function block  :  00000000 00000000
  <-Sub-tree of type: Function tree
    | Stack used          :  00000EC9 0000009D


  ->Sub-tree of type: Function tree
                             XSTACK   ISTACK
    | Stack used (prev) :  00000EC9 0000009D
  01  HCI_L2CAPTaskRegister::?relay
      | Stack used (prev) :  00000EC9 0000009D
      | + function block  :  00000000 00000000
  <-Sub-tree of type: Function tree
    | Stack used          :  00000EC9 0000009D


  ->Sub-tree of type: Function tree
                             XSTACK   ISTACK
    | Stack used (prev) :  00000EC9 0000009D
  01  HCI_SMPTaskRegister::?relay
      | Stack used (prev) :  00000EC9 0000009D
      | + function block  :  00000000 00000000
  <-Sub-tree of type: Function tree
    | Stack used          :  00000EC9 0000009D


  ->Sub-tree of type: Function tree
                             XSTACK   ISTACK
    | Stack used (prev) :  00000EC9 0000009D
  01  osal_strlen::?relay
      | Stack used (prev) :  00000EC9 0000009D
      | + function block  :  00000000 00000000
  <-Sub-tree of type: Function tree
    | Stack used          :  00000EC9 0000009D


  ->Sub-tree of type: Function tree
                             XSTACK   ISTACK
    | Stack used (prev) :  00000EC9 0000009D
  01  osal_memcpy::?relay
      | Stack used (prev) :  00000EC9 0000009D
      | + function block  :  00000000 00000000
  <-Sub-tree of type: Function tree
    | Stack used          :  00000EC9 0000009D


  ->Sub-tree of type: Function tree
                             XSTACK   ISTACK
    | Stack used (prev) :  00000EC9 0000009D
  01  osal_revmemcpy::?relay
      | Stack used (prev) :  00000EC9 0000009D
      | + function block  :  00000000 00000000
  <-Sub-tree of type: Function tree
    | Stack used          :  00000EC9 0000009D


  ->Sub-tree of type: Function tree
                             XSTACK   ISTACK
    | Stack used (prev) :  00000EC9 0000009D
  01  osal_memdup::?relay
      | Stack used (prev) :  00000EC9 0000009D
      | + function block  :  00000000 00000000
  <-Sub-tree of type: Function tree
    | Stack used          :  00000EC9 0000009D


  ->Sub-tree of type: Function tree
                             XSTACK   ISTACK
    | Stack used (prev) :  00000EC9 0000009D
  01  osal_memcmp::?relay
      | Stack used (prev) :  00000EC9 0000009D
      | + function block  :  00000000 00000000
  <-Sub-tree of type: Function tree
    | Stack used          :  00000EC9 0000009D


  ->Sub-tree of type: Function tree
                             XSTACK   ISTACK
    | Stack used (prev) :  00000EC9 0000009D
  01  osal_memset::?relay
      | Stack used (prev) :  00000EC9 0000009D
      | + function block  :  00000000 00000000
  <-Sub-tree of type: Function tree
    | Stack used          :  00000EC9 0000009D


  ->Sub-tree of type: Function tree
                             XSTACK   ISTACK
    | Stack used (prev) :  00000EC9 0000009D
  01  _ltoa::?relay
      | Stack used (prev) :  00000EC9 0000009D
      | + function block  :  00000000 00000000
  <-Sub-tree of type: Function tree
    | Stack used          :  00000EC9 0000009D


  ->Sub-tree of type: Function tree
                             XSTACK   ISTACK
    | Stack used (prev) :  00000EC9 0000009D
  01  osal_rand::?relay
      | Stack used (prev) :  00000EC9 0000009D
      | + function block  :  00000000 00000000
  <-Sub-tree of type: Function tree
    | Stack used          :  00000EC9 0000009D


  ->Sub-tree of type: Function tree
                             XSTACK   ISTACK
    | Stack used (prev) :  00000EC9 0000009D
  01  osal_msg_allocate::?relay
      | Stack used (prev) :  00000EC9 0000009D
      | + function block  :  00000000 00000000
  <-Sub-tree of type: Function tree
    | Stack used          :  00000EC9 0000009D


  ->Sub-tree of type: Function tree
                             XSTACK   ISTACK
    | Stack used (prev) :  00000EC9 0000009D
  01  osal_msg_deallocate::?relay
      | Stack used (prev) :  00000EC9 0000009D
      | + function block  :  00000000 00000000
  <-Sub-tree of type: Function tree
    | Stack used          :  00000EC9 0000009D


  ->Sub-tree of type: Function tree
                             XSTACK   ISTACK
    | Stack used (prev) :  00000EC9 0000009D
  01  osal_msg_send::?relay
      | Stack used (prev) :  00000EC9 0000009D
      | + function block  :  00000000 00000000
  <-Sub-tree of type: Function tree
    | Stack used          :  00000EC9 0000009D


  ->Sub-tree of type: Function tree
                             XSTACK   ISTACK
    | Stack used (prev) :  00000EC9 0000009D
  01  osal_msg_enqueue_push::?relay
      | Stack used (prev) :  00000EC9 0000009D
      | + function block  :  00000000 00000000
  <-Sub-tree of type: Function tree
    | Stack used          :  00000EC9 0000009D


  ->Sub-tree of type: Function tree
                             XSTACK   ISTACK
    | Stack used (prev) :  00000EC9 0000009D
  01  osal_msg_receive::?relay
      | Stack used (prev) :  00000EC9 0000009D
      | + function block  :  00000000 00000000
  <-Sub-tree of type: Function tree
    | Stack used          :  00000EC9 0000009D


  ->Sub-tree of type: Function tree
                             XSTACK   ISTACK
    | Stack used (prev) :  00000EC9 0000009D
  01  osal_msg_enqueue::?relay
      | Stack used (prev) :  00000EC9 0000009D
      | + function block  :  00000000 00000000
  <-Sub-tree of type: Function tree
    | Stack used          :  00000EC9 0000009D


  ->Sub-tree of type: Function tree
                             XSTACK   ISTACK
    | Stack used (prev) :  00000EC9 0000009D
  01  osal_msg_push::?relay
      | Stack used (prev) :  00000EC9 0000009D
      | + function block  :  00000000 00000000
  <-Sub-tree of type: Function tree
    | Stack used          :  00000EC9 0000009D


  ->Sub-tree of type: Function tree
                             XSTACK   ISTACK
    | Stack used (prev) :  00000EC9 0000009D
  01  osal_msg_extract::?relay
      | Stack used (prev) :  00000EC9 0000009D
      | + function block  :  00000000 00000000
  <-Sub-tree of type: Function tree
    | Stack used          :  00000EC9 0000009D


  ->Sub-tree of type: Function tree
                             XSTACK   ISTACK
    | Stack used (prev) :  00000EC9 0000009D
  01  osal_set_event::?relay
      | Stack used (prev) :  00000EC9 0000009D
      | + function block  :  00000000 00000000
  <-Sub-tree of type: Function tree
    | Stack used          :  00000EC9 0000009D


  ->Sub-tree of type: Function tree
                             XSTACK   ISTACK
    | Stack used (prev) :  00000EC9 0000009D
  01  osal_clear_event::?relay
      | Stack used (prev) :  00000EC9 0000009D
      | + function block  :  00000000 00000000
  <-Sub-tree of type: Function tree
    | Stack used          :  00000EC9 0000009D


  ->Sub-tree of type: Function tree
                             XSTACK   ISTACK
    | Stack used (prev) :  00000EC9 0000009D
  01  osal_int_disable::?relay
      | Stack used (prev) :  00000EC9 0000009D
      | + function block  :  00000000 00000000
  <-Sub-tree of type: Function tree
    | Stack used          :  00000EC9 0000009D


  ->Sub-tree of type: Function tree
                             XSTACK   ISTACK
    | Stack used (prev) :  00000EC9 0000009D
  01  osal_init_system::?relay
      | Stack used (prev) :  00000EC9 0000009D
      | + function block  :  00000000 00000000
  <-Sub-tree of type: Function tree
    | Stack used          :  00000EC9 0000009D


  ->Sub-tree of type: Function tree
                             XSTACK   ISTACK
    | Stack used (prev) :  00000EC9 0000009D
  01  osal_start_system::?relay
      | Stack used (prev) :  00000EC9 0000009D
      | + function block  :  00000000 00000000
  <-Sub-tree of type: Function tree
    | Stack used          :  00000EC9 0000009D


  ->Sub-tree of type: Function tree
                             XSTACK   ISTACK
    | Stack used (prev) :  00000EC9 0000009D
  01  osal_run_system::?relay
      | Stack used (prev) :  00000EC9 0000009D
      | + function block  :  00000000 00000000
  <-Sub-tree of type: Function tree
    | Stack used          :  00000EC9 0000009D


  ->Sub-tree of type: Function tree
                             XSTACK   ISTACK
    | Stack used (prev) :  00000EC9 0000009D
  01  osal_isbufset::?relay
      | Stack used (prev) :  00000EC9 0000009D
      | + function block  :  00000000 00000000
  <-Sub-tree of type: Function tree
    | Stack used          :  00000EC9 0000009D


  ->Sub-tree of type: Function tree
                             XSTACK   ISTACK
    | Stack used (prev) :  00000EC9 0000009D
  01  osalTimeUpdate::?relay
      | Stack used (prev) :  00000EC9 0000009D
      | + function block  :  00000000 00000000
  <-Sub-tree of type: Function tree
    | Stack used          :  00000EC9 0000009D


  ->Sub-tree of type: Function tree
                             XSTACK   ISTACK
    | Stack used (prev) :  00000EC9 0000009D
  01  osal_mem_init::?relay
      | Stack used (prev) :  00000EC9 0000009D
      | + function block  :  00000000 00000000
  <-Sub-tree of type: Function tree
    | Stack used          :  00000EC9 0000009D


  ->Sub-tree of type: Function tree
                             XSTACK   ISTACK
    | Stack used (prev) :  00000EC9 0000009D
  01  osal_mem_kick::?relay
      | Stack used (prev) :  00000EC9 0000009D
      | + function block  :  00000000 00000000
  <-Sub-tree of type: Function tree
    | Stack used          :  00000EC9 0000009D


  ->Sub-tree of type: Function tree
                             XSTACK   ISTACK
    | Stack used (prev) :  00000EC9 0000009D
  01  osal_mem_alloc::?relay
      | Stack used (prev) :  00000EC9 0000009D
      | + function block  :  00000000 00000000
  <-Sub-tree of type: Function tree
    | Stack used          :  00000EC9 0000009D


  ->Sub-tree of type: Function tree
                             XSTACK   ISTACK
    | Stack used (prev) :  00000EC9 0000009D
  01  osal_mem_free::?relay
      | Stack used (prev) :  00000EC9 0000009D
      | + function block  :  00000000 00000000
  <-Sub-tree of type: Function tree
    | Stack used          :  00000EC9 0000009D


  ->Sub-tree of type: Function tree
                             XSTACK   ISTACK
    | Stack used (prev) :  00000EC9 0000009D
  01  osal_pwrmgr_init::?relay
      | Stack used (prev) :  00000EC9 0000009D
      | + function block  :  00000000 00000000
  <-Sub-tree of type: Function tree
    | Stack used          :  00000EC9 0000009D


  ->Sub-tree of type: Function tree
                             XSTACK   ISTACK
    | Stack used (prev) :  00000EC9 0000009D
  01  osal_pwrmgr_device::?relay
      | Stack used (prev) :  00000EC9 0000009D
      | + function block  :  00000000 00000000
  <-Sub-tree of type: Function tree
    | Stack used          :  00000EC9 0000009D


  ->Sub-tree of type: Function tree
                             XSTACK   ISTACK
    | Stack used (prev) :  00000EC9 0000009D
  01  osal_pwrmgr_task_state::?relay
      | Stack used (prev) :  00000EC9 0000009D
      | + function block  :  00000000 00000000
  <-Sub-tree of type: Function tree
    | Stack used          :  00000EC9 0000009D


  ->Sub-tree of type: Function tree
                             XSTACK   ISTACK
    | Stack used (prev) :  00000EC9 0000009D
  01  osal_pwrmgr_powerconserve::?relay
      | Stack used (prev) :  00000EC9 0000009D
      | + function block  :  00000000 00000000
  <-Sub-tree of type: Function tree
    | Stack used          :  00000EC9 0000009D


  ->Sub-tree of type: Function tree
                             XSTACK   ISTACK
    | Stack used (prev) :  00000EC9 0000009D
  01  osalInitTasks::?relay
      | Stack used (prev) :  00000EC9 0000009D
      | + function block  :  00000000 00000000
  <-Sub-tree of type: Function tree
    | Stack used          :  00000EC9 0000009D


  ->Sub-tree of type: Function tree
                             XSTACK   ISTACK
    | Stack used (prev) :  00000EC9 0000009D
  01  osalTimerInit::?relay
      | Stack used (prev) :  00000EC9 0000009D
      | + function block  :  00000000 00000000
  <-Sub-tree of type: Function tree
    | Stack used          :  00000EC9 0000009D


  ->Sub-tree of type: Function tree
                             XSTACK   ISTACK
    | Stack used (prev) :  00000EC9 0000009D
  01  osalAddTimer::?relay
      | Stack used (prev) :  00000EC9 0000009D
      | + function block  :  00000000 00000000
  <-Sub-tree of type: Function tree
    | Stack used          :  00000EC9 0000009D


  ->Sub-tree of type: Function tree
                             XSTACK   ISTACK
    | Stack used (prev) :  00000EC9 0000009D
  01  osalFindTimer::?relay
      | Stack used (prev) :  00000EC9 0000009D
      | + function block  :  00000000 00000000
  <-Sub-tree of type: Function tree
    | Stack used          :  00000EC9 0000009D


  ->Sub-tree of type: Function tree
                             XSTACK   ISTACK
    | Stack used (prev) :  00000EC9 0000009D
  01  osalDeleteTimer::?relay
      | Stack used (prev) :  00000EC9 0000009D
      | + function block  :  00000000 00000000
  <-Sub-tree of type: Function tree
    | Stack used          :  00000EC9 0000009D


  ->Sub-tree of type: Function tree
                             XSTACK   ISTACK
    | Stack used (prev) :  00000EC9 0000009D
  01  osal_start_timerEx::?relay
      | Stack used (prev) :  00000EC9 0000009D
      | + function block  :  00000000 00000000
  <-Sub-tree of type: Function tree
    | Stack used          :  00000EC9 0000009D


  ->Sub-tree of type: Function tree
                             XSTACK   ISTACK
    | Stack used (prev) :  00000EC9 0000009D
  01  osal_start_reload_timer::?relay
      | Stack used (prev) :  00000EC9 0000009D
      | + function block  :  00000000 00000000
  <-Sub-tree of type: Function tree
    | Stack used          :  00000EC9 0000009D


  ->Sub-tree of type: Function tree
                             XSTACK   ISTACK
    | Stack used (prev) :  00000EC9 0000009D
  01  osal_stop_timerEx::?relay
      | Stack used (prev) :  00000EC9 0000009D
      | + function block  :  00000000 00000000
  <-Sub-tree of type: Function tree
    | Stack used          :  00000EC9 0000009D


  ->Sub-tree of type: Function tree
                             XSTACK   ISTACK
    | Stack used (prev) :  00000EC9 0000009D
  01  osal_get_timeoutEx::?relay
      | Stack used (prev) :  00000EC9 0000009D
      | + function block  :  00000000 00000000
  <-Sub-tree of type: Function tree
    | Stack used          :  00000EC9 0000009D


  ->Sub-tree of type: Function tree
                             XSTACK   ISTACK
    | Stack used (prev) :  00000EC9 0000009D
  01  osalTimerUpdate::?relay
      | Stack used (prev) :  00000EC9 0000009D
      | + function block  :  00000000 00000000
  <-Sub-tree of type: Function tree
    | Stack used          :  00000EC9 0000009D


  ->Sub-tree of type: Function tree
                             XSTACK   ISTACK
    | Stack used (prev) :  00000EC9 0000009D
  01  osal_next_timeout::?relay
      | Stack used (prev) :  00000EC9 0000009D
      | + function block  :  00000000 00000000
  <-Sub-tree of type: Function tree
    | Stack used          :  00000EC9 0000009D


  ->Sub-tree of type: Function tree
                             XSTACK   ISTACK
    | Stack used (prev) :  00000EC9 0000009D
  01  osal_GetSystemClock::?relay
      | Stack used (prev) :  00000EC9 0000009D
      | + function block  :  00000000 00000000
  <-Sub-tree of type: Function tree
    | Stack used          :  00000EC9 0000009D


  ->Sub-tree of type: Function tree
                             XSTACK   ISTACK
    | Stack used (prev) :  00000EC9 0000009D
  01  InitBoard::?relay
      | Stack used (prev) :  00000EC9 0000009D
      | + function block  :  00000000 00000000
  <-Sub-tree of type: Function tree
    | Stack used          :  00000EC9 0000009D


  ->Sub-tree of type: Function tree
                             XSTACK   ISTACK
    | Stack used (prev) :  00000EC9 0000009D
  01  Onboard_rand::?relay
      | Stack used (prev) :  00000EC9 0000009D
      | + function block  :  00000000 00000000
  <-Sub-tree of type: Function tree
    | Stack used          :  00000EC9 0000009D


  ->Sub-tree of type: Function tree
                             XSTACK   ISTACK
    | Stack used (prev) :  00000EC9 0000009D
  01  _itoa::?relay
      | Stack used (prev) :  00000EC9 0000009D
      | + function block  :  00000000 00000000
  <-Sub-tree of type: Function tree
    | Stack used          :  00000EC9 0000009D


  ->Sub-tree of type: Function tree
                             XSTACK   ISTACK
    | Stack used (prev) :  00000EC9 0000009D
  01  RegisterForKeys::?relay
      | Stack used (prev) :  00000EC9 0000009D
      | + function block  :  00000000 00000000
  <-Sub-tree of type: Function tree
    | Stack used          :  00000EC9 0000009D


  ->Sub-tree of type: Function tree
                             XSTACK   ISTACK
    | Stack used (prev) :  00000EC9 0000009D
  01  OnBoard_SendKeys::?relay
      | Stack used (prev) :  00000EC9 0000009D
      | + function block  :  00000000 00000000
  <-Sub-tree of type: Function tree
    | Stack used          :  00000EC9 0000009D


  ->Sub-tree of type: Function tree
                             XSTACK   ISTACK
    | Stack used (prev) :  00000EC9 0000009D
  01  OnBoard_KeyCallback::?relay
      | Stack used (prev) :  00000EC9 0000009D
      | + function block  :  00000000 00000000
  <-Sub-tree of type: Function tree
    | Stack used          :  00000EC9 0000009D


  ->Sub-tree of type: Function tree
                             XSTACK   ISTACK
    | Stack used (prev) :  00000EC9 0000009D
  01  SbpHalUART_Init::?relay
      | Stack used (prev) :  00000EC9 0000009D
      | + function block  :  00000000 00000000
  <-Sub-tree of type: Function tree
    | Stack used          :  00000EC9 0000009D


  ->Sub-tree of type: Function tree
                             XSTACK   ISTACK
    | Stack used (prev) :  00000EC9 0000009D
  01  SbpHalUARTInit::?relay
      | Stack used (prev) :  00000EC9 0000009D
      | + function block  :  00000000 00000000
  <-Sub-tree of type: Function tree
    | Stack used          :  00000EC9 0000009D


  ->Sub-tree of type: Function tree
                             XSTACK   ISTACK
    | Stack used (prev) :  00000EC9 0000009D
  01  studyCompletedAndBroadcastData::?relay
      | Stack used (prev) :  00000EC9 0000009D
      | + function block  :  00000000 00000000
  <-Sub-tree of type: Function tree
    | Stack used          :  00000EC9 0000009D


  ->Sub-tree of type: Function tree
                             XSTACK   ISTACK
    | Stack used (prev) :  00000EC9 0000009D
  01  SbpHalUARTReadCallback::?relay
      | Stack used (prev) :  00000EC9 0000009D
      | + function block  :  00000000 00000000
  <-Sub-tree of type: Function tree
    | Stack used          :  00000EC9 0000009D


  ->Sub-tree of type: Function tree
                             XSTACK   ISTACK
    | Stack used (prev) :  00000EC9 0000009D
  01  SbpHalUARTRead::?relay
      | Stack used (prev) :  00000EC9 0000009D
      | + function block  :  00000000 00000000
  <-Sub-tree of type: Function tree
    | Stack used          :  00000EC9 0000009D


  ->Sub-tree of type: Function tree
                             XSTACK   ISTACK
    | Stack used (prev) :  00000EC9 0000009D
  01  delay_nus::?relay
      | Stack used (prev) :  00000EC9 0000009D
      | + function block  :  00000000 00000000
  <-Sub-tree of type: Function tree
    | Stack used          :  00000EC9 0000009D


  ->Sub-tree of type: Function tree
                             XSTACK   ISTACK
    | Stack used (prev) :  00000EC9 0000009D
  01  set_de_passkey::?relay
      | Stack used (prev) :  00000EC9 0000009D
      | + function block  :  00000000 00000000
  <-Sub-tree of type: Function tree
    | Stack used          :  00000EC9 0000009D


  ->Sub-tree of type: Function tree
                             XSTACK   ISTACK
    | Stack used (prev) :  00000EC9 0000009D
  01  set_new_passkey::?relay
      | Stack used (prev) :  00000EC9 0000009D
      | + function block  :  00000000 00000000
  <-Sub-tree of type: Function tree
    | Stack used          :  00000EC9 0000009D


  ->Sub-tree of type: Function tree
                             XSTACK   ISTACK
    | Stack used (prev) :  00000EC9 0000009D
  01  atoi::?relay
      | Stack used (prev) :  00000EC9 0000009D
      | + function block  :  00000000 00000000
  <-Sub-tree of type: Function tree
    | Stack used          :  00000EC9 0000009D


  ->Sub-tree of type: Function tree
                             XSTACK   ISTACK
    | Stack used (prev) :  00000EC9 0000009D
  01  set_code_name::?relay
      | Stack used (prev) :  00000EC9 0000009D
      | + function block  :  00000000 00000000
  <-Sub-tree of type: Function tree
    | Stack used          :  00000EC9 0000009D


  ->Sub-tree of type: Function tree
                             XSTACK   ISTACK
    | Stack used (prev) :  00000EC9 0000009D
  01  Batt_AddService::?relay
      | Stack used (prev) :  00000EC9 0000009D
      | + function block  :  00000000 00000000
  <-Sub-tree of type: Function tree
    | Stack used          :  00000EC9 0000009D


  ->Sub-tree of type: Function tree
                             XSTACK   ISTACK
    | Stack used (prev) :  00000EC9 0000009D
  01  Batt_MeasLevel::?relay
      | Stack used (prev) :  00000EC9 0000009D
      | + function block  :  00000000 00000000
  <-Sub-tree of type: Function tree
    | Stack used          :  00000EC9 0000009D


  ->Sub-tree of type: Function tree
                             XSTACK   ISTACK
    | Stack used (prev) :  00000EC9 0000009D
  01  battReadAttrCB::?relay
      | Stack used (prev) :  00000EC9 0000009D
      | + function block  :  00000000 00000000
  <-Sub-tree of type: Function tree
    | Stack used          :  00000EC9 0000009D


  ->Sub-tree of type: Function tree
                             XSTACK   ISTACK
    | Stack used (prev) :  00000EC9 0000009D
  01  battWriteAttrCB::?relay
      | Stack used (prev) :  00000EC9 0000009D
      | + function block  :  00000000 00000000
  <-Sub-tree of type: Function tree
    | Stack used          :  00000EC9 0000009D


  ->Sub-tree of type: Function tree
                             XSTACK   ISTACK
    | Stack used (prev) :  00000EC9 0000009D
  01  battMeasure::?relay
      | Stack used (prev) :  00000EC9 0000009D
      | + function block  :  00000000 00000000
  <-Sub-tree of type: Function tree
    | Stack used          :  00000EC9 0000009D


  ->Sub-tree of type: Function tree
                             XSTACK   ISTACK
    | Stack used (prev) :  00000EC9 0000009D
  01  DevInfo_AddService::?relay
      | Stack used (prev) :  00000EC9 0000009D
      | + function block  :  00000000 00000000
  <-Sub-tree of type: Function tree
    | Stack used          :  00000EC9 0000009D


  ->Sub-tree of type: Function tree
                             XSTACK   ISTACK
    | Stack used (prev) :  00000EC9 0000009D
  01  DevInfo_SetParameter::?relay
      | Stack used (prev) :  00000EC9 0000009D
      | + function block  :  00000000 00000000
  <-Sub-tree of type: Function tree
    | Stack used          :  00000EC9 0000009D


  ->Sub-tree of type: Function tree
                             XSTACK   ISTACK
    | Stack used (prev) :  00000EC9 0000009D
  01  devInfo_ReadAttrCB::?relay
      | Stack used (prev) :  00000EC9 0000009D
      | + function block  :  00000000 00000000
  <-Sub-tree of type: Function tree
    | Stack used          :  00000EC9 0000009D


  ->Sub-tree of type: Function tree
                             XSTACK   ISTACK
    | Stack used (prev) :  00000EC9 0000009D
  01  GAP_DeviceInit::?relay
      | Stack used (prev) :  00000EC9 0000009D
      | + function block  :  00000000 00000000
  <-Sub-tree of type: Function tree
    | Stack used          :  00000EC9 0000009D


  ->Sub-tree of type: Function tree
                             XSTACK   ISTACK
    | Stack used (prev) :  00000EC9 0000009D
  02    gapBondFreeAuthEvt
        | Stack used (prev) :  000003F2 0000005A
        | + function block  :  00000042 00000002
        |  Already listed
  05          osal_snv_read
              | Stack used (prev) :  00000442 0000005B
              | + function block  :  00000018 00000000
              |  Already listed
  05          osal_snv_write
              | Stack used (prev) :  0000050B 0000005C
              | + function block  :  00000022 00000000
              |  Already listed
  05          gapBondMgrInvertCharCfgItem
              | Stack used (prev) :  00000EC9 0000009D
              | + function block  :  0000004D 00000001
  05          gapBondMgrInvertCharCfgItem
              | Stack used (prev) :  00000EC9 0000009D
              | + function block  :  0000004D 00000001
              |  Already listed
  05          gapBondMgrFindCharCfgItem
              | Stack used (prev) :  00000EC9 0000009D
              | + function block  :  00000031 00000000
  05          gapBondMgrFindCharCfgItem
              | Stack used (prev) :  00000EC9 0000009D
              | + function block  :  00000031 00000000
              |  Already listed
  05          osal_isbufset
              | Stack used (prev) :  000003F2 0000005A
              | + function block  :  0000000A 00000000
              |  Already listed
  05          osal_memset
              | Stack used (prev) :  000003F4 0000005C
              | + function block  :  00000018 00000000
              |  Already listed
  04        gapBondMgrUpdateCharCfg
            | Stack used (prev) :  00000F16 0000009D
            | + function block  :  0000005E 00000001
  04        gapBondMgrUpdateCharCfg
            | Stack used (prev) :  00000F16 0000009D
            | + function block  :  0000005E 00000001
            |  Already listed
  04        GAPBondMgr_ResolveAddr
            | Stack used (prev) :  00000588 00000060
            | + function block  :  00000064 00000000
            |  Already listed
  04        linkDB_Find
            | Stack used (prev) :  000003F2 0000005A
            | + function block  :  00000014 00000002
            |  Already listed
  03      GAPBondMgr_UpdateCharCfg
          | Stack used (prev) :  00000F74 0000009E
          | + function block  :  0000002B 00000000
  03      GATTServApp_ReadAttr
          | Stack used (prev) :  00000A20 00000081
          | + function block  :  0000007B 00000000
          |  Already listed
  03      GATT_FindNextAttr
          | Stack used (prev) :  000009F8 00000081
          | + function block  :  00000028 00000000
          |  Already listed
  03      GATT_FindHandleUUID
          | Stack used (prev) :  00000458 0000005B
          | + function block  :  00000060 00000000
          |  Already listed
  02    gapBondMgr_SyncCharCfg
        | Stack used (prev) :  00000F9F 0000009E
        | + function block  :  0000002A 00000000
  03      osal_snv_write
          | Stack used (prev) :  0000050B 0000005C
          | + function block  :  00000022 00000000
          |  Already listed
  03      gapBondMgr_SyncWhiteList
          | Stack used (prev) :  00000447 00000064
          | + function block  :  0000002C 00000000
          |  Already listed
  03      gapBondSetupPrivFlag
          | Stack used (prev) :  00000428 0000005C
          | + function block  :  0000001C 00000004
          |  Already listed
  03      gapBondMgrFindAddr
          | Stack used (prev) :  000003FF 0000005A
          | + function block  :  00000036 00000000
          |  Already listed
  03      osal_isbufset
          | Stack used (prev) :  000003F2 0000005A
          | + function block  :  0000000A 00000000
          |  Already listed
  03      osal_memset
          | Stack used (prev) :  000003F4 0000005C
          | + function block  :  00000018 00000000
          |  Already listed
  03      osal_memcpy
          | Stack used (prev) :  00000000 00000000
          | + function block  :  00000019 00000001
          |  Already listed
  02    gapBondMgrAddBond
        | Stack used (prev) :  00000EC9 0000009D
        | + function block  :  00000040 00000000
  03      osal_snv_compact
          | Stack used (prev) :  0000050B 0000005C
          | + function block  :  00000028 00000000
          |  Already listed
  03      osal_snv_write
          | Stack used (prev) :  0000050B 0000005C
          | + function block  :  00000022 00000000
          |  Already listed
  04        osal_memset
            | Stack used (prev) :  000003F4 0000005C
            | + function block  :  00000018 00000000
            |  Already listed
  04        osal_memcpy
            | Stack used (prev) :  00000000 00000000
            | + function block  :  00000019 00000001
            |  Already listed
  05          osal_mem_alloc
              | Stack used (prev) :  00000000 00000000
              | + function block  :  00000018 00000000
              |  Already listed
  05          osal_memset
              | Stack used (prev) :  000003F4 0000005C
              | + function block  :  00000018 00000000
              |  Already listed
  05          osal_memcpy
              | Stack used (prev) :  00000000 00000000
              | + function block  :  00000019 00000001
              |  Already listed
  06            smSendFailAndEnd
                | Stack used (prev) :  00000DC1 00000093
                | + function block  :  0000002B 00000000
                |  Already listed
  06            smUint8ToAuthReq
                | Stack used (prev) :  000003F2 0000005A
                | + function block  :  0000000A 00000000
                |  Already listed
  05          smProcessPairingReq
              | Stack used (prev) :  00000EC9 0000009D
              | + function block  :  00000013 00000002
  06            osal_mem_alloc
                | Stack used (prev) :  00000000 00000000
                | + function block  :  00000018 00000000
                |  Already listed
  06            osal_memset
                | Stack used (prev) :  000003F4 0000005C
                | + function block  :  00000018 00000000
                |  Already listed
  06            smFreePairingParams
                | Stack used (prev) :  000003F2 0000005C
                | + function block  :  00000012 00000004
                |  Already listed
  06            smGeneratePairingReqRsp
                | Stack used (prev) :  000004D7 0000005E
                | + function block  :  00000038 00000000
                |  Already listed
  06            GAP_GetParamValue
                | Stack used (prev) :  000003F2 0000005A
                | + function block  :  00000014 00000002
                |  Already listed
  05          SM_StartPairing
              | Stack used (prev) :  00000EC9 0000009D
              | + function block  :  00000014 00000001
  05          linkDB_Find
              | Stack used (prev) :  000003F2 0000005A
              | + function block  :  00000014 00000002
              |  Already listed
  05          gapFreeAuthLink
              | Stack used (prev) :  000003F2 0000005A
              | + function block  :  00000014 00000002
              |  Already listed
  04        GAP_Authenticate
            | Stack used (prev) :  00000EDD 0000009F
            | + function block  :  00000020 00000000
  03      gapBondMgrAuthenticate
          | Stack used (prev) :  00000EFD 0000009F
          | + function block  :  00000070 00000000
  03      gapBondMgrEraseBonding
          | Stack used (prev) :  0000052D 0000005C
          | + function block  :  000000A8 00000000
          |  Already listed
  03      gapBondMgrEraseAllBondings
          | Stack used (prev) :  000005D5 0000005C
          | + function block  :  00000036 00000000
          |  Already listed
  03      gapBondMgrReadBonds
          | Stack used (prev) :  00000473 00000064
          | + function block  :  00000036 00000000
          |  Already listed
  03      gapBondMgrAddBond
          | Stack used (prev) :  00000EC9 0000009D
          | + function block  :  00000040 00000000
          |  Already listed
  03      GAPBondMgr_ResolveAddr
          | Stack used (prev) :  00000588 00000060
          | + function block  :  00000064 00000000
          |  Already listed
  03      GAPBondMgr_ResolveAddr
          | Stack used (prev) :  00000588 00000060
          | + function block  :  00000064 00000000
          |  Already listed
  03      osal_set_event
          | Stack used (prev) :  00000000 00000000
          | + function block  :  00000017 00000000
          |  Already listed
  03      osal_memset
          | Stack used (prev) :  000003F4 0000005C
          | + function block  :  00000018 00000000
          |  Already listed
  03      osal_memcpy
          | Stack used (prev) :  00000000 00000000
          | + function block  :  00000019 00000001
          |  Already listed
  03      linkDB_Find
          | Stack used (prev) :  000003F2 0000005A
          | + function block  :  00000014 00000002
          |  Already listed
  03      GAP_NumActiveConnections
          | Stack used (prev) :  000003F2 0000005C
          | + function block  :  00000000 00000004
          |  Already listed
  04        osal_memset
            | Stack used (prev) :  000003F4 0000005C
            | + function block  :  00000018 00000000
            |  Already listed
  05          osal_memcpy
              | Stack used (prev) :  00000000 00000000
              | + function block  :  00000019 00000001
              |  Already listed
  05          smGenerateConfirm
              | Stack used (prev) :  000004D7 0000005E
              | + function block  :  00000042 00000000
              |  Already listed
  05          sm_c1
              | Stack used (prev) :  00000569 00000060
              | + function block  :  00000080 00000000
              |  Already listed
  05          smGenerateRandBuf
              | Stack used (prev) :  0000040A 00000064
              | + function block  :  00000027 00000000
              |  Already listed
  04        SM_PasskeyUpdate
            | Stack used (prev) :  00000EC9 0000009D
            | + function block  :  0000000C 00000000
  04        linkDB_Find
            | Stack used (prev) :  000003F2 0000005A
            | + function block  :  00000014 00000002
            |  Already listed
  03      GAP_PasscodeUpdate
          | Stack used (prev) :  00000ED5 0000009D
          | + function block  :  00000056 00000001
  04        smSendFailAndEnd
            | Stack used (prev) :  00000DC1 00000093
            | + function block  :  0000002B 00000000
            |  Already listed
  04        linkDB_Find
            | Stack used (prev) :  000003F2 0000005A
            | + function block  :  00000014 00000002
            |  Already listed
  03      GAP_TerminateAuth
          | Stack used (prev) :  00000EC9 0000009D
          | + function block  :  0000000D 00000001
  02    GAPBondMgr_ProcessGAPMsg
        | Stack used (prev) :  00000F6D 0000009F
        | + function block  :  00000054 00000000
  02    GAPBondMgr_UpdateCharCfg
        | Stack used (prev) :  00000F74 0000009E
        | + function block  :  0000002B 00000000
        |  Already listed
  03      gapBondMgrSendServiceChange
          | Stack used (prev) :  00000661 0000005E
          | + function block  :  0000000C 00000004
          |  Already listed
  04        osal_snv_read
            | Stack used (prev) :  00000442 0000005B
            | + function block  :  00000018 00000000
            |  Already listed
  04        osal_snv_write
            | Stack used (prev) :  0000050B 0000005C
            | + function block  :  00000022 00000000
            |  Already listed
  04        osal_isbufset
            | Stack used (prev) :  000003F2 0000005A
            | + function block  :  0000000A 00000000
            |  Already listed
  03      gapBondMgrChangeState
          | Stack used (prev) :  00000EC9 0000009D
          | + function block  :  00000026 00000000
  03      gapBondMgrChangeState
          | Stack used (prev) :  00000EC9 0000009D
          | + function block  :  00000026 00000000
          |  Already listed
  03      GAPBondMgr_ResolveAddr
          | Stack used (prev) :  00000588 00000060
          | + function block  :  00000064 00000000
          |  Already listed
  03      linkDB_PerformFunc
          | Stack used (prev) :  00000EC9 0000009D
          | + function block  :  00000000 00000002
  03      linkDB_Find
          | Stack used (prev) :  000003F2 0000005A
          | + function block  :  00000014 00000002
          |  Already listed
  02    GAPBondMgr_ServiceChangeInd
        | Stack used (prev) :  00000EEF 0000009F
        | + function block  :  00000024 00000000
  02    osal_set_event
        | Stack used (prev) :  00000000 00000000
        | + function block  :  00000017 00000000
        |  Already listed
  02    osal_msg_receive
        | Stack used (prev) :  00000806 00000075
        | + function block  :  00000020 00000000
        |  Already listed
  02    osal_msg_deallocate
        | Stack used (prev) :  0000000A 00000002
        | + function block  :  00000009 00000004
        |  Already listed
  01  GAPBondMgr_ProcessEvent
      | Stack used (prev) :  00000FC9 0000009F
      | + function block  :  00000018 00000000
  <-Sub-tree of type: Function tree
    | Stack used          :  00000FE1 0000009F


  ->Sub-tree of type: Function tree
                             XSTACK   ISTACK
    | Stack used (prev) :  00000FE1 0000009F
  01  GAPBondMgr_SetParameter::?relay
      | Stack used (prev) :  00000FE1 0000009F
      | + function block  :  00000000 00000000
  <-Sub-tree of type: Function tree
    | Stack used          :  00000FE1 0000009F


  ->Sub-tree of type: Function tree
                             XSTACK   ISTACK
    | Stack used (prev) :  00000FE1 0000009F
  01  GAPBondMgr_LinkEst::?relay
      | Stack used (prev) :  00000FE1 0000009F
      | + function block  :  00000000 00000000
  <-Sub-tree of type: Function tree
    | Stack used          :  00000FE1 0000009F


  ->Sub-tree of type: Function tree
                             XSTACK   ISTACK
    | Stack used (prev) :  00000FE1 0000009F
  01  GAPBondMgr_ResolveAddr::?relay
      | Stack used (prev) :  00000FE1 0000009F
      | + function block  :  00000000 00000000
  <-Sub-tree of type: Function tree
    | Stack used          :  00000FE1 0000009F


  ->Sub-tree of type: Function tree
                             XSTACK   ISTACK
    | Stack used (prev) :  00000FE1 0000009F
  01  GAPBondMgr_ServiceChangeInd::?relay
      | Stack used (prev) :  00000FE1 0000009F
      | + function block  :  00000000 00000000
  <-Sub-tree of type: Function tree
    | Stack used          :  00000FE1 0000009F


  ->Sub-tree of type: Function tree
                             XSTACK   ISTACK
    | Stack used (prev) :  00000FE1 0000009F
  01  GAPBondMgr_UpdateCharCfg::?relay
      | Stack used (prev) :  00000FE1 0000009F
      | + function block  :  00000000 00000000
  <-Sub-tree of type: Function tree
    | Stack used          :  00000FE1 0000009F


  ->Sub-tree of type: Function tree
                             XSTACK   ISTACK
    | Stack used (prev) :  00000FE1 0000009F
  01  GAPBondMgr_Register::?relay
      | Stack used (prev) :  00000FE1 0000009F
      | + function block  :  00000000 00000000
  <-Sub-tree of type: Function tree
    | Stack used          :  00000FE1 0000009F


  ->Sub-tree of type: Function tree
                             XSTACK   ISTACK
    | Stack used (prev) :  00000FE1 0000009F
  01  GAPBondMgr_ProcessGAPMsg::?relay
      | Stack used (prev) :  00000FE1 0000009F
      | + function block  :  00000000 00000000
  <-Sub-tree of type: Function tree
    | Stack used          :  00000FE1 0000009F


  ->Sub-tree of type: Function tree
                             XSTACK   ISTACK
    | Stack used (prev) :  00000FE1 0000009F
  01  gapBondMgrChangeState::?relay
      | Stack used (prev) :  00000FE1 0000009F
      | + function block  :  00000000 00000000
  <-Sub-tree of type: Function tree
    | Stack used          :  00000FE1 0000009F


  ->Sub-tree of type: Function tree
                             XSTACK   ISTACK
    | Stack used (prev) :  00000FE1 0000009F
  01  gapBondMgrUpdateCharCfg::?relay
      | Stack used (prev) :  00000FE1 0000009F
      | + function block  :  00000000 00000000
  <-Sub-tree of type: Function tree
    | Stack used          :  00000FE1 0000009F


  ->Sub-tree of type: Function tree
                             XSTACK   ISTACK
    | Stack used (prev) :  00000FE1 0000009F
  01  gapBondMgrFindCharCfgItem::?relay
      | Stack used (prev) :  00000FE1 0000009F
      | + function block  :  00000000 00000000
  <-Sub-tree of type: Function tree
    | Stack used          :  00000FE1 0000009F


  ->Sub-tree of type: Function tree
                             XSTACK   ISTACK
    | Stack used (prev) :  00000FE1 0000009F
  01  gapBondMgrInvertCharCfgItem::?relay
      | Stack used (prev) :  00000FE1 0000009F
      | + function block  :  00000000 00000000
  <-Sub-tree of type: Function tree
    | Stack used          :  00000FE1 0000009F


  ->Sub-tree of type: Function tree
                             XSTACK   ISTACK
    | Stack used (prev) :  00000FE1 0000009F
  01  gapBondMgrAddBond::?relay
      | Stack used (prev) :  00000FE1 0000009F
      | + function block  :  00000000 00000000
  <-Sub-tree of type: Function tree
    | Stack used          :  00000FE1 0000009F


  ->Sub-tree of type: Function tree
                             XSTACK   ISTACK
    | Stack used (prev) :  00000FE1 0000009F
  01  gapBondMgrGetPublicAddr::?relay
      | Stack used (prev) :  00000FE1 0000009F
      | + function block  :  00000000 00000000
  <-Sub-tree of type: Function tree
    | Stack used          :  00000FE1 0000009F


  ->Sub-tree of type: Function tree
                             XSTACK   ISTACK
    | Stack used (prev) :  00000FE1 0000009F
  01  gapBondMgrFindAddr::?relay
      | Stack used (prev) :  00000FE1 0000009F
      | + function block  :  00000000 00000000
  <-Sub-tree of type: Function tree
    | Stack used          :  00000FE1 0000009F


  ->Sub-tree of type: Function tree
                             XSTACK   ISTACK
    | Stack used (prev) :  00000FE1 0000009F
  01  gapBondMgrResolvePrivateAddr::?relay
      | Stack used (prev) :  00000FE1 0000009F
      | + function block  :  00000000 00000000
  <-Sub-tree of type: Function tree
    | Stack used          :  00000FE1 0000009F


  ->Sub-tree of type: Function tree
                             XSTACK   ISTACK
    | Stack used (prev) :  00000FE1 0000009F
  01  gapBondMgrReadBonds::?relay
      | Stack used (prev) :  00000FE1 0000009F
      | + function block  :  00000000 00000000
  <-Sub-tree of type: Function tree
    | Stack used          :  00000FE1 0000009F


  ->Sub-tree of type: Function tree
                             XSTACK   ISTACK
    | Stack used (prev) :  00000FE1 0000009F
  01  gapBondMgrBondTotal::?relay
      | Stack used (prev) :  00000FE1 0000009F
      | + function block  :  00000000 00000000
  <-Sub-tree of type: Function tree
    | Stack used          :  00000FE1 0000009F


  ->Sub-tree of type: Function tree
                             XSTACK   ISTACK
    | Stack used (prev) :  00000FE1 0000009F
  01  gapBondMgrEraseAllBondings::?relay
      | Stack used (prev) :  00000FE1 0000009F
      | + function block  :  00000000 00000000
  <-Sub-tree of type: Function tree
    | Stack used          :  00000FE1 0000009F


  ->Sub-tree of type: Function tree
                             XSTACK   ISTACK
    | Stack used (prev) :  00000FE1 0000009F
  01  gapBondMgrEraseBonding::?relay
      | Stack used (prev) :  00000FE1 0000009F
      | + function block  :  00000000 00000000
  <-Sub-tree of type: Function tree
    | Stack used          :  00000FE1 0000009F


  ->Sub-tree of type: Function tree
                             XSTACK   ISTACK
    | Stack used (prev) :  00000FE1 0000009F
  01  GAPBondMgr_Init::?relay
      | Stack used (prev) :  00000FE1 0000009F
      | + function block  :  00000000 00000000
  <-Sub-tree of type: Function tree
    | Stack used          :  00000FE1 0000009F


  ->Sub-tree of type: Function tree
                             XSTACK   ISTACK
    | Stack used (prev) :  00000FE1 0000009F
  01  GAPBondMgr_ProcessEvent::?relay
      | Stack used (prev) :  00000FE1 0000009F
      | + function block  :  00000000 00000000
  <-Sub-tree of type: Function tree
    | Stack used          :  00000FE1 0000009F


  ->Sub-tree of type: Function tree
                             XSTACK   ISTACK
    | Stack used (prev) :  00000FE1 0000009F
  01  gapBondMgrSendServiceChange::?relay
      | Stack used (prev) :  00000FE1 0000009F
      | + function block  :  00000000 00000000
  <-Sub-tree of type: Function tree
    | Stack used          :  00000FE1 0000009F


  ->Sub-tree of type: Function tree
                             XSTACK   ISTACK
    | Stack used (prev) :  00000FE1 0000009F
  01  gapBondSetupPrivFlag::?relay
      | Stack used (prev) :  00000FE1 0000009F
      | + function block  :  00000000 00000000
  <-Sub-tree of type: Function tree
    | Stack used          :  00000FE1 0000009F


  ->Sub-tree of type: Function tree
                             XSTACK   ISTACK
    | Stack used (prev) :  00000FE1 0000009F
  01  gapBondMgrAuthenticate::?relay
      | Stack used (prev) :  00000FE1 0000009F
      | + function block  :  00000000 00000000
  <-Sub-tree of type: Function tree
    | Stack used          :  00000FE1 0000009F


  ->Sub-tree of type: Function tree
                             XSTACK   ISTACK
    | Stack used (prev) :  00000FE1 0000009F
  01  gapBondMgrBondReq::?relay
      | Stack used (prev) :  00000FE1 0000009F
      | + function block  :  00000000 00000000
  <-Sub-tree of type: Function tree
    | Stack used          :  00000FE1 0000009F


  ->Sub-tree of type: Function tree
                             XSTACK   ISTACK
    | Stack used (prev) :  00000FE1 0000009F
  01  gapBondMgr_SyncWhiteList::?relay
      | Stack used (prev) :  00000FE1 0000009F
      | + function block  :  00000000 00000000
  <-Sub-tree of type: Function tree
    | Stack used          :  00000FE1 0000009F


  ->Sub-tree of type: Function tree
                             XSTACK   ISTACK
    | Stack used (prev) :  00000FE1 0000009F
  01  gapBondMgr_SyncCharCfg::?relay
      | Stack used (prev) :  00000FE1 0000009F
      | + function block  :  00000000 00000000
  <-Sub-tree of type: Function tree
    | Stack used          :  00000FE1 0000009F


  ->Sub-tree of type: Function tree
                             XSTACK   ISTACK
    | Stack used (prev) :  00000FE1 0000009F
  01  gapBondFreeAuthEvt::?relay
      | Stack used (prev) :  00000FE1 0000009F
      | + function block  :  00000000 00000000
  <-Sub-tree of type: Function tree
    | Stack used          :  00000FE1 0000009F


  ->Sub-tree of type: Function tree
                             XSTACK   ISTACK
    | Stack used (prev) :  00000FE1 0000009F
  01  HalAdcInit::?relay
      | Stack used (prev) :  00000FE1 0000009F
      | + function block  :  00000000 00000000
  <-Sub-tree of type: Function tree
    | Stack used          :  00000FE1 0000009F


  ->Sub-tree of type: Function tree
                             XSTACK   ISTACK
    | Stack used (prev) :  00000FE1 0000009F
  01  HalAdcRead::?relay
      | Stack used (prev) :  00000FE1 0000009F
      | + function block  :  00000000 00000000
  <-Sub-tree of type: Function tree
    | Stack used          :  00000FE1 0000009F


  ->Sub-tree of type: Function tree
                             XSTACK   ISTACK
    | Stack used (prev) :  00000FE1 0000009F
  01  HalAdcSetReference::?relay
      | Stack used (prev) :  00000FE1 0000009F
      | + function block  :  00000000 00000000
  <-Sub-tree of type: Function tree
    | Stack used          :  00000FE1 0000009F


  ->Sub-tree of type: Function tree
                             XSTACK   ISTACK
    | Stack used (prev) :  00000FE1 0000009F
  01  aesDmaInit::?relay
      | Stack used (prev) :  00000FE1 0000009F
      | + function block  :  00000000 00000000
  <-Sub-tree of type: Function tree
    | Stack used          :  00000FE1 0000009F


  ->Sub-tree of type: Function tree
                             XSTACK   ISTACK
    | Stack used (prev) :  00000FE1 0000009F
  01  HalAesInit::?relay
      | Stack used (prev) :  00000FE1 0000009F
      | + function block  :  00000000 00000000
  <-Sub-tree of type: Function tree
    | Stack used          :  00000FE1 0000009F


  ->Sub-tree of type: Function tree
                             XSTACK   ISTACK
    | Stack used (prev) :  00000FE1 0000009F
  01  HalDmaInit::?relay
      | Stack used (prev) :  00000FE1 0000009F
      | + function block  :  00000000 00000000
  <-Sub-tree of type: Function tree
    | Stack used          :  00000FE1 0000009F


  ->Sub-tree of type: Function tree
                             XSTACK   ISTACK
    | Stack used (prev) :  00000FE1 0000009F
  02    halRestoreSleepLevel
        | Stack used (prev) :  00000FE1 0000009F
        | + function block  :  00000000 00000000
  03      HalLedOnOff
          | Stack used (prev) :  00000FE1 0000009F
          | + function block  :  00000019 00000002
  03      HalLedOnOff
          | Stack used (prev) :  00000FE1 0000009F
          | + function block  :  00000019 00000002
          |  Already listed
  04        osal_GetSystemClock
            | Stack used (prev) :  00000FE1 0000009F
            | + function block  :  00000000 00000002
  04        osal_stop_timerEx
            | Stack used (prev) :  000001C2 00000034
            | + function block  :  00000018 00000000
            |  Already listed
  04        osal_set_event
            | Stack used (prev) :  00000000 00000000
            | + function block  :  00000017 00000000
            |  Already listed
  04        HalLedOnOff
            | Stack used (prev) :  00000FE1 0000009F
            | + function block  :  00000019 00000002
            |  Already listed
  03      Recursive system consisting of
           | HalLedBlink
           | HalLedSet
          | Stack used (prev) :  00000FFA 0000009F
          | + function block  :  0000003A 00000002
  03      osal_GetSystemClock
          | Stack used (prev) :  00000FE1 0000009F
          | + function block  :  00000000 00000002
          |  Already listed
  03      osal_start_timerEx
          | Stack used (prev) :  0000004A 00000002
          | + function block  :  00000024 00000000
          |  Already listed
  02    HalLedUpdate
        | Stack used (prev) :  00001034 000000A1
        | + function block  :  00000032 00000000
  04        HalAdcRead
            | Stack used (prev) :  000003F2 0000005A
            | + function block  :  0000000A 00000000
            |  Already listed
  03      halGetJoyKeyInput
          | Stack used (prev) :  00000FE1 0000009F
          | + function block  :  00000012 00000000
  02    HalKeyPoll
        | Stack used (prev) :  00000FF3 0000009F
        | + function block  :  00000012 00000000
  02    osal_stop_timerEx
        | Stack used (prev) :  000001C2 00000034
        | + function block  :  00000018 00000000
        |  Already listed
  02    osal_start_timerEx
        | Stack used (prev) :  0000004A 00000002
        | + function block  :  00000024 00000000
        |  Already listed
  02    osal_pwrmgr_task_state
        | Stack used (prev) :  000003CC 00000052
        | + function block  :  0000000A 00000000
        |  Already listed
  02    osal_clear_event
        | Stack used (prev) :  000001B6 00000032
        | + function block  :  00000017 00000000
        |  Already listed
  02    osal_msg_receive
        | Stack used (prev) :  00000806 00000075
        | + function block  :  00000020 00000000
        |  Already listed
  02    osal_msg_deallocate
        | Stack used (prev) :  0000000A 00000002
        | + function block  :  00000009 00000004
        |  Already listed
  01  Hal_ProcessEvent
      | Stack used (prev) :  00001066 000000A1
      | + function block  :  00000014 00000000
  <-Sub-tree of type: Function tree
    | Stack used          :  0000107A 000000A1


  ->Sub-tree of type: Function tree
                             XSTACK   ISTACK
    | Stack used (prev) :  0000107A 000000A1
  01  Hal_Init::?relay
      | Stack used (prev) :  0000107A 000000A1
      | + function block  :  00000000 00000000
  <-Sub-tree of type: Function tree
    | Stack used          :  0000107A 000000A1


  ->Sub-tree of type: Function tree
                             XSTACK   ISTACK
    | Stack used (prev) :  0000107A 000000A1
  01  HalDriverInit::?relay
      | Stack used (prev) :  0000107A 000000A1
      | + function block  :  00000000 00000000
  <-Sub-tree of type: Function tree
    | Stack used          :  0000107A 000000A1


  ->Sub-tree of type: Function tree
                             XSTACK   ISTACK
    | Stack used (prev) :  0000107A 000000A1
  01  Hal_ProcessEvent::?relay
      | Stack used (prev) :  0000107A 000000A1
      | + function block  :  00000000 00000000
  <-Sub-tree of type: Function tree
    | Stack used          :  0000107A 000000A1


  ->Sub-tree of type: Function tree
                             XSTACK   ISTACK
    | Stack used (prev) :  0000107A 000000A1
  01  Hal_ProcessPoll::?relay
      | Stack used (prev) :  0000107A 000000A1
      | + function block  :  00000000 00000000
  <-Sub-tree of type: Function tree
    | Stack used          :  0000107A 000000A1


  ->Sub-tree of type: Function tree
                             XSTACK   ISTACK
    | Stack used (prev) :  0000107A 000000A1
  01  HalDS1307ReadTimeData::?relay
      | Stack used (prev) :  0000107A 000000A1
      | + function block  :  00000000 00000000
  <-Sub-tree of type: Function tree
    | Stack used          :  0000107A 000000A1


  ->Sub-tree of type: Function tree
                             XSTACK   ISTACK
    | Stack used (prev) :  0000107A 000000A1
  01  showDate::?relay
      | Stack used (prev) :  0000107A 000000A1
      | + function block  :  00000000 00000000
  <-Sub-tree of type: Function tree
    | Stack used          :  0000107A 000000A1


  ->Sub-tree of type: Function tree
                             XSTACK   ISTACK
    | Stack used (prev) :  0000107A 000000A1
  01  hex2char::?relay
      | Stack used (prev) :  0000107A 000000A1
      | + function block  :  00000000 00000000
  <-Sub-tree of type: Function tree
    | Stack used          :  0000107A 000000A1


  ->Sub-tree of type: Function tree
                             XSTACK   ISTACK
    | Stack used (prev) :  0000107A 000000A1
  01  HalFlashRead::?relay
      | Stack used (prev) :  0000107A 000000A1
      | + function block  :  00000000 00000000
  <-Sub-tree of type: Function tree
    | Stack used          :  0000107A 000000A1


  ->Sub-tree of type: Function tree
                             XSTACK   ISTACK
    | Stack used (prev) :  0000107A 000000A1
  01  HalFlashWrite::?relay
      | Stack used (prev) :  0000107A 000000A1
      | + function block  :  00000000 00000000
  <-Sub-tree of type: Function tree
    | Stack used          :  0000107A 000000A1


  ->Sub-tree of type: Function tree
                             XSTACK   ISTACK
    | Stack used (prev) :  0000107A 000000A1
  01  HalFlashErase::?relay
      | Stack used (prev) :  0000107A 000000A1
      | + function block  :  00000000 00000000
  <-Sub-tree of type: Function tree
    | Stack used          :  0000107A 000000A1


  ->Sub-tree of type: Function tree
                             XSTACK   ISTACK
    | Stack used (prev) :  0000107A 000000A1
  01  i2cMstStrt::?relay
      | Stack used (prev) :  0000107A 000000A1
      | + function block  :  00000000 00000000
  <-Sub-tree of type: Function tree
    | Stack used          :  0000107A 000000A1


  ->Sub-tree of type: Function tree
                             XSTACK   ISTACK
    | Stack used (prev) :  0000107A 000000A1
  01  HalI2CInit::?relay
      | Stack used (prev) :  0000107A 000000A1
      | + function block  :  00000000 00000000
  <-Sub-tree of type: Function tree
    | Stack used          :  0000107A 000000A1


  ->Sub-tree of type: Function tree
                             XSTACK   ISTACK
    | Stack used (prev) :  0000107A 000000A1
  01  HalI2CRead::?relay
      | Stack used (prev) :  0000107A 000000A1
      | + function block  :  00000000 00000000
  <-Sub-tree of type: Function tree
    | Stack used          :  0000107A 000000A1


  ->Sub-tree of type: Function tree
                             XSTACK   ISTACK
    | Stack used (prev) :  0000107A 000000A1
  01  HalI2CWrite::?relay
      | Stack used (prev) :  0000107A 000000A1
      | + function block  :  00000000 00000000
  <-Sub-tree of type: Function tree
    | Stack used          :  0000107A 000000A1


  ->Sub-tree of type: Function tree
                             XSTACK   ISTACK
    | Stack used (prev) :  0000107A 000000A1
  01  HalKeyInit::?relay
      | Stack used (prev) :  0000107A 000000A1
      | + function block  :  00000000 00000000
  <-Sub-tree of type: Function tree
    | Stack used          :  0000107A 000000A1


  ->Sub-tree of type: Function tree
                             XSTACK   ISTACK
    | Stack used (prev) :  0000107A 000000A1
  01  HalKeyConfig::?relay
      | Stack used (prev) :  0000107A 000000A1
      | + function block  :  00000000 00000000
  <-Sub-tree of type: Function tree
    | Stack used          :  0000107A 000000A1


  ->Sub-tree of type: Function tree
                             XSTACK   ISTACK
    | Stack used (prev) :  0000107A 000000A1
  01  HalKeyRead::?relay
      | Stack used (prev) :  0000107A 000000A1
      | + function block  :  00000000 00000000
  <-Sub-tree of type: Function tree
    | Stack used          :  0000107A 000000A1


  ->Sub-tree of type: Function tree
                             XSTACK   ISTACK
    | Stack used (prev) :  0000107A 000000A1
  01  HalKeyPoll::?relay
      | Stack used (prev) :  0000107A 000000A1
      | + function block  :  00000000 00000000
  <-Sub-tree of type: Function tree
    | Stack used          :  0000107A 000000A1


  ->Sub-tree of type: Function tree
                             XSTACK   ISTACK
    | Stack used (prev) :  0000107A 000000A1
  01  halGetJoyKeyInput::?relay
      | Stack used (prev) :  0000107A 000000A1
      | + function block  :  00000000 00000000
  <-Sub-tree of type: Function tree
    | Stack used          :  0000107A 000000A1


  ->Sub-tree of type: Function tree
                             XSTACK   ISTACK
    | Stack used (prev) :  0000107A 000000A1
  01  halProcessKeyInterrupt::?relay
      | Stack used (prev) :  0000107A 000000A1
      | + function block  :  00000000 00000000
  <-Sub-tree of type: Function tree
    | Stack used          :  0000107A 000000A1


  ->Sub-tree of type: Function tree
                             XSTACK   ISTACK
    | Stack used (prev) :  0000107A 000000A1
  01  HalKeyEnterSleep::?relay
      | Stack used (prev) :  0000107A 000000A1
      | + function block  :  00000000 00000000
  <-Sub-tree of type: Function tree
    | Stack used          :  0000107A 000000A1


  ->Sub-tree of type: Function tree
                             XSTACK   ISTACK
    | Stack used (prev) :  0000107A 000000A1
  01  HalKeyExitSleep::?relay
      | Stack used (prev) :  0000107A 000000A1
      | + function block  :  00000000 00000000
  <-Sub-tree of type: Function tree
    | Stack used          :  0000107A 000000A1


  ->Sub-tree of type: Function tree
                             XSTACK   ISTACK
    | Stack used (prev) :  0000107A 000000A1
  01  set_ddram_line_col::?relay
      | Stack used (prev) :  0000107A 000000A1
      | + function block  :  00000000 00000000
  <-Sub-tree of type: Function tree
    | Stack used          :  0000107A 000000A1


  ->Sub-tree of type: Function tree
                             XSTACK   ISTACK
    | Stack used (prev) :  0000107A 000000A1
  01  DisplayByte_5x7::?relay
      | Stack used (prev) :  0000107A 000000A1
      | + function block  :  00000000 00000000
  <-Sub-tree of type: Function tree
    | Stack used          :  0000107A 000000A1


  ->Sub-tree of type: Function tree
                             XSTACK   ISTACK
    | Stack used (prev) :  0000107A 000000A1
  01  HalLcdInit::?relay
      | Stack used (prev) :  0000107A 000000A1
      | + function block  :  00000000 00000000
  <-Sub-tree of type: Function tree
    | Stack used          :  0000107A 000000A1


  ->Sub-tree of type: Function tree
                             XSTACK   ISTACK
    | Stack used (prev) :  0000107A 000000A1
  01  HalLcdWriteString::?relay
      | Stack used (prev) :  0000107A 000000A1
      | + function block  :  00000000 00000000
  <-Sub-tree of type: Function tree
    | Stack used          :  0000107A 000000A1


  ->Sub-tree of type: Function tree
                             XSTACK   ISTACK
    | Stack used (prev) :  0000107A 000000A1
  01  HalLcdWriteStringValue::?relay
      | Stack used (prev) :  0000107A 000000A1
      | + function block  :  00000000 00000000
  <-Sub-tree of type: Function tree
    | Stack used          :  0000107A 000000A1


  ->Sub-tree of type: Function tree
                             XSTACK   ISTACK
    | Stack used (prev) :  0000107A 000000A1
  01  HalLcd_HW_Init::?relay
      | Stack used (prev) :  0000107A 000000A1
      | + function block  :  00000000 00000000
  <-Sub-tree of type: Function tree
    | Stack used          :  0000107A 000000A1


  ->Sub-tree of type: Function tree
                             XSTACK   ISTACK
    | Stack used (prev) :  0000107A 000000A1
  01  HalLcd_HW_Control::?relay
      | Stack used (prev) :  0000107A 000000A1
      | + function block  :  00000000 00000000
  <-Sub-tree of type: Function tree
    | Stack used          :  0000107A 000000A1


  ->Sub-tree of type: Function tree
                             XSTACK   ISTACK
    | Stack used (prev) :  0000107A 000000A1
  01  HalLcd_HW_Write::?relay
      | Stack used (prev) :  0000107A 000000A1
      | + function block  :  00000000 00000000
  <-Sub-tree of type: Function tree
    | Stack used          :  0000107A 000000A1


  ->Sub-tree of type: Function tree
                             XSTACK   ISTACK
    | Stack used (prev) :  0000107A 000000A1
  01  HalLcd_HW_Clear::?relay
      | Stack used (prev) :  0000107A 000000A1
      | + function block  :  00000000 00000000
  <-Sub-tree of type: Function tree
    | Stack used          :  0000107A 000000A1


  ->Sub-tree of type: Function tree
                             XSTACK   ISTACK
    | Stack used (prev) :  0000107A 000000A1
  01  HalLcd_HW_WriteChar::?relay
      | Stack used (prev) :  0000107A 000000A1
      | + function block  :  00000000 00000000
  <-Sub-tree of type: Function tree
    | Stack used          :  0000107A 000000A1


  ->Sub-tree of type: Function tree
                             XSTACK   ISTACK
    | Stack used (prev) :  0000107A 000000A1
  01  HalLcd_HW_WriteLine::?relay
      | Stack used (prev) :  0000107A 000000A1
      | + function block  :  00000000 00000000
  <-Sub-tree of type: Function tree
    | Stack used          :  0000107A 000000A1


  ->Sub-tree of type: Function tree
                             XSTACK   ISTACK
    | Stack used (prev) :  0000107A 000000A1
  01  HalLcd_HW_WaitUs::?relay
      | Stack used (prev) :  0000107A 000000A1
      | + function block  :  00000000 00000000
  <-Sub-tree of type: Function tree
    | Stack used          :  0000107A 000000A1


  ->Sub-tree of type: Function tree
                             XSTACK   ISTACK
    | Stack used (prev) :  0000107A 000000A1
  01  HalLedInit::?relay
      | Stack used (prev) :  0000107A 000000A1
      | + function block  :  00000000 00000000
  <-Sub-tree of type: Function tree
    | Stack used          :  0000107A 000000A1


  ->Sub-tree of type: Function tree
                             XSTACK   ISTACK
    | Stack used (prev) :  0000107A 000000A1
  01  HalLedSet::?relay
      | Stack used (prev) :  0000107A 000000A1
      | + function block  :  00000000 00000000
  <-Sub-tree of type: Function tree
    | Stack used          :  0000107A 000000A1


  ->Sub-tree of type: Function tree
                             XSTACK   ISTACK
    | Stack used (prev) :  0000107A 000000A1
  01  HalLedBlink::?relay
      | Stack used (prev) :  0000107A 000000A1
      | + function block  :  00000000 00000000
  <-Sub-tree of type: Function tree
    | Stack used          :  0000107A 000000A1


  ->Sub-tree of type: Function tree
                             XSTACK   ISTACK
    | Stack used (prev) :  0000107A 000000A1
  01  HalLedUpdate::?relay
      | Stack used (prev) :  0000107A 000000A1
      | + function block  :  00000000 00000000
  <-Sub-tree of type: Function tree
    | Stack used          :  0000107A 000000A1


  ->Sub-tree of type: Function tree
                             XSTACK   ISTACK
    | Stack used (prev) :  0000107A 000000A1
  01  HalLedOnOff::?relay
      | Stack used (prev) :  0000107A 000000A1
      | + function block  :  00000000 00000000
  <-Sub-tree of type: Function tree
    | Stack used          :  0000107A 000000A1


  ->Sub-tree of type: Function tree
                             XSTACK   ISTACK
    | Stack used (prev) :  0000107A 000000A1
  01  HalLedEnterSleep::?relay
      | Stack used (prev) :  0000107A 000000A1
      | + function block  :  00000000 00000000
  <-Sub-tree of type: Function tree
    | Stack used          :  0000107A 000000A1


  ->Sub-tree of type: Function tree
                             XSTACK   ISTACK
    | Stack used (prev) :  0000107A 000000A1
  01  HalLedExitSleep::?relay
      | Stack used (prev) :  0000107A 000000A1
      | + function block  :  00000000 00000000
  <-Sub-tree of type: Function tree
    | Stack used          :  0000107A 000000A1


  ->Sub-tree of type: Function tree
                             XSTACK   ISTACK
    | Stack used (prev) :  0000107A 000000A1
  01  HalSensorReadReg::?relay
      | Stack used (prev) :  0000107A 000000A1
      | + function block  :  00000000 00000000
  <-Sub-tree of type: Function tree
    | Stack used          :  0000107A 000000A1


  ->Sub-tree of type: Function tree
                             XSTACK   ISTACK
    | Stack used (prev) :  0000107A 000000A1
  01  halSetSleepMode::?relay
      | Stack used (prev) :  0000107A 000000A1
      | + function block  :  00000000 00000000
  <-Sub-tree of type: Function tree
    | Stack used          :  0000107A 000000A1


  ->Sub-tree of type: Function tree
                             XSTACK   ISTACK
    | Stack used (prev) :  0000107A 000000A1
  01  halSleep::?relay
      | Stack used (prev) :  0000107A 000000A1
      | + function block  :  00000000 00000000
  <-Sub-tree of type: Function tree
    | Stack used          :  0000107A 000000A1


  ->Sub-tree of type: Function tree
                             XSTACK   ISTACK
    | Stack used (prev) :  0000107A 000000A1
  01  halSleepSetTimer::?relay
      | Stack used (prev) :  0000107A 000000A1
      | + function block  :  00000000 00000000
  <-Sub-tree of type: Function tree
    | Stack used          :  0000107A 000000A1


  ->Sub-tree of type: Function tree
                             XSTACK   ISTACK
    | Stack used (prev) :  0000107A 000000A1
  01  halSleepReadTimer::?relay
      | Stack used (prev) :  0000107A 000000A1
      | + function block  :  00000000 00000000
  <-Sub-tree of type: Function tree
    | Stack used          :  0000107A 000000A1


  ->Sub-tree of type: Function tree
                             XSTACK   ISTACK
    | Stack used (prev) :  0000107A 000000A1
  01  halRestoreSleepLevel::?relay
      | Stack used (prev) :  0000107A 000000A1
      | + function block  :  00000000 00000000
  <-Sub-tree of type: Function tree
    | Stack used          :  0000107A 000000A1


  ->Sub-tree of type: Function tree
                             XSTACK   ISTACK
    | Stack used (prev) :  0000107A 000000A1
  01  HalUARTInitDMA::?relay
      | Stack used (prev) :  0000107A 000000A1
      | + function block  :  00000000 00000000
  <-Sub-tree of type: Function tree
    | Stack used          :  0000107A 000000A1


  ->Sub-tree of type: Function tree
                             XSTACK   ISTACK
    | Stack used (prev) :  0000107A 000000A1
  01  HalUARTReadDMA::?relay
      | Stack used (prev) :  0000107A 000000A1
      | + function block  :  00000000 00000000
  <-Sub-tree of type: Function tree
    | Stack used          :  0000107A 000000A1


  ->Sub-tree of type: Function tree
                             XSTACK   ISTACK
    | Stack used (prev) :  0000107A 000000A1
  01  HalUARTPollDMA::?relay
      | Stack used (prev) :  0000107A 000000A1
      | + function block  :  00000000 00000000
  <-Sub-tree of type: Function tree
    | Stack used          :  0000107A 000000A1


  ->Sub-tree of type: Function tree
                             XSTACK   ISTACK
    | Stack used (prev) :  0000107A 000000A1
  01  HalUARTRxAvailDMA::?relay
      | Stack used (prev) :  0000107A 000000A1
      | + function block  :  00000000 00000000
  <-Sub-tree of type: Function tree
    | Stack used          :  0000107A 000000A1


  ->Sub-tree of type: Function tree
                             XSTACK   ISTACK
    | Stack used (prev) :  0000107A 000000A1
  01  HalUARTBusyDMA::?relay
      | Stack used (prev) :  0000107A 000000A1
      | + function block  :  00000000 00000000
  <-Sub-tree of type: Function tree
    | Stack used          :  0000107A 000000A1


  ->Sub-tree of type: Function tree
                             XSTACK   ISTACK
    | Stack used (prev) :  0000107A 000000A1
  01  HalUARTInit::?relay
      | Stack used (prev) :  0000107A 000000A1
      | + function block  :  00000000 00000000
  <-Sub-tree of type: Function tree
    | Stack used          :  0000107A 000000A1


  ->Sub-tree of type: Function tree
                             XSTACK   ISTACK
    | Stack used (prev) :  0000107A 000000A1
  01  HalUARTOpen::?relay
      | Stack used (prev) :  0000107A 000000A1
      | + function block  :  00000000 00000000
  <-Sub-tree of type: Function tree
    | Stack used          :  0000107A 000000A1


  ->Sub-tree of type: Function tree
                             XSTACK   ISTACK
    | Stack used (prev) :  0000107A 000000A1
  01  HalUARTRead::?relay
      | Stack used (prev) :  0000107A 000000A1
      | + function block  :  00000000 00000000
  <-Sub-tree of type: Function tree
    | Stack used          :  0000107A 000000A1


  ->Sub-tree of type: Function tree
                             XSTACK   ISTACK
    | Stack used (prev) :  0000107A 000000A1
  01  HalUARTPoll::?relay
      | Stack used (prev) :  0000107A 000000A1
      | + function block  :  00000000 00000000
  <-Sub-tree of type: Function tree
    | Stack used          :  0000107A 000000A1


  ->Sub-tree of type: Function tree
                             XSTACK   ISTACK
    | Stack used (prev) :  0000107A 000000A1
  01  Hal_UART_RxBufLen::?relay
      | Stack used (prev) :  0000107A 000000A1
      | + function block  :  00000000 00000000
  <-Sub-tree of type: Function tree
    | Stack used          :  0000107A 000000A1


  ->Sub-tree of type: Function tree
                             XSTACK   ISTACK
    | Stack used (prev) :  0000107A 000000A1
  01  HalUARTIsrDMA::?relay
      | Stack used (prev) :  0000107A 000000A1
      | + function block  :  00000000 00000000
  <-Sub-tree of type: Function tree
    | Stack used          :  0000107A 000000A1


  ->Sub-tree of type: Function tree
                             XSTACK   ISTACK
    | Stack used (prev) :  0000107A 000000A1
  01  osal_bm_alloc::?relay
      | Stack used (prev) :  0000107A 000000A1
      | + function block  :  00000000 00000000
  <-Sub-tree of type: Function tree
    | Stack used          :  0000107A 000000A1


  ->Sub-tree of type: Function tree
                             XSTACK   ISTACK
    | Stack used (prev) :  0000107A 000000A1
  01  osal_bm_free::?relay
      | Stack used (prev) :  0000107A 000000A1
      | + function block  :  00000000 00000000
  <-Sub-tree of type: Function tree
    | Stack used          :  0000107A 000000A1


  ->Sub-tree of type: Function tree
                             XSTACK   ISTACK
    | Stack used (prev) :  0000107A 000000A1
  01  osal_bm_adjust_header::?relay
      | Stack used (prev) :  0000107A 000000A1
      | + function block  :  00000000 00000000
  <-Sub-tree of type: Function tree
    | Stack used          :  0000107A 000000A1


  ->Sub-tree of type: Function tree
                             XSTACK   ISTACK
    | Stack used (prev) :  0000107A 000000A1
  01  bm_desc_from_payload::?relay
      | Stack used (prev) :  0000107A 000000A1
      | + function block  :  00000000 00000000
  <-Sub-tree of type: Function tree
    | Stack used          :  0000107A 000000A1


  ->Sub-tree of type: Function tree
                             XSTACK   ISTACK
    | Stack used (prev) :  0000107A 000000A1
  01  osal_CbTimerProcessEvent
      | Stack used (prev) :  0000107A 000000A1
      | + function block  :  0000000F 00000000
  <-Sub-tree of type: Function tree
    | Stack used          :  00001089 000000A1


  ->Sub-tree of type: Function tree
                             XSTACK   ISTACK
    | Stack used (prev) :  00001089 000000A1
  01  osal_CbTimerInit::?relay
      | Stack used (prev) :  00001089 000000A1
      | + function block  :  00000000 00000000
  <-Sub-tree of type: Function tree
    | Stack used          :  00001089 000000A1


  ->Sub-tree of type: Function tree
                             XSTACK   ISTACK
    | Stack used (prev) :  00001089 000000A1
  01  osal_CbTimerProcessEvent::?relay
      | Stack used (prev) :  00001089 000000A1
      | + function block  :  00000000 00000000
  <-Sub-tree of type: Function tree
    | Stack used          :  00001089 000000A1


  ->Sub-tree of type: Function tree
                             XSTACK   ISTACK
    | Stack used (prev) :  00001089 000000A1
  01  osal_CbTimerStart::?relay
      | Stack used (prev) :  00001089 000000A1
      | + function block  :  00000000 00000000
  <-Sub-tree of type: Function tree
    | Stack used          :  00001089 000000A1


  ->Sub-tree of type: Function tree
                             XSTACK   ISTACK
    | Stack used (prev) :  00001089 000000A1
  01  osal_CbTimerStop::?relay
      | Stack used (prev) :  00001089 000000A1
      | + function block  :  00000000 00000000
  <-Sub-tree of type: Function tree
    | Stack used          :  00001089 000000A1


  ->Sub-tree of type: Function tree
                             XSTACK   ISTACK
    | Stack used (prev) :  00001089 000000A1
  01  initNV::?relay
      | Stack used (prev) :  00001089 000000A1
      | + function block  :  00000000 00000000
  <-Sub-tree of type: Function tree
    | Stack used          :  00001089 000000A1


  ->Sub-tree of type: Function tree
                             XSTACK   ISTACK
    | Stack used (prev) :  00001089 000000A1
  01  setActivePage::?relay
      | Stack used (prev) :  00001089 000000A1
      | + function block  :  00000000 00000000
  <-Sub-tree of type: Function tree
    | Stack used          :  00001089 000000A1


  ->Sub-tree of type: Function tree
                             XSTACK   ISTACK
    | Stack used (prev) :  00001089 000000A1
  01  setXferPage::?relay
      | Stack used (prev) :  00001089 000000A1
      | + function block  :  00000000 00000000
  <-Sub-tree of type: Function tree
    | Stack used          :  00001089 000000A1


  ->Sub-tree of type: Function tree
                             XSTACK   ISTACK
    | Stack used (prev) :  00001089 000000A1
  01  erasePage::?relay
      | Stack used (prev) :  00001089 000000A1
      | + function block  :  00000000 00000000
  <-Sub-tree of type: Function tree
    | Stack used          :  00001089 000000A1


  ->Sub-tree of type: Function tree
                             XSTACK   ISTACK
    | Stack used (prev) :  00001089 000000A1
  01  cleanErasedPage::?relay
      | Stack used (prev) :  00001089 000000A1
      | + function block  :  00000000 00000000
  <-Sub-tree of type: Function tree
    | Stack used          :  00001089 000000A1


  ->Sub-tree of type: Function tree
                             XSTACK   ISTACK
    | Stack used (prev) :  00001089 000000A1
  01  findOffset::?relay
      | Stack used (prev) :  00001089 000000A1
      | + function block  :  00000000 00000000
  <-Sub-tree of type: Function tree
    | Stack used          :  00001089 000000A1


  ->Sub-tree of type: Function tree
                             XSTACK   ISTACK
    | Stack used (prev) :  00001089 000000A1
  01  findItem::?relay
      | Stack used (prev) :  00001089 000000A1
      | + function block  :  00000000 00000000
  <-Sub-tree of type: Function tree
    | Stack used          :  00001089 000000A1


  ->Sub-tree of type: Function tree
                             XSTACK   ISTACK
    | Stack used (prev) :  00001089 000000A1
  01  writeItem::?relay
      | Stack used (prev) :  00001089 000000A1
      | + function block  :  00000000 00000000
  <-Sub-tree of type: Function tree
    | Stack used          :  00001089 000000A1


  ->Sub-tree of type: Function tree
                             XSTACK   ISTACK
    | Stack used (prev) :  00001089 000000A1
  01  compactPage::?relay
      | Stack used (prev) :  00001089 000000A1
      | + function block  :  00000000 00000000
  <-Sub-tree of type: Function tree
    | Stack used          :  00001089 000000A1


  ->Sub-tree of type: Function tree
                             XSTACK   ISTACK
    | Stack used (prev) :  00001089 000000A1
  01  verifyWordM::?relay
      | Stack used (prev) :  00001089 000000A1
      | + function block  :  00000000 00000000
  <-Sub-tree of type: Function tree
    | Stack used          :  00001089 000000A1


  ->Sub-tree of type: Function tree
                             XSTACK   ISTACK
    | Stack used (prev) :  00001089 000000A1
  01  writeWord::?relay
      | Stack used (prev) :  00001089 000000A1
      | + function block  :  00000000 00000000
  <-Sub-tree of type: Function tree
    | Stack used          :  00001089 000000A1


  ->Sub-tree of type: Function tree
                             XSTACK   ISTACK
    | Stack used (prev) :  00001089 000000A1
  01  osal_snv_init::?relay
      | Stack used (prev) :  00001089 000000A1
      | + function block  :  00000000 00000000
  <-Sub-tree of type: Function tree
    | Stack used          :  00001089 000000A1


  ->Sub-tree of type: Function tree
                             XSTACK   ISTACK
    | Stack used (prev) :  00001089 000000A1
  01  osal_snv_write::?relay
      | Stack used (prev) :  00001089 000000A1
      | + function block  :  00000000 00000000
  <-Sub-tree of type: Function tree
    | Stack used          :  00001089 000000A1


  ->Sub-tree of type: Function tree
                             XSTACK   ISTACK
    | Stack used (prev) :  00001089 000000A1
  01  osal_snv_read::?relay
      | Stack used (prev) :  00001089 000000A1
      | + function block  :  00000000 00000000
  <-Sub-tree of type: Function tree
    | Stack used          :  00001089 000000A1


  ->Sub-tree of type: Function tree
                             XSTACK   ISTACK
    | Stack used (prev) :  00001089 000000A1
  01  osal_snv_compact::?relay
      | Stack used (prev) :  00001089 000000A1
      | + function block  :  00000000 00000000
  <-Sub-tree of type: Function tree
    | Stack used          :  00001089 000000A1


  ->Sub-tree of type: Function tree
                             XSTACK   ISTACK
    | Stack used (prev) :  00001089 000000A1
  04        osal_start_timerEx
            | Stack used (prev) :  0000004A 00000002
            | + function block  :  00000024 00000000
            |  Already listed
  06            osal_CbTimerStart
                | Stack used (prev) :  000003F2 0000005A
                | + function block  :  0000001B 00000001
                |  Already listed
  06            linkDB_State
                | Stack used (prev) :  00000406 0000005C
                | + function block  :  00000014 00000000
                |  Already listed
  06            l2capFreeChannel
                | Stack used (prev) :  000003F2 0000005A
                | + function block  :  00000012 00000002
                |  Already listed
  06            l2capAllocChannel
                | Stack used (prev) :  00001089 000000A1
                | + function block  :  0000001E 00000001
  06            l2capSendCmd
                | Stack used (prev) :  000007E9 00000075
                | + function block  :  0000002C 00000001
                |  Already listed
  05          l2capSendReq
              | Stack used (prev) :  000010A7 000000A1
              | + function block  :  00000028 00000001
  04        L2CAP_ConnParamUpdateReq
            | Stack used (prev) :  000010CF 000000A2
            | + function block  :  0000001C 00000000
  04        GAP_GetParamValue
            | Stack used (prev) :  000003F2 0000005A
            | + function block  :  00000014 00000002
            |  Already listed
  03      gapRole_startConnUpdate
          | Stack used (prev) :  000010EB 000000A1
          | + function block  :  0000003E 00000002
  03      osal_stop_timerEx
          | Stack used (prev) :  000001C2 00000034
          | + function block  :  00000018 00000000
          |  Already listed
  02    GAPRole_SendUpdateParam
        | Stack used (prev) :  00001129 000000A3
        | + function block  :  00000032 00000000
  02    gapRole_startConnUpdate
        | Stack used (prev) :  000010EB 000000A1
        | + function block  :  0000003E 00000002
        |  Already listed
  04        osal_snv_write
            | Stack used (prev) :  0000050B 0000005C
            | + function block  :  00000022 00000000
            |  Already listed
  04        GAPBondMgr_ProcessGAPMsg
            | Stack used (prev) :  00000F6D 0000009F
            | + function block  :  00000054 00000000
            |  Already listed
  05          osal_snv_read
              | Stack used (prev) :  00000442 0000005B
              | + function block  :  00000018 00000000
              |  Already listed
  06            osal_snv_read
                | Stack used (prev) :  00000442 0000005B
                | + function block  :  00000018 00000000
                |  Already listed
  06            osal_memset
                | Stack used (prev) :  000003F4 0000005C
                | + function block  :  00000018 00000000
                |  Already listed
  07              osal_mem_free
                  | Stack used (prev) :  00000000 00000000
                  | + function block  :  0000000A 00000002
                  |  Already listed
  07              osal_memdup
                  | Stack used (prev) :  000003F2 0000005A
                  | + function block  :  00000010 00000000
                  |  Already listed
  07              smStartEncryption
                  | Stack used (prev) :  00001089 000000A1
                  | + function block  :  00000016 00000000
  07              linkDB_Find
                  | Stack used (prev) :  000003F2 0000005A
                  | + function block  :  00000014 00000002
                  |  Already listed
  06            GAP_Bond
                | Stack used (prev) :  0000109F 000000A1
                | + function block  :  00000029 00000000
  05          gapBondMgrBondReq
              | Stack used (prev) :  000010C8 000000A1
              | + function block  :  00000097 00000000
  05          gapBondMgrInvertCharCfgItem
              | Stack used (prev) :  00000EC9 0000009D
              | + function block  :  0000004D 00000001
              |  Already listed
  05          GAPBondMgr_ResolveAddr
              | Stack used (prev) :  00000588 00000060
              | + function block  :  00000064 00000000
              |  Already listed
  05          osal_isbufset
              | Stack used (prev) :  000003F2 0000005A
              | + function block  :  0000000A 00000000
              |  Already listed
  05          osal_memset
              | Stack used (prev) :  000003F4 0000005C
              | + function block  :  00000018 00000000
              |  Already listed
  05          GATTServApp_SendServiceChangedInd
              | Stack used (prev) :  0000064F 0000005E
              | + function block  :  00000012 00000000
              |  Already listed
  06            GATTServApp_WriteAttr
                | Stack used (prev) :  000009E5 00000081
                | + function block  :  00000044 00000000
                |  Already listed
  05          GATTServApp_UpdateCharCfg
              | Stack used (prev) :  00001089 000000A1
              | + function block  :  00000014 00000001
  06            smSendSMMsg
                | Stack used (prev) :  000004AF 0000005E
                | + function block  :  00000028 00000000
                |  Already listed
  06            smUint8ToAuthReq
                | Stack used (prev) :  000003F2 0000005A
                | + function block  :  0000000A 00000000
                |  Already listed
  06            linkDB_Find
                | Stack used (prev) :  000003F2 0000005A
                | + function block  :  00000014 00000002
                |  Already listed
  05          GAP_SendSlaveSecurityRequest
              | Stack used (prev) :  00001089 000000A1
              | + function block  :  00000010 00000000
  06            osal_memcpy
                | Stack used (prev) :  00000000 00000000
                | + function block  :  00000019 00000001
                |  Already listed
  06            linkDB_Find
                | Stack used (prev) :  000003F2 0000005A
                | + function block  :  00000014 00000002
                |  Already listed
  05          GAP_Signable
              | Stack used (prev) :  00001089 000000A1
              | + function block  :  00000010 00000000
  04        GAPBondMgr_LinkEst
            | Stack used (prev) :  0000115F 000000A1
            | + function block  :  0000008B 00000002
  05          osalFindTimer
              | Stack used (prev) :  00000000 00000000
              | + function block  :  00000010 00000002
              |  Already listed
  04        osal_get_timeoutEx
            | Stack used (prev) :  00001089 000000A1
            | + function block  :  0000000E 00000000
  04        osal_stop_timerEx
            | Stack used (prev) :  000001C2 00000034
            | + function block  :  00000018 00000000
            |  Already listed
  04        osal_start_timerEx
            | Stack used (prev) :  0000004A 00000002
            | + function block  :  00000024 00000000
            |  Already listed
  04        osal_set_event
            | Stack used (prev) :  00000000 00000000
            | + function block  :  00000017 00000000
            |  Already listed
  04        osal_memset
            | Stack used (prev) :  000003F4 0000005C
            | + function block  :  00000018 00000000
            |  Already listed
  04        osal_memcpy
            | Stack used (prev) :  00000000 00000000
            | + function block  :  00000019 00000001
            |  Already listed
  04        GAP_EndDiscoverable
            | Stack used (prev) :  00000430 0000005C
            | + function block  :  0000001E 00000000
            |  Already listed
  05          osal_memset
              | Stack used (prev) :  000003F4 0000005C
              | + function block  :  00000018 00000000
              |  Already listed
  05          osal_memcpy
              | Stack used (prev) :  00000000 00000000
              | + function block  :  00000019 00000001
              |  Already listed
  07              osal_memcpy
                  | Stack used (prev) :  00000000 00000000
                  | + function block  :  00000019 00000001
                  |  Already listed
  06            LL_SetScanRspData
                | Stack used (prev) :  00001089 000000A1
                | + function block  :  0000000C 00000000
  06            HCI_CommandCompleteEvent
                | Stack used (prev) :  00000074 00000006
                | + function block  :  0000002B 00000000
                |  Already listed
  05          HCI_LE_SetScanRspDataCmd
              | Stack used (prev) :  00001095 000000A1
              | + function block  :  00000014 00000001
  07              osal_memcpy
                  | Stack used (prev) :  00000000 00000000
                  | + function block  :  00000019 00000001
                  |  Already listed
  06            LL_SetAdvData
                | Stack used (prev) :  00001089 000000A1
                | + function block  :  0000000C 00000000
  06            HCI_CommandCompleteEvent
                | Stack used (prev) :  00000074 00000006
                | + function block  :  0000002B 00000000
                |  Already listed
  05          HCI_LE_SetAdvDataCmd
              | Stack used (prev) :  00001095 000000A1
              | + function block  :  00000014 00000001
  04        GAP_UpdateAdvertisingData
            | Stack used (prev) :  000010A9 000000A1
            | + function block  :  00000024 00000001
  04        GAP_GetParamValue
            | Stack used (prev) :  000003F2 0000005A
            | + function block  :  00000014 00000002
            |  Already listed
  03      gapRole_ProcessGAPMsg
          | Stack used (prev) :  000011EA 000000A3
          | + function block  :  00000036 00000000
  03      GAPRole_TerminateConnection
          | Stack used (prev) :  000004A2 0000005D
          | + function block  :  00000016 00000004
          |  Already listed
  03      osal_stop_timerEx
          | Stack used (prev) :  000001C2 00000034
          | + function block  :  00000018 00000000
          |  Already listed
  03      osal_start_timerEx
          | Stack used (prev) :  0000004A 00000002
          | + function block  :  00000024 00000000
          |  Already listed
  03      GAP_GetParamValue
          | Stack used (prev) :  000003F2 0000005A
          | + function block  :  00000014 00000002
          |  Already listed
  02    gapRole_ProcessOSALMsg
        | Stack used (prev) :  00001220 000000A3
        | + function block  :  0000002E 00000000
  02    GAPRole_TerminateConnection
        | Stack used (prev) :  000004A2 0000005D
        | + function block  :  00000016 00000004
        |  Already listed
  02    osal_snv_write
        | Stack used (prev) :  0000050B 0000005C
        | + function block  :  00000022 00000000
        |  Already listed
  02    osal_start_timerEx
        | Stack used (prev) :  0000004A 00000002
        | + function block  :  00000024 00000000
        |  Already listed
  02    osal_msg_receive
        | Stack used (prev) :  00000806 00000075
        | + function block  :  00000020 00000000
        |  Already listed
  02    osal_msg_deallocate
        | Stack used (prev) :  0000000A 00000002
        | + function block  :  00000009 00000004
        |  Already listed
  02    osal_memcpy
        | Stack used (prev) :  00000000 00000000
        | + function block  :  00000019 00000001
        |  Already listed
  03      LL_ReadRssi
          | Stack used (prev) :  00001089 000000A1
          | + function block  :  00000000 00000003
  03      HCI_CommandCompleteEvent
          | Stack used (prev) :  00000074 00000006
          | + function block  :  0000002B 00000000
          |  Already listed
  02    HCI_ReadRssiCmd
        | Stack used (prev) :  00001089 000000A4
        | + function block  :  0000001A 00000000
  03      osal_start_reload_timer
          | Stack used (prev) :  000003F2 0000005A
          | + function block  :  00000016 00000000
          |  Already listed
  03      osal_mem_alloc
          | Stack used (prev) :  00000000 00000000
          | + function block  :  00000018 00000000
          |  Already listed
  03      osal_memcpy
          | Stack used (prev) :  00000000 00000000
          | + function block  :  00000019 00000001
          |  Already listed
  03      GAP_NumActiveConnections
          | Stack used (prev) :  000003F2 0000005C
          | + function block  :  00000000 00000004
          |  Already listed
  03      gapFreeAdvertState
          | Stack used (prev) :  000003F2 0000005A
          | + function block  :  00000014 00000002
          |  Already listed
  03      gapSetAdvParams
          | Stack used (prev) :  00000458 00000060
          | + function block  :  00000028 00000000
          |  Already listed
  03      GAP_GetParamValue
          | Stack used (prev) :  000003F2 0000005A
          | + function block  :  00000014 00000002
          |  Already listed
  02    GAP_MakeDiscoverable
        | Stack used (prev) :  00001089 000000A1
        | + function block  :  00000010 00000001
  01  GAPRole_ProcessEvent
      | Stack used (prev) :  0000124E 000000A4
      | + function block  :  0000002C 00000000
  <-Sub-tree of type: Function tree
    | Stack used          :  0000127A 000000A4


  ->Sub-tree of type: Function tree
                             XSTACK   ISTACK
    | Stack used (prev) :  0000127A 000000A4
  01  GAPRole_SetParameter::?relay
      | Stack used (prev) :  0000127A 000000A4
      | + function block  :  00000000 00000000
  <-Sub-tree of type: Function tree
    | Stack used          :  0000127A 000000A4


  ->Sub-tree of type: Function tree
                             XSTACK   ISTACK
    | Stack used (prev) :  0000127A 000000A4
  01  GAPRole_GetParameter::?relay
      | Stack used (prev) :  0000127A 000000A4
      | + function block  :  00000000 00000000
  <-Sub-tree of type: Function tree
    | Stack used          :  0000127A 000000A4


  ->Sub-tree of type: Function tree
                             XSTACK   ISTACK
    | Stack used (prev) :  0000127A 000000A4
  01  GAPRole_StartDevice::?relay
      | Stack used (prev) :  0000127A 000000A4
      | + function block  :  00000000 00000000
  <-Sub-tree of type: Function tree
    | Stack used          :  0000127A 000000A4


  ->Sub-tree of type: Function tree
                             XSTACK   ISTACK
    | Stack used (prev) :  0000127A 000000A4
  01  GAPRole_TerminateConnection::?relay
      | Stack used (prev) :  0000127A 000000A4
      | + function block  :  00000000 00000000
  <-Sub-tree of type: Function tree
    | Stack used          :  0000127A 000000A4


  ->Sub-tree of type: Function tree
                             XSTACK   ISTACK
    | Stack used (prev) :  0000127A 000000A4
  01  GAPRole_Init::?relay
      | Stack used (prev) :  0000127A 000000A4
      | + function block  :  00000000 00000000
  <-Sub-tree of type: Function tree
    | Stack used          :  0000127A 000000A4


  ->Sub-tree of type: Function tree
                             XSTACK   ISTACK
    | Stack used (prev) :  0000127A 000000A4
  01  GAPRole_ProcessEvent::?relay
      | Stack used (prev) :  0000127A 000000A4
      | + function block  :  00000000 00000000
  <-Sub-tree of type: Function tree
    | Stack used          :  0000127A 000000A4


  ->Sub-tree of type: Function tree
                             XSTACK   ISTACK
    | Stack used (prev) :  0000127A 000000A4
  01  gapRole_ProcessOSALMsg::?relay
      | Stack used (prev) :  0000127A 000000A4
      | + function block  :  00000000 00000000
  <-Sub-tree of type: Function tree
    | Stack used          :  0000127A 000000A4


  ->Sub-tree of type: Function tree
                             XSTACK   ISTACK
    | Stack used (prev) :  0000127A 000000A4
  01  gapRole_ProcessGAPMsg::?relay
      | Stack used (prev) :  0000127A 000000A4
      | + function block  :  00000000 00000000
  <-Sub-tree of type: Function tree
    | Stack used          :  0000127A 000000A4


  ->Sub-tree of type: Function tree
                             XSTACK   ISTACK
    | Stack used (prev) :  0000127A 000000A4
  01  gapRole_startConnUpdate::?relay
      | Stack used (prev) :  0000127A 000000A4
      | + function block  :  00000000 00000000
  <-Sub-tree of type: Function tree
    | Stack used          :  0000127A 000000A4


  ->Sub-tree of type: Function tree
                             XSTACK   ISTACK
    | Stack used (prev) :  0000127A 000000A4
  01  GAPRole_SendUpdateParam::?relay
      | Stack used (prev) :  0000127A 000000A4
      | + function block  :  00000000 00000000
  <-Sub-tree of type: Function tree
    | Stack used          :  0000127A 000000A4


  ->Sub-tree of type: Function tree
                             XSTACK   ISTACK
    | Stack used (prev) :  0000127A 000000A4
  05          smRegisterResponder
              | Stack used (prev) :  0000127A 000000A4
              | + function block  :  00000000 00000002
  04        SM_ResponderInit
            | Stack used (prev) :  0000127A 000000A6
            | + function block  :  00000000 00000004
  05          osal_mem_free
              | Stack used (prev) :  00000000 00000000
              | + function block  :  0000000A 00000002
              |  Already listed
  05          osal_mem_alloc
              | Stack used (prev) :  00000000 00000000
              | + function block  :  00000018 00000000
              |  Already listed
  05          osal_memset
              | Stack used (prev) :  000003F4 0000005C
              | + function block  :  00000018 00000000
              |  Already listed
  05          gapRegisterPeripheral
              | Stack used (prev) :  0000127A 000000A4
              | + function block  :  00000000 00000002
  04        GAP_PeriDevMgrInit
            | Stack used (prev) :  0000127A 000000A6
            | + function block  :  00000012 00000000
  05          osal_isbufset
              | Stack used (prev) :  000003F2 0000005A
              | + function block  :  0000000A 00000000
              |  Already listed
  05          smGenerateRandBuf
              | Stack used (prev) :  0000040A 00000064
              | + function block  :  00000027 00000000
              |  Already listed
  04        GAP_SecParamsInit
            | Stack used (prev) :  0000127A 000000A4
            | + function block  :  0000000B 00000000
  05          osal_memset
              | Stack used (prev) :  000003F4 0000005C
              | + function block  :  00000018 00000000
              |  Already listed
  06            LL_ReadBDADDR
                | Stack used (prev) :  0000127A 000000A4
                | + function block  :  00000000 00000003
  06            HCI_CommandCompleteEvent
                | Stack used (prev) :  00000074 00000006
                | + function block  :  0000002B 00000000
                |  Already listed
  05          HCI_ReadBDADDRCmd
              | Stack used (prev) :  0000127A 000000A7
              | + function block  :  0000000E 00000004
  04        GAP_ParamsInit
            | Stack used (prev) :  00001288 000000AB
            | + function block  :  00000012 00000000
  03      GAP_DeviceInit
          | Stack used (prev) :  0000129A 000000AB
          | + function block  :  00000022 00000000
  02    GAPRole_StartDevice
        | Stack used (prev) :  000012BC 000000AB
        | + function block  :  0000001C 00000000
  02    Recursive system consisting of
         | HalLedBlink
         | HalLedSet
        | Stack used (prev) :  00000FFA 0000009F
        | + function block  :  0000003A 00000002
        |  Already listed
  02    Recursive system consisting of
         | HalLcdWriteString
        | Stack used (prev) :  0000027A 0000004C
        | + function block  :  00000051 00000000
        |  Already listed
  03      GATTServApp_RegisterForMsg
          | Stack used (prev) :  0000127A 000000A4
          | + function block  :  00000000 00000002
  03      GAP_SetParamValue
          | Stack used (prev) :  000003F2 0000005A
          | + function block  :  00000000 00000002
          |  Already listed
  02    GAPBondMgr_Register
        | Stack used (prev) :  0000127A 000000A6
        | + function block  :  00000000 00000004
  03      HalLcdWriteStringValue
          | Stack used (prev) :  0000047B 0000005C
          | + function block  :  00000057 00000000
          |  Already listed
  03      Recursive system consisting of
           | HalLcdWriteString
          | Stack used (prev) :  0000027A 0000004C
          | + function block  :  00000051 00000000
          |  Already listed
  03      battMeasure
          | Stack used (prev) :  000003FC 0000005A
          | + function block  :  0000001F 00000002
          |  Already listed
  02    Batt_MeasLevel
        | Stack used (prev) :  0000127A 000000A4
        | + function block  :  0000000A 00000000
  03      osal_snv_write
          | Stack used (prev) :  0000050B 0000005C
          | + function block  :  00000022 00000000
          |  Already listed
  03      GAPBondMgr_SetParameter
          | Stack used (prev) :  0000060B 00000064
          | + function block  :  0000002C 00000000
          |  Already listed
  03      GGS_SetParameter
          | Stack used (prev) :  0000040C 0000005C
          | + function block  :  0000001C 00000000
          |  Already listed
  02    set_de_passkey
        | Stack used (prev) :  0000127A 000000A4
        | + function block  :  0000001B 00000000
  02    delay_nus
        | Stack used (prev) :  0000127A 000000A4
        | + function block  :  0000000C 00000000
  02    osal_start_timerEx
        | Stack used (prev) :  0000004A 00000002
        | + function block  :  00000024 00000000
        |  Already listed
  02    osal_msg_receive
        | Stack used (prev) :  00000806 00000075
        | + function block  :  00000020 00000000
        |  Already listed
  02    osal_msg_deallocate
        | Stack used (prev) :  0000000A 00000002
        | + function block  :  00000009 00000004
        |  Already listed
  01  SimpleBLEPeripheral_ProcessEvent
      | Stack used (prev) :  000012D8 000000AB
      | + function block  :  00000018 00000000
  <-Sub-tree of type: Function tree
    | Stack used          :  000012F0 000000AB


  ->Sub-tree of type: Function tree
                             XSTACK   ISTACK
    | Stack used (prev) :  000012F0 000000AB
  01  simpleBLEPeripheralPairStateCB::?relay
      | Stack used (prev) :  000012F0 000000AB
      | + function block  :  00000000 00000000
  <-Sub-tree of type: Function tree
    | Stack used          :  000012F0 000000AB


  ->Sub-tree of type: Function tree
                             XSTACK   ISTACK
    | Stack used (prev) :  000012F0 000000AB
  01  SimpleBLEPeripheral_Init::?relay
      | Stack used (prev) :  000012F0 000000AB
      | + function block  :  00000000 00000000
  <-Sub-tree of type: Function tree
    | Stack used          :  000012F0 000000AB


  ->Sub-tree of type: Function tree
                             XSTACK   ISTACK
    | Stack used (prev) :  000012F0 000000AB
  01  SimpleBLEPeripheral_ProcessEvent::?relay
      | Stack used (prev) :  000012F0 000000AB
      | + function block  :  00000000 00000000
  <-Sub-tree of type: Function tree
    | Stack used          :  000012F0 000000AB


  ->Sub-tree of type: Function tree
                             XSTACK   ISTACK
    | Stack used (prev) :  000012F0 000000AB
  01  peripheralStateNotificationCB::?relay
      | Stack used (prev) :  000012F0 000000AB
      | + function block  :  00000000 00000000
  <-Sub-tree of type: Function tree
    | Stack used          :  000012F0 000000AB


  ->Sub-tree of type: Function tree
                             XSTACK   ISTACK
    | Stack used (prev) :  000012F0 000000AB
  01  simpleProfileChangeCB::?relay
      | Stack used (prev) :  000012F0 000000AB
      | + function block  :  00000000 00000000
  <-Sub-tree of type: Function tree
    | Stack used          :  000012F0 000000AB


  ->Sub-tree of type: Function tree
                             XSTACK   ISTACK
    | Stack used (prev) :  000012F0 000000AB
  01  bdAddr2Str::?relay
      | Stack used (prev) :  000012F0 000000AB
      | + function block  :  00000000 00000000
  <-Sub-tree of type: Function tree
    | Stack used          :  000012F0 000000AB


  ->Sub-tree of type: Function tree
                             XSTACK   ISTACK
    | Stack used (prev) :  000012F0 000000AB
  01  SimpleProfile_AddService::?relay
      | Stack used (prev) :  000012F0 000000AB
      | + function block  :  00000000 00000000
  <-Sub-tree of type: Function tree
    | Stack used          :  000012F0 000000AB


  ->Sub-tree of type: Function tree
                             XSTACK   ISTACK
    | Stack used (prev) :  000012F0 000000AB
  01  SimpleProfile_RegisterAppCBs::?relay
      | Stack used (prev) :  000012F0 000000AB
      | + function block  :  00000000 00000000
  <-Sub-tree of type: Function tree
    | Stack used          :  000012F0 000000AB


  ->Sub-tree of type: Function tree
                             XSTACK   ISTACK
    | Stack used (prev) :  000012F0 000000AB
  01  SimpleProfile_SetParameter::?relay
      | Stack used (prev) :  000012F0 000000AB
      | + function block  :  00000000 00000000
  <-Sub-tree of type: Function tree
    | Stack used          :  000012F0 000000AB


  ->Sub-tree of type: Function tree
                             XSTACK   ISTACK
    | Stack used (prev) :  000012F0 000000AB
  01  SimpleProfile_GetParameter::?relay
      | Stack used (prev) :  000012F0 000000AB
      | + function block  :  00000000 00000000
  <-Sub-tree of type: Function tree
    | Stack used          :  000012F0 000000AB


  ->Sub-tree of type: Function tree
                             XSTACK   ISTACK
    | Stack used (prev) :  000012F0 000000AB
  01  simpleProfile_ReadAttrCB::?relay
      | Stack used (prev) :  000012F0 000000AB
      | + function block  :  00000000 00000000
  <-Sub-tree of type: Function tree
    | Stack used          :  000012F0 000000AB


  ->Sub-tree of type: Function tree
                             XSTACK   ISTACK
    | Stack used (prev) :  000012F0 000000AB
  01  simpleProfile_WriteAttrCB::?relay
      | Stack used (prev) :  000012F0 000000AB
      | + function block  :  00000000 00000000
  <-Sub-tree of type: Function tree
    | Stack used          :  000012F0 000000AB


  ->Sub-tree of type: Function tree
                             XSTACK   ISTACK
    | Stack used (prev) :  000012F0 000000AB
  01  simpleProfile_HandleConnStatusCB::?relay
      | Stack used (prev) :  000012F0 000000AB
      | + function block  :  00000000 00000000
  <-Sub-tree of type: Function tree
    | Stack used          :  000012F0 000000AB


  ->Sub-tree of type: Function tree
                             XSTACK   ISTACK
    | Stack used (prev) :  000012F0 000000AB
  02    exit
        | Stack used (prev) :  000012F0 000000AB
        | + function block  :  00000000 00000000
  01  ?cmain
      | Stack used (prev) :  000012F0 000000AB
      | + function block  :  00000000 00000000
  <-Sub-tree of type: Function tree
    | Stack used          :  000012F0 000000AB


  ->Sub-tree of type: Function tree
                             XSTACK   ISTACK
    | Stack used (prev) :  000012F0 000000AB
  02    __low_level_init
        | Stack used (prev) :  000012F0 000000AB
        | + function block  :  00000000 00000000
  05          compactPage
              | Stack used (prev) :  000004BB 0000005C
              | + function block  :  00000050 00000000
              |  Already listed
  06            HalFlashRead
                | Stack used (prev) :  000003F2 0000005A
                | + function block  :  0000000E 00000001
                |  Already listed
  05          findOffset
              | Stack used (prev) :  000012F0 000000AB
              | + function block  :  00000022 00000000
  05          findOffset
              | Stack used (prev) :  000012F0 000000AB
              | + function block  :  00000022 00000000
              |  Already listed
  06            erasePage
                | Stack used (prev) :  00000400 0000005C
                | + function block  :  0000003C 00000000
                |  Already listed
  06            HalFlashRead
                | Stack used (prev) :  000003F2 0000005A
                | + function block  :  0000000E 00000001
                |  Already listed
  05          cleanErasedPage
              | Stack used (prev) :  000012F0 000000AB
              | + function block  :  0000001F 00000000
  05          cleanErasedPage
              | Stack used (prev) :  000012F0 000000AB
              | + function block  :  0000001F 00000000
              |  Already listed
  05          cleanErasedPage
              | Stack used (prev) :  000012F0 000000AB
              | + function block  :  0000001F 00000000
              |  Already listed
  05          erasePage
              | Stack used (prev) :  00000400 0000005C
              | + function block  :  0000003C 00000000
              |  Already listed
  05          setActivePage
              | Stack used (prev) :  00000483 0000005B
              | + function block  :  00000038 00000000
              |  Already listed
  05          HalFlashRead
              | Stack used (prev) :  000003F2 0000005A
              | + function block  :  0000000E 00000001
              |  Already listed
  04        initNV
            | Stack used (prev) :  00001312 000000AB
            | + function block  :  00000020 00000000
  03      osal_snv_init
          | Stack used (prev) :  00001332 000000AB
          | + function block  :  00000000 00000004
  06            memset
                | Stack used (prev) :  000003F2 0000005A
                | + function block  :  00000002 00000002
                |  Already listed
  05          HalUARTInitDMA
              | Stack used (prev) :  000012F0 000000AB
              | + function block  :  0000000D 00000001
  04        HalUARTInit
            | Stack used (prev) :  000012FD 000000AC
            | + function block  :  00000000 00000004
  05          Recursive system consisting of
               | HalLedBlink
               | HalLedSet
              | Stack used (prev) :  00000FFA 0000009F
              | + function block  :  0000003A 00000002
              |  Already listed
  04        HalLedInit
            | Stack used (prev) :  000012F0 000000AB
            | + function block  :  00000000 00000002
  06            HalLcd_HW_WaitUs
                | Stack used (prev) :  000001EA 00000046
                | + function block  :  00000009 00000000
                |  Already listed
  06            HalLcd_HW_WaitUs
                | Stack used (prev) :  000001EA 00000046
                | + function block  :  00000009 00000000
                |  Already listed
  06            HalLcd_HW_WaitUs
                | Stack used (prev) :  000001EA 00000046
                | + function block  :  00000009 00000000
                |  Already listed
  06            HalLcd_HW_WaitUs
                | Stack used (prev) :  000001EA 00000046
                | + function block  :  00000009 00000000
                |  Already listed
  06            HalLcd_HW_WaitUs
                | Stack used (prev) :  000001EA 00000046
                | + function block  :  00000009 00000000
                |  Already listed
  06            HalLcd_HW_WaitUs
                | Stack used (prev) :  000001EA 00000046
                | + function block  :  00000009 00000000
                |  Already listed
  06            HalLcd_HW_WaitUs
                | Stack used (prev) :  000001EA 00000046
                | + function block  :  00000009 00000000
                |  Already listed
  06            HalLcd_HW_WaitUs
                | Stack used (prev) :  000001EA 00000046
                | + function block  :  00000009 00000000
                |  Already listed
  06            HalLcd_HW_WaitUs
                | Stack used (prev) :  000001EA 00000046
                | + function block  :  00000009 00000000
                |  Already listed
  06            HalLcd_HW_WaitUs
                | Stack used (prev) :  000001EA 00000046
                | + function block  :  00000009 00000000
                |  Already listed
  06            HalLcd_HW_WaitUs
                | Stack used (prev) :  000001EA 00000046
                | + function block  :  00000009 00000000
                |  Already listed
  06            HalLcd_HW_WaitUs
                | Stack used (prev) :  000001EA 00000046
                | + function block  :  00000009 00000000
                |  Already listed
  06            HalLcd_HW_WaitUs
                | Stack used (prev) :  000001EA 00000046
                | + function block  :  00000009 00000000
                |  Already listed
  07              HalLcd_HW_Write
                  | Stack used (prev) :  000001EA 00000046
                  | + function block  :  0000000D 00000000
                  |  Already listed
  07              set_ddram_line_col
                  | Stack used (prev) :  000001F3 00000046
                  | + function block  :  0000001F 00000000
                  |  Already listed
  06            HalLcd_HW_Clear
                | Stack used (prev) :  000012F0 000000AB
                | + function block  :  00000009 00000000
  06            HalLcd_HW_Control
                | Stack used (prev) :  000001EA 00000046
                | + function block  :  00000009 00000000
                |  Already listed
  06            HalLcd_HW_Control
                | Stack used (prev) :  000001EA 00000046
                | + function block  :  00000009 00000000
                |  Already listed
  06            HalLcd_HW_Control
                | Stack used (prev) :  000001EA 00000046
                | + function block  :  00000009 00000000
                |  Already listed
  06            HalLcd_HW_Control
                | Stack used (prev) :  000001EA 00000046
                | + function block  :  00000009 00000000
                |  Already listed
  06            HalLcd_HW_Control
                | Stack used (prev) :  000001EA 00000046
                | + function block  :  00000009 00000000
                |  Already listed
  06            HalLcd_HW_Control
                | Stack used (prev) :  000001EA 00000046
                | + function block  :  00000009 00000000
                |  Already listed
  06            HalLcd_HW_Control
                | Stack used (prev) :  000001EA 00000046
                | + function block  :  00000009 00000000
                |  Already listed
  06            HalLcd_HW_Control
                | Stack used (prev) :  000001EA 00000046
                | + function block  :  00000009 00000000
                |  Already listed
  06            HalLcd_HW_Control
                | Stack used (prev) :  000001EA 00000046
                | + function block  :  00000009 00000000
                |  Already listed
  06            HalLcd_HW_Control
                | Stack used (prev) :  000001EA 00000046
                | + function block  :  00000009 00000000
                |  Already listed
  06            HalLcd_HW_Control
                | Stack used (prev) :  000001EA 00000046
                | + function block  :  00000009 00000000
                |  Already listed
  06            HalLcd_HW_Control
                | Stack used (prev) :  000001EA 00000046
                | + function block  :  00000009 00000000
                |  Already listed
  06            HalLcd_HW_Control
                | Stack used (prev) :  000001EA 00000046
                | + function block  :  00000009 00000000
                |  Already listed
  05          HalLcd_HW_Init
              | Stack used (prev) :  000012F9 000000AB
              | + function block  :  00000000 00000004
  04        HalLcdInit
            | Stack used (prev) :  000012F9 000000AF
            | + function block  :  00000000 00000004
  04        HalKeyInit
            | Stack used (prev) :  000012F0 000000AB
            | + function block  :  00000000 00000002
  04        HalDmaInit
            | Stack used (prev) :  000012F0 000000AB
            | + function block  :  00000000 00000000
  05          aesDmaInit
              | Stack used (prev) :  000012F0 000000AB
              | + function block  :  00000000 00000002
  04        HalAesInit
            | Stack used (prev) :  000012F0 000000AD
            | + function block  :  00000000 00000004
  04        HalAdcInit
            | Stack used (prev) :  000012F0 000000AB
            | + function block  :  00000000 00000002
  03      HalDriverInit
          | Stack used (prev) :  000012FD 000000B3
          | + function block  :  00000000 00000004
  04        Recursive system consisting of
             | HalLedBlink
             | HalLedSet
            | Stack used (prev) :  00000FFA 0000009F
            | + function block  :  0000003A 00000002
            |  Already listed
  04        HalKeyConfig
            | Stack used (prev) :  000003F2 0000005A
            | + function block  :  00000009 00000000
            |  Already listed
  04        osal_int_disable
            | Stack used (prev) :  000012F0 000000AB
            | + function block  :  00000000 00000000
  03      InitBoard
          | Stack used (prev) :  000012F0 000000AB
          | + function block  :  00000012 00000000
  03      osal_pwrmgr_device
          | Stack used (prev) :  00000C47 00000086
          | + function block  :  00000000 00000002
          |  Already listed
  09                  HalUARTRxAvailDMA
                      | Stack used (prev) :  000003F2 0000005A
                      | + function block  :  0000000A 00000002
                      |  Already listed
  08                HalUARTBusyDMA
                    | Stack used (prev) :  000012F0 000000AB
                    | + function block  :  00000014 00000000
  08                HalUARTBusyDMA
                    | Stack used (prev) :  000012F0 000000AB
                    | + function block  :  00000014 00000000
                    |  Already listed
  08                HalUARTRxAvailDMA
                    | Stack used (prev) :  000003F2 0000005A
                    | + function block  :  0000000A 00000002
                    |  Already listed
  08                osal_set_event
                    | Stack used (prev) :  00000000 00000000
                    | + function block  :  00000017 00000000
                    |  Already listed
  07              HalUARTPollDMA
                  | Stack used (prev) :  00001304 000000AB
                  | + function block  :  00000014 00000000
  06            HalUARTPoll
                | Stack used (prev) :  00001318 000000AB
                | + function block  :  00000000 00000004
  05          Hal_ProcessPoll
              | Stack used (prev) :  00001318 000000AF
              | + function block  :  00000000 00000004
  07              halSleepReadTimer
                  | Stack used (prev) :  000012F0 000000AB
                  | + function block  :  0000001C 00000003
  07              halSleepSetTimer
                  | Stack used (prev) :  000012F0 000000AB
                  | + function block  :  0000002C 00000000
  07              halSleepSetTimer
                  | Stack used (prev) :  000012F0 000000AB
                  | + function block  :  0000002C 00000000
                  |  Already listed
  07              halSetSleepMode
                  | Stack used (prev) :  000012F0 000000AB
                  | + function block  :  00000018 00000000
  08                HalLedOnOff
                    | Stack used (prev) :  00000FE1 0000009F
                    | + function block  :  00000019 00000002
                    |  Already listed
  08                HalLedUpdate
                    | Stack used (prev) :  00001034 000000A1
                    | + function block  :  00000032 00000000
                    |  Already listed
  07              HalLedExitSleep
                  | Stack used (prev) :  000012F0 000000AB
                  | + function block  :  00000000 00000002
  08                HalLedOnOff
                    | Stack used (prev) :  00000FE1 0000009F
                    | + function block  :  00000019 00000002
                    |  Already listed
  07              HalLedEnterSleep
                  | Stack used (prev) :  000012F0 000000AB
                  | + function block  :  00000000 00000002
  09                  halGetJoyKeyInput
                      | Stack used (prev) :  00000FE1 0000009F
                      | + function block  :  00000012 00000000
                      |  Already listed
  08                HalKeyRead
                    | Stack used (prev) :  000012F0 000000AB
                    | + function block  :  00000009 00000000
  07              HalKeyExitSleep
                  | Stack used (prev) :  000012F9 000000AB
                  | + function block  :  00000000 00000004
  07              HalKeyEnterSleep
                  | Stack used (prev) :  000012F0 000000AB
                  | + function block  :  00000000 00000000
  08                osal_pwrmgr_task_state
                    | Stack used (prev) :  000003CC 00000052
                    | + function block  :  0000000A 00000000
                    |  Already listed
  08                osal_set_event
                    | Stack used (prev) :  00000000 00000000
                    | + function block  :  00000017 00000000
                    |  Already listed
  08                PHY_Reset
                    | Stack used (prev) :  00000000 00000000
                    | + function block  :  00000000 00000002
                    |  Already listed
  08                llStartTimer2
                    | Stack used (prev) :  000012F0 000000AB
                    | + function block  :  00000000 00000000
  08                llGetCurrentTask
                    | Stack used (prev) :  000001B6 00000032
                    | + function block  :  00000000 00000002
                    |  Already listed
  08                llExtendRfRange
                    | Stack used (prev) :  00000000 00000000
                    | + function block  :  00000008 00000002
                    |  Already listed
  08                llSetFreqTune
                    | Stack used (prev) :  000012F0 000000AB
                    | + function block  :  00000000 00000002
  07              LL_PowerOnReq
                  | Stack used (prev) :  000012F0 000000AD
                  | + function block  :  00000012 00000000
  08                PHY_Reset
                    | Stack used (prev) :  00000000 00000000
                    | + function block  :  00000000 00000002
                    |  Already listed
  08                llStopTimer2
                    | Stack used (prev) :  000012F0 000000AB
                    | + function block  :  00000000 00000000
  07              LL_PowerOffReq
                  | Stack used (prev) :  000012F0 000000AB
                  | + function block  :  00000012 00000000
  08                llGetFullCTandST
                    | Stack used (prev) :  000012F0 000000AB
                    | + function block  :  00000000 00000003
  08                llGetCurrentTask
                    | Stack used (prev) :  000001B6 00000032
                    | + function block  :  00000000 00000002
                    |  Already listed
  07              LL_TimeToNextRfEvent
                  | Stack used (prev) :  000012F0 000000AE
                  | + function block  :  0000003E 00000000
  06            halSleep
                | Stack used (prev) :  0000132E 000000AF
                | + function block  :  00000030 00000000
  06            osal_next_timeout
                | Stack used (prev) :  000012F0 000000AB
                | + function block  :  00000010 00000000
  05          osal_pwrmgr_powerconserve
              | Stack used (prev) :  0000135E 000000AF
              | + function block  :  00000018 00000000
  05          osalTimeUpdate
              | Stack used (prev) :  0000005D 00000003
              | + function block  :  0000001C 00000000
              |  Already listed
  04        osal_run_system
            | Stack used (prev) :  00001376 000000B3
            | + function block  :  00000018 00000000
  03      osal_start_system
          | Stack used (prev) :  0000138E 000000B3
          | + function block  :  00000000 00000004
  04        osalTimerInit
            | Stack used (prev) :  000012F0 000000AB
            | + function block  :  00000009 00000000
  07              osal_memcpy
                  | Stack used (prev) :  00000000 00000000
                  | + function block  :  00000019 00000001
                  |  Already listed
  08                GATTServApp_ReadAttr
                    | Stack used (prev) :  00000A20 00000081
                    | + function block  :  0000007B 00000000
                    |  Already listed
  08                GATTServApp_FindAttr
                    | Stack used (prev) :  000012F0 000000AB
                    | + function block  :  0000003F 00000000
  09                  linkDB_Authen
                      | Stack used (prev) :  00000406 0000005C
                      | + function block  :  00000018 00000000
                      |  Already listed
  09                  gattGetServerStatus
                      | Stack used (prev) :  00000429 0000005A
                      | + function block  :  00000024 00000000
                      |  Already listed
  10                    attSendMsg
                        | Stack used (prev) :  00000579 0000005E
                        | + function block  :  00000032 00000000
                        |  Already listed
  09                  ATT_HandleValueNoti
                      | Stack used (prev) :  000012F0 000000AB
                      | + function block  :  0000000C 00000000
  08                GATT_Notification
                    | Stack used (prev) :  000012FC 000000AB
                    | + function block  :  0000001A 00000000
  08                GATT_Indication
                    | Stack used (prev) :  000005C3 0000005E
                    | + function block  :  00000044 00000000
                    |  Already listed
  07              GATTServApp_ProcessCharCfg
                  | Stack used (prev) :  0000132F 000000AB
                  | + function block  :  0000006B 00000000
  06            SimpleProfile_SetParameter
                | Stack used (prev) :  0000139A 000000AB
                | + function block  :  00000022 00000000
  06            SimpleProfile_RegisterAppCBs
                | Stack used (prev) :  000012F0 000000AB
                | + function block  :  00000000 00000002
  07              linkDB_Register
                  | Stack used (prev) :  000012F0 000000AB
                  | + function block  :  00000009 00000000
  07              GATTServApp_InitCharCfg
                  | Stack used (prev) :  00000400 0000005C
                  | + function block  :  00000022 00000000
                  |  Already listed
  08                osal_mem_alloc
                    | Stack used (prev) :  00000000 00000000
                    | + function block  :  00000018 00000000
                    |  Already listed
  09                  osal_mem_alloc
                      | Stack used (prev) :  00000000 00000000
                      | + function block  :  00000018 00000000
                      |  Already listed
  09                  osal_memcpy
                      | Stack used (prev) :  00000000 00000000
                      | + function block  :  00000019 00000001
                      |  Already listed
  09                  ATT_CompareUUID
                      | Stack used (prev) :  0000041C 0000005B
                      | + function block  :  0000003C 00000000
                      |  Already listed
  08                GATT_RegisterService
                    | Stack used (prev) :  000012F0 000000AB
                    | + function block  :  00000012 00000000
  07              GATTServApp_RegisterService
                  | Stack used (prev) :  00001302 000000AB
                  | + function block  :  00000032 00000000
  06            SimpleProfile_AddService
                | Stack used (prev) :  00001334 000000AB
                | + function block  :  0000001C 00000000
  07              gapRole_startConnUpdate
                  | Stack used (prev) :  000010EB 000000A1
                  | + function block  :  0000003E 00000002
                  |  Already listed
  07              osal_get_timeoutEx
                  | Stack used (prev) :  00001089 000000A1
                  | + function block  :  0000000E 00000000
                  |  Already listed
  07              osal_stop_timerEx
                  | Stack used (prev) :  000001C2 00000034
                  | + function block  :  00000018 00000000
                  |  Already listed
  07              osal_start_timerEx
                  | Stack used (prev) :  0000004A 00000002
                  | + function block  :  00000024 00000000
                  |  Already listed
  07              osal_set_event
                  | Stack used (prev) :  00000000 00000000
                  | + function block  :  00000017 00000000
                  |  Already listed
  07              osal_memset
                  | Stack used (prev) :  000003F4 0000005C
                  | + function block  :  00000018 00000000
                  |  Already listed
  07              osal_memcpy
                  | Stack used (prev) :  00000000 00000000
                  | + function block  :  00000019 00000001
                  |  Already listed
  07              GAP_EndDiscoverable
                  | Stack used (prev) :  00000430 0000005C
                  | + function block  :  0000001E 00000000
                  |  Already listed
  07              GAP_UpdateAdvertisingData
                  | Stack used (prev) :  000010A9 000000A1
                  | + function block  :  00000024 00000001
                  |  Already listed
  07              GAP_SetParamValue
                  | Stack used (prev) :  000003F2 0000005A
                  | + function block  :  00000000 00000002
                  |  Already listed
  06            GAPRole_SetParameter
                | Stack used (prev) :  000012F0 000000AB
                | + function block  :  00000014 00000000
  06            Recursive system consisting of
                 | HalLcdWriteString
                | Stack used (prev) :  0000027A 0000004C
                | + function block  :  00000051 00000000
                |  Already listed
  06            HalAdcInit
                | Stack used (prev) :  000012F0 000000AB
                | + function block  :  00000000 00000002
                |  Already listed
  07              GATTServApp_RegisterService
                  | Stack used (prev) :  00001302 000000AB
                  | + function block  :  00000032 00000000
                  |  Already listed
  06            DevInfo_AddService
                | Stack used (prev) :  00001334 000000AB
                | + function block  :  00000018 00000000
  07              GATTServApp_InitCharCfg
                  | Stack used (prev) :  00000400 0000005C
                  | + function block  :  00000022 00000000
                  |  Already listed
  07              GATTServApp_RegisterService
                  | Stack used (prev) :  00001302 000000AB
                  | + function block  :  00000032 00000000
                  |  Already listed
  06            Batt_AddService
                | Stack used (prev) :  00001334 000000AB
                | + function block  :  00000018 00000000
  08                HalUARTOpen
                    | Stack used (prev) :  000012F0 000000AB
                    | + function block  :  00000000 00000002
  07              SbpHalUARTInit
                  | Stack used (prev) :  000012F0 000000AD
                  | + function block  :  0000003A 00000004
  06            SbpHalUART_Init
                | Stack used (prev) :  0000132A 000000B1
                | + function block  :  00000000 00000004
  06            RegisterForKeys
                | Stack used (prev) :  000012F0 000000AB
                | + function block  :  00000000 00000002
  06            osal_set_event
                | Stack used (prev) :  00000000 00000000
                | + function block  :  00000017 00000000
                |  Already listed
  07              GATTServApp_RegisterService
                  | Stack used (prev) :  00001302 000000AB
                  | + function block  :  00000032 00000000
                  |  Already listed
  06            GATTServApp_AddService
                | Stack used (prev) :  00001334 000000AB
                | + function block  :  0000001C 00000000
  07              GATTServApp_RegisterService
                  | Stack used (prev) :  00001302 000000AB
                  | + function block  :  00000032 00000000
                  |  Already listed
  06            GGS_AddService
                | Stack used (prev) :  00001334 000000AB
                | + function block  :  0000001C 00000000
  06            GAP_SetParamValue
                | Stack used (prev) :  000003F2 0000005A
                | + function block  :  00000000 00000002
                |  Already listed
  05          SimpleBLEPeripheral_Init
              | Stack used (prev) :  000013BC 000000B5
              | + function block  :  0000003C 00000000
  06            osal_snv_read
                | Stack used (prev) :  00000442 0000005B
                | + function block  :  00000018 00000000
                |  Already listed
  06            osal_memset
                | Stack used (prev) :  000003F4 0000005C
                | + function block  :  00000018 00000000
                |  Already listed
  06            GAP_RegisterForHCIMsgs
                | Stack used (prev) :  000012F0 000000AB
                | + function block  :  00000000 00000002
  05          GAPRole_Init
              | Stack used (prev) :  000012F0 000000AD
              | + function block  :  00000012 00000000
  06            osal_memset
                | Stack used (prev) :  000003F4 0000005C
                | + function block  :  00000018 00000000
                |  Already listed
  05          osal_CbTimerInit
              | Stack used (prev) :  000012F0 000000AB
              | + function block  :  00000009 00000000
  05          Hal_Init
              | Stack used (prev) :  000012F0 000000AB
              | + function block  :  00000000 00000002
  06            gapBondMgrReadBonds
                | Stack used (prev) :  00000473 00000064
                | + function block  :  00000036 00000000
                |  Already listed
  05          GAPBondMgr_Init
              | Stack used (prev) :  000012F0 000000AB
              | + function block  :  00000009 00000000
  05          osal_mem_alloc
              | Stack used (prev) :  00000000 00000000
              | + function block  :  00000018 00000000
              |  Already listed
  05          osal_memset
              | Stack used (prev) :  000003F4 0000005C
              | + function block  :  00000018 00000000
              |  Already listed
  06            hciInitEventMasks
                | Stack used (prev) :  000012F0 000000AB
                | + function block  :  00000000 00000002
  05          HCI_Init
              | Stack used (prev) :  000012F0 000000AD
              | + function block  :  00000012 00000000
  06            HCI_SMPTaskRegister
                | Stack used (prev) :  000012F0 000000AB
                | + function block  :  00000000 00000002
  06            linkDB_Register
                | Stack used (prev) :  000012F0 000000AB
                | + function block  :  00000009 00000000
                |  Already listed
  06            L2CAP_RegisterApp
                | Stack used (prev) :  000012F0 000000AB
                | + function block  :  00000000 00000003
  05          SM_Init
              | Stack used (prev) :  000012F9 000000AE
              | + function block  :  00000012 00000000
  06            HalFlashRead
                | Stack used (prev) :  000003F2 0000005A
                | + function block  :  0000000E 00000001
                |  Already listed
  06            osal_pwrmgr_task_state
                | Stack used (prev) :  000003CC 00000052
                | + function block  :  0000000A 00000000
                |  Already listed
  06            osal_set_event
                | Stack used (prev) :  00000000 00000000
                | + function block  :  00000017 00000000
                |  Already listed
  07              PHY_ClearAllRegsAndFifos
                  | Stack used (prev) :  000012F0 000000AB
                  | + function block  :  00000000 00000002
  07              PHY_Reset
                  | Stack used (prev) :  00000000 00000000
                  | + function block  :  00000000 00000002
                  |  Already listed
  06            PHY_Init
                | Stack used (prev) :  000012F0 000000AD
                | + function block  :  00000000 00000004
  06            llInitTimer2
                | Stack used (prev) :  000012F0 000000AB
                | + function block  :  00000000 00000000
  06            LL_ENC_InitAesDMA
                | Stack used (prev) :  000012F0 000000AB
                | + function block  :  00000000 00000002
  06            LL_ENC_GenerateTrueRandNum
                | Stack used (prev) :  00000000 00000006
                | + function block  :  00000016 00000000
                |  Already listed
  07              HalFlashWrite
                  | Stack used (prev) :  000003F2 0000005A
                  | + function block  :  0000000C 00000000
                  |  Already listed
  06            llFindTxPowerSettings
                | Stack used (prev) :  000012F0 000000AB
                | + function block  :  00000022 00000002
  07              PHY_SetFifoConfig
                  | Stack used (prev) :  000012F0 000000AB
                  | + function block  :  00000000 00000002
  07              PHY_ConfigureAppendRfStatus
                  | Stack used (prev) :  00000000 00000000
                  | + function block  :  00000000 00000002
                  |  Already listed
  07              PHY_ConfigureFifoDataProcessing
                  | Stack used (prev) :  000012F0 000000AB
                  | + function block  :  00000000 00000002
  07              PHY_ClearSavedWhiteList
                  | Stack used (prev) :  000012F0 000000AB
                  | + function block  :  00000000 00000002
  07              PHY_ClearBlacklist
                  | Stack used (prev) :  000012F0 000000AB
                  | + function block  :  00000000 00000002
  07              PHY_ClearWhitelist
                  | Stack used (prev) :  000003F2 0000005A
                  | + function block  :  00000000 00000002
                  |  Already listed
  07              PHY_ConfigureMD
                  | Stack used (prev) :  000012F0 000000AB
                  | + function block  :  00000000 00000002
  07              PHY_SetCRCInit
                  | Stack used (prev) :  00000000 00000000
                  | + function block  :  00000010 00000000
                  |  Already listed
  07              PHY_ClearAllRegsAndFifos
                  | Stack used (prev) :  000012F0 000000AB
                  | + function block  :  00000000 00000002
                  |  Already listed
  07              llDisableT2IntsEvts
                  | Stack used (prev) :  00000000 00000000
                  | + function block  :  00000000 00000000
                  |  Already listed
  07              llSchedulerInit
                  | Stack used (prev) :  000012F0 000000AB
                  | + function block  :  00000000 00000002
  07              llInitFeatureSet
                  | Stack used (prev) :  000012F0 000000AB
                  | + function block  :  00000000 00000002
  07              llReleaseAllConnId
                  | Stack used (prev) :  000012F0 000000AB
                  | + function block  :  00000000 00000002
  07              llClearSetInts
                  | Stack used (prev) :  000012F0 000000AB
                  | + function block  :  00000000 00000002
  07              llRfInit
                  | Stack used (prev) :  00000000 00000002
                  | + function block  :  00000000 00000004
                  |  Already listed
  06            LL_Reset
                | Stack used (prev) :  000012F0 000000AD
                | + function block  :  0000000C 00000004
  05          LL_Init
              | Stack used (prev) :  00001312 000000B1
              | + function block  :  00000018 00000000
  06            HCI_L2CAPTaskRegister
                | Stack used (prev) :  000012F0 000000AB
                | + function block  :  00000000 00000002
  05          L2CAP_Init
              | Stack used (prev) :  000012F0 000000AD
              | + function block  :  00000014 00000000
  06            linkDB_Register
                | Stack used (prev) :  000012F0 000000AB
                | + function block  :  00000009 00000000
                |  Already listed
  06            GATTServApp_InitCharCfg
                | Stack used (prev) :  00000400 0000005C
                | + function block  :  00000022 00000000
                |  Already listed
  07              osal_mem_free
                  | Stack used (prev) :  00000000 00000000
                  | + function block  :  0000000A 00000002
                  |  Already listed
  07              osal_mem_alloc
                  | Stack used (prev) :  00000000 00000000
                  | + function block  :  00000018 00000000
                  |  Already listed
  07              osal_memset
                  | Stack used (prev) :  000003F4 0000005C
                  | + function block  :  00000018 00000000
                  |  Already listed
  06            gattServApp_SetNumPrepareWrites
                | Stack used (prev) :  000012F0 000000AB
                | + function block  :  00000017 00000000
  06            GATT_RegisterForReq
                | Stack used (prev) :  000012F0 000000AB
                | + function block  :  00000000 00000002
  05          GATTServApp_Init
              | Stack used (prev) :  00001307 000000AD
              | + function block  :  00000012 00000000
  06            L2CAP_RegisterApp
                | Stack used (prev) :  000012F0 000000AB
                | + function block  :  00000000 00000003
                |  Already listed
  07              linkDB_Register
                  | Stack used (prev) :  000012F0 000000AB
                  | + function block  :  00000009 00000000
                  |  Already listed
  07              gattRegisterServer
                  | Stack used (prev) :  000012F0 000000AB
                  | + function block  :  00000000 00000002
  06            GATT_InitServer
                | Stack used (prev) :  000012F9 000000AD
                | + function block  :  00000014 00000000
  05          GATT_Init
              | Stack used (prev) :  0000130D 000000AE
              | + function block  :  00000012 00000000
  06            HCI_GAPTaskRegister
                | Stack used (prev) :  000012F0 000000AB
                | + function block  :  00000000 00000002
  06            linkDB_Init
                | Stack used (prev) :  000012F0 000000AB
                | + function block  :  00000000 00000002
  06            L2CAP_RegisterApp
                | Stack used (prev) :  000012F0 000000AB
                | + function block  :  00000000 00000003
                |  Already listed
  05          GAP_Init
              | Stack used (prev) :  000012F0 000000AE
              | + function block  :  00000012 00000000
  04        osalInitTasks
            | Stack used (prev) :  000013F8 000000B5
            | + function block  :  00000000 00000004
  04        osal_pwrmgr_init
            | Stack used (prev) :  000012F0 000000AB
            | + function block  :  00000000 00000002
  05          osal_mem_free
              | Stack used (prev) :  00000000 00000000
              | + function block  :  0000000A 00000002
              |  Already listed
  05          osal_mem_alloc
              | Stack used (prev) :  00000000 00000000
              | + function block  :  00000018 00000000
              |  Already listed
  04        osal_mem_kick
            | Stack used (prev) :  000012F0 000000AB
            | + function block  :  0000000A 00000000
  04        osal_mem_init
            | Stack used (prev) :  000012F0 000000AB
            | + function block  :  00000000 00000002
  03      osal_init_system
          | Stack used (prev) :  000013F8 000000B9
          | + function block  :  00000000 00000004
  02    main
        | Stack used (prev) :  000013F8 000000BD
        | + function block  :  00000000 00000000
  01  ?call_main
      | Stack used (prev) :  000013F8 000000BD
      | + function block  :  00000000 00000000
  <-Sub-tree of type: Function tree
    | Stack used          :  000013F8 000000BD


  ->Sub-tree of type: Function tree
                             XSTACK   ISTACK
    | Stack used (prev) :  000013F8 000000BD
  01  __program_start
      | Stack used (prev) :  000013F8 000000BD
      | + function block  :  00000000 00000000
  <-Sub-tree of type: Function tree
    | Stack used          :  000013F8 000000BD


  ->Sub-tree of type: Function tree
                             XSTACK   ISTACK
    | Stack used (prev) :  000013F8 000000BD
  01  memset::?relay
      | Stack used (prev) :  000013F8 000000BD
      | + function block  :  00000000 00000000
  <-Sub-tree of type: Function tree
    | Stack used          :  000013F8 000000BD


  ->Sub-tree of type: Function tree
                             XSTACK   ISTACK
    | Stack used (prev) :  000013F8 000000BD
  01  strcat::?relay
      | Stack used (prev) :  000013F8 000000BD
      | + function block  :  00000000 00000000
  <-Sub-tree of type: Function tree
    | Stack used          :  000013F8 000000BD


  ->Sub-tree of type: Function tree
                             XSTACK   ISTACK
    | Stack used (prev) :  000013F8 000000BD
  01  strcpy::?relay
      | Stack used (prev) :  000013F8 000000BD
      | + function block  :  00000000 00000000
  <-Sub-tree of type: Function tree
    | Stack used          :  000013F8 000000BD


  ->Sub-tree of type: Function tree
                             XSTACK   ISTACK
    | Stack used (prev) :  000013F8 000000BD
  01  strlen::?relay
      | Stack used (prev) :  000013F8 000000BD
      | + function block  :  00000000 00000000
  <-Sub-tree of type: Function tree
    | Stack used          :  000013F8 000000BD




                ****************************************
                *                                      *
                *      SEGMENTS IN ADDRESS ORDER       *
                *                                      *
                ****************************************


SEGMENT              SPACE    START ADDRESS   END ADDRESS     SIZE  TYPE  ALIGN
=======              =====    =============   ===========     ====  ====  =====
INTVEC               CODE          00000000 - 00000085          86   com    0
CSTART               CODE          00000086 - 0000014C          C7   rel    0
BDATA_ID             CODE               0000014D                     dse    0
BIT_ID               CODE               0000014D                     dse    0
DATA_ID              CODE          0000014D - 0000014D           1   rel    0
PDATA_ID             CODE               0000014E                     dse    0
IXDATA_ID            CODE               0000014E                     dse    0
IDATA_ID             CODE               0000014E                     dse    0
XDATA_ID             CODE          0000014E - 00000477         32A   rel    0
BANK_RELAYS          CODE          00000478 - 0000149D        1026   rel    0
RCODE                CODE          0000149E - 00001B8D         6F0   rel    0
CODE_N               CODE               00001B8E                     dse    0
DIFUNCT              CODE               00001B8E                     dse    0
NEAR_CODE            CODE          00001B90 - 00002B89         FFA   rel    2
<BANKED_CODE,CODE_C> 1
                     CODE          00002B8C - 00007FF7        546C   rel    2
SLEEP_CODE           CODE          00007FF8 - 00007FFF           8   rel    0
<BANKED_CODE,XDATA_ROM_C_FLASH> 1
                     CODE          00008000 - 0000FFF9        7FFA   rel    2
<BANKED_CODE> 1      CODE          00010000 - 00017FF1        7FF2   rel    0
<BANKED_CODE> 2      CODE          00018000 - 0001C607        4608   rel    0
BLENV_ADDRESS_SPACE
                     CODE          0003E800 - 0003F7FF        1000   rel    0
REGISTERS            DATA          00000000 - 00000007           8   rel    0
VREG                 DATA          00000008 - 00000017          10   rel    0
PSP                  DATA               00000018                     dse    0
XSP                  DATA          00000018 - 00000019           2   rel    0
DATA_I               DATA          0000001A - 0000001A           1   rel    0
BREG                 BIT        00000020.0  -  00000020.7        8   rel    0
DATA_Z               DATA          00000021 - 00000028           8   rel    0
SFR_AN               DATA          00000080 - 00000080           1   rel    0
                     DATA          00000086 - 0000008D           8 
                     DATA          00000090 - 00000091           2 
                     DATA          00000094 - 00000097           4 
                     DATA          0000009A - 000000A9          10 
                     DATA          000000AB - 000000AF           5 
                     DATA          000000B3 - 000000B4           2 
                     DATA          000000B6 - 000000B6           1 
                     DATA          000000B8 - 000000C7          10 
                     DATA          000000C9 - 000000C9           1 
                     DATA          000000D1 - 000000D7           7 
                     DATA          000000D9 - 000000DB           3 
                     DATA          000000E1 - 000000E5           5 
                     DATA          000000E8 - 000000E9           2 
                     DATA          000000F1 - 000000F2           2 
                     DATA          000000F2 - 000000F5           4 
                     DATA          000000F7 - 000000FF           9 
XSTACK               XDATA         00000001 - 00000280         280   rel    0
XDATA_Z              XDATA         00000281 - 00000D58         AD8   rel    0
XDATA_I              XDATA         00000D59 - 00001082         32A   rel    0
<XDATA_N> 1          XDATA         00001083 - 00001C86         C04   rel    0
<XDATA_ROM_C> 1      CONST         00008000 - 00008527         528   rel    2
IDATA_I              IDATA              00000029                     dse    0
IDATA_Z              IDATA         00000029 - 0000002A           2   rel    0
ISTACK               IDATA         00000038 - 000000FF          C8   rel    0

                ****************************************
                *                                      *
                *        END OF CROSS REFERENCE        *
                *                                      *
                ****************************************

 120 304 bytes of CODE  memory
      35 bytes of DATA  memory (+ 88 absolute )
   7 302 bytes of XDATA memory
     202 bytes of IDATA memory
       8 bits  of BIT   memory
   1 320 bytes of CONST memory

Errors: none
Warnings: 2

